---
triple:          'arm64-apple-darwin'
binary-path:     '/Users/cps/Projects/DPRS/target/debug/deps/libdprs.dylib'
relocations:
  - { offsetInCU: 0x1E, offset: 0x1E, size: 0x8, addend: 0x0, symName: __RNvMs0_NtCsF7gmULBm3O_4pyo38instanceINtB5_5BoundNtNtNtB7_5types3any5PyAnyE14from_owned_ptrCsaYfPqFfImBE_4dprs, symObjAddr: 0x0, symBinAddr: 0x3B1C, symSize: 0x48 }
  - { offsetInCU: 0x17D3, offset: 0x17D3, size: 0x8, addend: 0x0, symName: __RNvNvXsy_NtCsF7gmULBm3O_4pyo38instanceINtB7_2PypENtNtNtCs2tD97QJu26F_4core3ops4drop4Drop4drop5innerCsaYfPqFfImBE_4dprs, symObjAddr: 0xF0, symBinAddr: 0x3C0C, symSize: 0x1D4 }
  - { offsetInCU: 0x18CF, offset: 0x18CF, size: 0x8, addend: 0x0, symName: __RNvXs_NtNtCsF7gmULBm3O_4pyo35types10typeobjectINtNtB8_8instance5BoundNtB4_6PyTypeENtB4_13PyTypeMethods11as_type_ptrCsaYfPqFfImBE_4dprs, symObjAddr: 0x2C4, symBinAddr: 0x3DE0, symSize: 0x24 }
  - { offsetInCU: 0x1F57, offset: 0x1F57, size: 0x8, addend: 0x0, symName: __RNvMs0_NtCsF7gmULBm3O_4pyo38instanceINtB5_5BoundNtNtNtB7_5types3any5PyAnyE14from_owned_ptrCsaYfPqFfImBE_4dprs, symObjAddr: 0x0, symBinAddr: 0x3B1C, symSize: 0x48 }
  - { offsetInCU: 0x1FC0, offset: 0x1FC0, size: 0x8, addend: 0x0, symName: __RNvMsd_NtCsF7gmULBm3O_4pyo38instanceINtB5_8BorrowedNtNtNtB7_5types3any5PyAnyE13from_non_nullCsaYfPqFfImBE_4dprs, symObjAddr: 0x48, symBinAddr: 0x3B64, symSize: 0x14 }
  - { offsetInCU: 0x220B, offset: 0x220B, size: 0x8, addend: 0x0, symName: __RNvMsd_NtCsF7gmULBm3O_4pyo38instanceINtB5_8BorrowedNtNtNtB7_5types3any5PyAnyE15from_ptr_or_errCsaYfPqFfImBE_4dprs, symObjAddr: 0x5C, symBinAddr: 0x3B78, symSize: 0x38 }
  - { offsetInCU: 0x2249, offset: 0x2249, size: 0x8, addend: 0x0, symName: __RNvMsd_NtCsF7gmULBm3O_4pyo38instanceINtB5_8BorrowedNtNtNtB7_5types3any5PyAnyE15from_ptr_or_optCsaYfPqFfImBE_4dprs, symObjAddr: 0x94, symBinAddr: 0x3BB0, symSize: 0x2C }
  - { offsetInCU: 0x2287, offset: 0x2287, size: 0x8, addend: 0x0, symName: __RNvMsd_NtCsF7gmULBm3O_4pyo38instanceINtB5_8BorrowedNtNtNtB7_5types3any5PyAnyE18from_ptr_uncheckedCsaYfPqFfImBE_4dprs, symObjAddr: 0xC0, symBinAddr: 0x3BDC, symSize: 0x30 }
  - { offsetInCU: 0x1E, offset: 0x22F0, size: 0x8, addend: 0x0, symName: __RNvXs9_NtNtCsF7gmULBm3O_4pyo35types5tupleNtB5_21BorrowedTupleIteratorNtNtNtNtCs2tD97QJu26F_4core4iter6traits8iterator8Iterator4nextCsaYfPqFfImBE_4dprs, symObjAddr: 0x0, symBinAddr: 0x3E04, symSize: 0x9C }
  - { offsetInCU: 0x1252, offset: 0x3524, size: 0x8, addend: 0x0, symName: __RNvXs9_NtNtCsF7gmULBm3O_4pyo35types5tupleNtB5_21BorrowedTupleIteratorNtNtNtNtCs2tD97QJu26F_4core4iter6traits8iterator8Iterator4nextCsaYfPqFfImBE_4dprs, symObjAddr: 0x0, symBinAddr: 0x3E04, symSize: 0x9C }
  - { offsetInCU: 0x1E, offset: 0x3BDC, size: 0x8, addend: 0x0, symName: __RNvNvNtCs2tD97QJu26F_4core9ub_checks23maybe_is_nonoverlapping7runtimeCsaYfPqFfImBE_4dprs, symObjAddr: 0x0, symBinAddr: 0x3EA0, symSize: 0xD8 }
  - { offsetInCU: 0x1A3, offset: 0x3D61, size: 0x8, addend: 0x0, symName: __RNvNvNtCs2tD97QJu26F_4core9ub_checks23maybe_is_nonoverlapping7runtimeCsaYfPqFfImBE_4dprs, symObjAddr: 0x0, symBinAddr: 0x3EA0, symSize: 0xD8 }
  - { offsetInCU: 0x1E, offset: 0x3F74, size: 0x8, addend: 0x0, symName: __RNvNtCsaYfPqFfImBE_4dprs4life14run_simulation, symObjAddr: 0x0, symBinAddr: 0x3F78, symSize: 0x550 }
  - { offsetInCU: 0x135A, offset: 0x52B0, size: 0x8, addend: 0x0, symName: __RNvNtCsaYfPqFfImBE_4dprs4life14run_simulation, symObjAddr: 0x0, symBinAddr: 0x3F78, symSize: 0x550 }
  - { offsetInCU: 0x1503, offset: 0x5459, size: 0x8, addend: 0x0, symName: __RNvNtCsaYfPqFfImBE_4dprs4life8sim_life, symObjAddr: 0x550, symBinAddr: 0x44C8, symSize: 0x4D8 }
  - { offsetInCU: 0x1E, offset: 0x607A, size: 0x8, addend: 0x0, symName: __RNvMs7_NtCsaYfPqFfImBE_4dprs10parametersNtB5_9Dimension15___pymethod_D1__, symObjAddr: 0x0, symBinAddr: 0x49A0, symSize: 0x20 }
  - { offsetInCU: 0x4C, offset: 0x60A8, size: 0x8, addend: 0x0, symName: __RNvNvXs4_NtCsaYfPqFfImBE_4dprs10parametersNtB7_9DimensionNtNtCsF7gmULBm3O_4pyo310conversion12IntoPyObject13into_pyobject9SINGLETON, symObjAddr: 0x1E750, symBinAddr: 0x14D620, symSize: 0x0 }
  - { offsetInCU: 0x5A, offset: 0x60B6, size: 0x8, addend: 0x0, symName: __RNvXs4_NtCsaYfPqFfImBE_4dprs10parametersNtB5_9DimensionNtNtCsF7gmULBm3O_4pyo310conversion12IntoPyObject13into_pyobject, symObjAddr: 0x2728, symBinAddr: 0x70C8, symSize: 0xD0 }
  - { offsetInCU: 0x1D0, offset: 0x622C, size: 0x8, addend: 0x0, symName: __RNvNvXs6_NtCsaYfPqFfImBE_4dprs10parametersNtB7_9DimensionNtNtNtCsF7gmULBm3O_4pyo35impl_7pyclass11PyClassImpl10items_iter15INTRINSIC_ITEMS, symObjAddr: 0x6588, symBinAddr: 0x140368, symSize: 0x0 }
  - { offsetInCU: 0x1F0, offset: 0x624C, size: 0x8, addend: 0x0, symName: __RNvNvXs6_NtCsaYfPqFfImBE_4dprs10parametersNtB7_9DimensionNtNtNtCsF7gmULBm3O_4pyo35impl_7pyclass11PyClassImpl16lazy_type_object11TYPE_OBJECT, symObjAddr: 0x6978, symBinAddr: 0x14C450, symSize: 0x0 }
  - { offsetInCU: 0x1FE, offset: 0x625A, size: 0x8, addend: 0x0, symName: __RNvXs6_NtCsaYfPqFfImBE_4dprs10parametersNtB5_9DimensionNtNtNtCsF7gmULBm3O_4pyo35impl_7pyclass11PyClassImpl10items_iter, symObjAddr: 0x28D4, symBinAddr: 0x7274, symSize: 0x3C }
  - { offsetInCU: 0x239, offset: 0x6295, size: 0x8, addend: 0x0, symName: __RNvXs6_NtCsaYfPqFfImBE_4dprs10parametersNtB5_9DimensionNtNtNtCsF7gmULBm3O_4pyo35impl_7pyclass11PyClassImpl16lazy_type_object, symObjAddr: 0x2910, symBinAddr: 0x72B0, symSize: 0xC }
  - { offsetInCU: 0x26E, offset: 0x62CA, size: 0x8, addend: 0x0, symName: __RNvNvXsE_NtCsaYfPqFfImBE_4dprs10parametersNtB7_10ProcessingNtNtCsF7gmULBm3O_4pyo310conversion12IntoPyObject13into_pyobject9SINGLETON, symObjAddr: 0x1E780, symBinAddr: 0x14D650, symSize: 0x0 }
  - { offsetInCU: 0x27C, offset: 0x62D8, size: 0x8, addend: 0x0, symName: __RNvXsE_NtCsaYfPqFfImBE_4dprs10parametersNtB5_10ProcessingNtNtCsF7gmULBm3O_4pyo310conversion12IntoPyObject13into_pyobject, symObjAddr: 0x29B8, symBinAddr: 0x7358, symSize: 0xD0 }
  - { offsetInCU: 0x3F2, offset: 0x644E, size: 0x8, addend: 0x0, symName: __RNvNvXsG_NtCsaYfPqFfImBE_4dprs10parametersNtB7_10ProcessingNtNtNtCsF7gmULBm3O_4pyo35impl_7pyclass11PyClassImpl10items_iter15INTRINSIC_ITEMS, symObjAddr: 0x6680, symBinAddr: 0x140460, symSize: 0x0 }
  - { offsetInCU: 0x412, offset: 0x646E, size: 0x8, addend: 0x0, symName: __RNvNvXsG_NtCsaYfPqFfImBE_4dprs10parametersNtB7_10ProcessingNtNtNtCsF7gmULBm3O_4pyo35impl_7pyclass11PyClassImpl16lazy_type_object11TYPE_OBJECT, symObjAddr: 0x69E0, symBinAddr: 0x14C4B8, symSize: 0x0 }
  - { offsetInCU: 0x420, offset: 0x647C, size: 0x8, addend: 0x0, symName: __RNvXsG_NtCsaYfPqFfImBE_4dprs10parametersNtB5_10ProcessingNtNtNtCsF7gmULBm3O_4pyo35impl_7pyclass11PyClassImpl10items_iter, symObjAddr: 0x2B64, symBinAddr: 0x7504, symSize: 0x3C }
  - { offsetInCU: 0x45B, offset: 0x64B7, size: 0x8, addend: 0x0, symName: __RNvXsG_NtCsaYfPqFfImBE_4dprs10parametersNtB5_10ProcessingNtNtNtCsF7gmULBm3O_4pyo35impl_7pyclass11PyClassImpl16lazy_type_object, symObjAddr: 0x2BA0, symBinAddr: 0x7540, symSize: 0xC }
  - { offsetInCU: 0x490, offset: 0x64EC, size: 0x8, addend: 0x0, symName: __RNvNvXsK_NtCsaYfPqFfImBE_4dprs10parametersNtB7_10ParametersNtNtCsF7gmULBm3O_4pyo310conversion12FromPyObject7extract8INTERNED, symObjAddr: 0x6A48, symBinAddr: 0x14C520, symSize: 0x0 }
  - { offsetInCU: 0x4AA, offset: 0x6506, size: 0x8, addend: 0x0, symName: __RNvNvXsK_NtCsaYfPqFfImBE_4dprs10parametersNtB7_10ParametersNtNtCsF7gmULBm3O_4pyo310conversion12FromPyObject7extracts0_8INTERNED, symObjAddr: 0x6A68, symBinAddr: 0x14C540, symSize: 0x0 }
  - { offsetInCU: 0x4C4, offset: 0x6520, size: 0x8, addend: 0x0, symName: __RNvNvXsK_NtCsaYfPqFfImBE_4dprs10parametersNtB7_10ParametersNtNtCsF7gmULBm3O_4pyo310conversion12FromPyObject7extracts1_8INTERNED, symObjAddr: 0x6A88, symBinAddr: 0x14C560, symSize: 0x0 }
  - { offsetInCU: 0x4DE, offset: 0x653A, size: 0x8, addend: 0x0, symName: __RNvNvXsK_NtCsaYfPqFfImBE_4dprs10parametersNtB7_10ParametersNtNtCsF7gmULBm3O_4pyo310conversion12FromPyObject7extracts2_8INTERNED, symObjAddr: 0x6AA8, symBinAddr: 0x14C580, symSize: 0x0 }
  - { offsetInCU: 0x4F8, offset: 0x6554, size: 0x8, addend: 0x0, symName: __RNvNvXsK_NtCsaYfPqFfImBE_4dprs10parametersNtB7_10ParametersNtNtCsF7gmULBm3O_4pyo310conversion12FromPyObject7extracts3_8INTERNED, symObjAddr: 0x6AC8, symBinAddr: 0x14C5A0, symSize: 0x0 }
  - { offsetInCU: 0x512, offset: 0x656E, size: 0x8, addend: 0x0, symName: __RNvNvXsK_NtCsaYfPqFfImBE_4dprs10parametersNtB7_10ParametersNtNtCsF7gmULBm3O_4pyo310conversion12FromPyObject7extracts4_8INTERNED, symObjAddr: 0x6AE8, symBinAddr: 0x14C5C0, symSize: 0x0 }
  - { offsetInCU: 0x52C, offset: 0x6588, size: 0x8, addend: 0x0, symName: __RNvNvXsK_NtCsaYfPqFfImBE_4dprs10parametersNtB7_10ParametersNtNtCsF7gmULBm3O_4pyo310conversion12FromPyObject7extracts5_8INTERNED, symObjAddr: 0x6B08, symBinAddr: 0x14C5E0, symSize: 0x0 }
  - { offsetInCU: 0x546, offset: 0x65A2, size: 0x8, addend: 0x0, symName: __RNvNvXsK_NtCsaYfPqFfImBE_4dprs10parametersNtB7_10ParametersNtNtCsF7gmULBm3O_4pyo310conversion12FromPyObject7extracts6_8INTERNED, symObjAddr: 0x6B28, symBinAddr: 0x14C600, symSize: 0x0 }
  - { offsetInCU: 0x560, offset: 0x65BC, size: 0x8, addend: 0x0, symName: __RNvNvXsK_NtCsaYfPqFfImBE_4dprs10parametersNtB7_10ParametersNtNtCsF7gmULBm3O_4pyo310conversion12FromPyObject7extracts7_8INTERNED, symObjAddr: 0x6B48, symBinAddr: 0x14C620, symSize: 0x0 }
  - { offsetInCU: 0x57A, offset: 0x65D6, size: 0x8, addend: 0x0, symName: __RNvNvXsK_NtCsaYfPqFfImBE_4dprs10parametersNtB7_10ParametersNtNtCsF7gmULBm3O_4pyo310conversion12FromPyObject7extracts8_8INTERNED, symObjAddr: 0x6B68, symBinAddr: 0x14C640, symSize: 0x0 }
  - { offsetInCU: 0x594, offset: 0x65F0, size: 0x8, addend: 0x0, symName: __RNvNvXsK_NtCsaYfPqFfImBE_4dprs10parametersNtB7_10ParametersNtNtCsF7gmULBm3O_4pyo310conversion12FromPyObject7extracts9_8INTERNED, symObjAddr: 0x6B88, symBinAddr: 0x14C660, symSize: 0x0 }
  - { offsetInCU: 0x5AE, offset: 0x660A, size: 0x8, addend: 0x0, symName: __RNvNvXsK_NtCsaYfPqFfImBE_4dprs10parametersNtB7_10ParametersNtNtCsF7gmULBm3O_4pyo310conversion12FromPyObject7extracts_8INTERNED, symObjAddr: 0x6BA8, symBinAddr: 0x14C680, symSize: 0x0 }
  - { offsetInCU: 0x5C8, offset: 0x6624, size: 0x8, addend: 0x0, symName: __RNvNvXsK_NtCsaYfPqFfImBE_4dprs10parametersNtB7_10ParametersNtNtCsF7gmULBm3O_4pyo310conversion12FromPyObject7extractsa_8INTERNED, symObjAddr: 0x6BC8, symBinAddr: 0x14C6A0, symSize: 0x0 }
  - { offsetInCU: 0x5E2, offset: 0x663E, size: 0x8, addend: 0x0, symName: __RNvNvXsK_NtCsaYfPqFfImBE_4dprs10parametersNtB7_10ParametersNtNtCsF7gmULBm3O_4pyo310conversion12FromPyObject7extractsb_8INTERNED, symObjAddr: 0x6BE8, symBinAddr: 0x14C6C0, symSize: 0x0 }
  - { offsetInCU: 0x5FC, offset: 0x6658, size: 0x8, addend: 0x0, symName: __RNvNvXsK_NtCsaYfPqFfImBE_4dprs10parametersNtB7_10ParametersNtNtCsF7gmULBm3O_4pyo310conversion12FromPyObject7extractsc_8INTERNED, symObjAddr: 0x6C08, symBinAddr: 0x14C6E0, symSize: 0x0 }
  - { offsetInCU: 0x616, offset: 0x6672, size: 0x8, addend: 0x0, symName: __RNvNvXsK_NtCsaYfPqFfImBE_4dprs10parametersNtB7_10ParametersNtNtCsF7gmULBm3O_4pyo310conversion12FromPyObject7extractsd_8INTERNED, symObjAddr: 0x6C28, symBinAddr: 0x14C700, symSize: 0x0 }
  - { offsetInCU: 0x630, offset: 0x668C, size: 0x8, addend: 0x0, symName: __RNvNvXsK_NtCsaYfPqFfImBE_4dprs10parametersNtB7_10ParametersNtNtCsF7gmULBm3O_4pyo310conversion12FromPyObject7extractse_8INTERNED, symObjAddr: 0x6C48, symBinAddr: 0x14C720, symSize: 0x0 }
  - { offsetInCU: 0x64A, offset: 0x66A6, size: 0x8, addend: 0x0, symName: __RNvNvXsK_NtCsaYfPqFfImBE_4dprs10parametersNtB7_10ParametersNtNtCsF7gmULBm3O_4pyo310conversion12FromPyObject7extractsf_8INTERNED, symObjAddr: 0x6C68, symBinAddr: 0x14C740, symSize: 0x0 }
  - { offsetInCU: 0x664, offset: 0x66C0, size: 0x8, addend: 0x0, symName: __RNvNvXsK_NtCsaYfPqFfImBE_4dprs10parametersNtB7_10ParametersNtNtCsF7gmULBm3O_4pyo310conversion12FromPyObject7extractsg_8INTERNED, symObjAddr: 0x6C88, symBinAddr: 0x14C760, symSize: 0x0 }
  - { offsetInCU: 0x67E, offset: 0x66DA, size: 0x8, addend: 0x0, symName: __RNvNvXsK_NtCsaYfPqFfImBE_4dprs10parametersNtB7_10ParametersNtNtCsF7gmULBm3O_4pyo310conversion12FromPyObject7extractsh_8INTERNED, symObjAddr: 0x6CA8, symBinAddr: 0x14C780, symSize: 0x0 }
  - { offsetInCU: 0x68C, offset: 0x66E8, size: 0x8, addend: 0x0, symName: __RNvXsK_NtCsaYfPqFfImBE_4dprs10parametersNtB5_10ParametersNtNtCsF7gmULBm3O_4pyo310conversion12FromPyObject7extract, symObjAddr: 0x2BAC, symBinAddr: 0x754C, symSize: 0x2460 }
  - { offsetInCU: 0xFA7, offset: 0x7003, size: 0x8, addend: 0x0, symName: __RNvNvXsg_NtCsaYfPqFfImBE_4dprs10parametersNtB7_8TopologyNtNtCsF7gmULBm3O_4pyo310conversion12IntoPyObject13into_pyobject9SINGLETON, symObjAddr: 0x1E7B0, symBinAddr: 0x14D680, symSize: 0x0 }
  - { offsetInCU: 0xFB5, offset: 0x7011, size: 0x8, addend: 0x0, symName: __RNvXsg_NtCsaYfPqFfImBE_4dprs10parametersNtB5_8TopologyNtNtCsF7gmULBm3O_4pyo310conversion12IntoPyObject13into_pyobject, symObjAddr: 0x51B4, symBinAddr: 0x9B54, symSize: 0xD0 }
  - { offsetInCU: 0x112B, offset: 0x7187, size: 0x8, addend: 0x0, symName: __RNvNvXsi_NtCsaYfPqFfImBE_4dprs10parametersNtB7_8TopologyNtNtNtCsF7gmULBm3O_4pyo35impl_7pyclass11PyClassImpl10items_iter15INTRINSIC_ITEMS, symObjAddr: 0x6778, symBinAddr: 0x140558, symSize: 0x0 }
  - { offsetInCU: 0x114B, offset: 0x71A7, size: 0x8, addend: 0x0, symName: __RNvNvXsi_NtCsaYfPqFfImBE_4dprs10parametersNtB7_8TopologyNtNtNtCsF7gmULBm3O_4pyo35impl_7pyclass11PyClassImpl16lazy_type_object11TYPE_OBJECT, symObjAddr: 0x6CC8, symBinAddr: 0x14C7A0, symSize: 0x0 }
  - { offsetInCU: 0x1159, offset: 0x71B5, size: 0x8, addend: 0x0, symName: __RNvXsi_NtCsaYfPqFfImBE_4dprs10parametersNtB5_8TopologyNtNtNtCsF7gmULBm3O_4pyo35impl_7pyclass11PyClassImpl10items_iter, symObjAddr: 0x5360, symBinAddr: 0x9D00, symSize: 0x3C }
  - { offsetInCU: 0x1194, offset: 0x71F0, size: 0x8, addend: 0x0, symName: __RNvXsi_NtCsaYfPqFfImBE_4dprs10parametersNtB5_8TopologyNtNtNtCsF7gmULBm3O_4pyo35impl_7pyclass11PyClassImpl16lazy_type_object, symObjAddr: 0x539C, symBinAddr: 0x9D3C, symSize: 0xC }
  - { offsetInCU: 0x11C9, offset: 0x7225, size: 0x8, addend: 0x0, symName: __RNvNvXss_NtCsaYfPqFfImBE_4dprs10parametersNtB7_17BoundaryConditionNtNtCsF7gmULBm3O_4pyo310conversion12IntoPyObject13into_pyobject9SINGLETON, symObjAddr: 0x1E7E0, symBinAddr: 0x14D6B0, symSize: 0x0 }
  - { offsetInCU: 0x11D7, offset: 0x7233, size: 0x8, addend: 0x0, symName: __RNvXss_NtCsaYfPqFfImBE_4dprs10parametersNtB5_17BoundaryConditionNtNtCsF7gmULBm3O_4pyo310conversion12IntoPyObject13into_pyobject, symObjAddr: 0x55A4, symBinAddr: 0x9F44, symSize: 0x108 }
  - { offsetInCU: 0x1383, offset: 0x73DF, size: 0x8, addend: 0x0, symName: __RNvNvXsu_NtCsaYfPqFfImBE_4dprs10parametersNtB7_17BoundaryConditionNtNtNtCsF7gmULBm3O_4pyo35impl_7pyclass11PyClassImpl10items_iter15INTRINSIC_ITEMS, symObjAddr: 0x68E0, symBinAddr: 0x1406C0, symSize: 0x0 }
  - { offsetInCU: 0x13A3, offset: 0x73FF, size: 0x8, addend: 0x0, symName: __RNvNvXsu_NtCsaYfPqFfImBE_4dprs10parametersNtB7_17BoundaryConditionNtNtNtCsF7gmULBm3O_4pyo35impl_7pyclass11PyClassImpl16lazy_type_object11TYPE_OBJECT, symObjAddr: 0x6D30, symBinAddr: 0x14C808, symSize: 0x0 }
  - { offsetInCU: 0x13B1, offset: 0x740D, size: 0x8, addend: 0x0, symName: __RNvXsu_NtCsaYfPqFfImBE_4dprs10parametersNtB5_17BoundaryConditionNtNtNtCsF7gmULBm3O_4pyo35impl_7pyclass11PyClassImpl10items_iter, symObjAddr: 0x5788, symBinAddr: 0xA128, symSize: 0x3C }
  - { offsetInCU: 0x13EC, offset: 0x7448, size: 0x8, addend: 0x0, symName: __RNvXsu_NtCsaYfPqFfImBE_4dprs10parametersNtB5_17BoundaryConditionNtNtNtCsF7gmULBm3O_4pyo35impl_7pyclass11PyClassImpl16lazy_type_object, symObjAddr: 0x57C4, symBinAddr: 0xA164, symSize: 0xC }
  - { offsetInCU: 0x140F, offset: 0x746B, size: 0x8, addend: 0x0, symName: __RNvXs0_NtCsaYfPqFfImBE_4dprs10parametersNtB5_9DimensionNtNtCs2tD97QJu26F_4core3fmt5Debug3fmtB7_, symObjAddr: 0x25E8, symBinAddr: 0x6F88, symSize: 0xA4 }
  - { offsetInCU: 0x144F, offset: 0x74AB, size: 0x8, addend: 0x0, symName: __RNvXs1_NtCsaYfPqFfImBE_4dprs10parametersNtB5_9DimensionNtNtCs2tD97QJu26F_4core5clone5Clone5cloneB7_, symObjAddr: 0x268C, symBinAddr: 0x702C, symSize: 0x5C }
  - { offsetInCU: 0x1481, offset: 0x74DD, size: 0x8, addend: 0x0, symName: __RNvXs2_NtCsaYfPqFfImBE_4dprs10parametersNtB5_9DimensionNtNtCsF7gmULBm3O_4pyo311type_object10PyTypeInfo15type_object_rawB7_, symObjAddr: 0x26E8, symBinAddr: 0x7088, symSize: 0x40 }
  - { offsetInCU: 0x14BE, offset: 0x751A, size: 0x8, addend: 0x0, symName: __RNvXs5_NtCsaYfPqFfImBE_4dprs10parametersNtB5_9DimensionNtNtCsF7gmULBm3O_4pyo310conversion12FromPyObject7extract, symObjAddr: 0x27F8, symBinAddr: 0x7198, symSize: 0xDC }
  - { offsetInCU: 0x152A, offset: 0x7586, size: 0x8, addend: 0x0, symName: __RNvXsB_NtCsaYfPqFfImBE_4dprs10parametersNtB5_10ProcessingNtNtCs2tD97QJu26F_4core5clone5Clone5cloneB7_, symObjAddr: 0x291C, symBinAddr: 0x72BC, symSize: 0x5C }
  - { offsetInCU: 0x155C, offset: 0x75B8, size: 0x8, addend: 0x0, symName: __RNvXsC_NtCsaYfPqFfImBE_4dprs10parametersNtB5_10ProcessingNtNtCsF7gmULBm3O_4pyo311type_object10PyTypeInfo15type_object_rawB7_, symObjAddr: 0x2978, symBinAddr: 0x7318, symSize: 0x40 }
  - { offsetInCU: 0x1599, offset: 0x75F5, size: 0x8, addend: 0x0, symName: __RNvXsF_NtCsaYfPqFfImBE_4dprs10parametersNtB5_10ProcessingNtNtCsF7gmULBm3O_4pyo310conversion12FromPyObject7extract, symObjAddr: 0x2A88, symBinAddr: 0x7428, symSize: 0xDC }
  - { offsetInCU: 0x1605, offset: 0x7661, size: 0x8, addend: 0x0, symName: __RNvXs_NtCsaYfPqFfImBE_4dprs10parametersNtB4_9DimensionNtNtCs2tD97QJu26F_4core3cmp9PartialEq2eqB6_, symObjAddr: 0x500C, symBinAddr: 0x99AC, symSize: 0x34 }
  - { offsetInCU: 0x167F, offset: 0x76DB, size: 0x8, addend: 0x0, symName: __RNvXsb_NtCsaYfPqFfImBE_4dprs10parametersNtB5_8TopologyNtNtCs2tD97QJu26F_4core3cmp9PartialEq2eqB7_, symObjAddr: 0x5040, symBinAddr: 0x99E0, symSize: 0x34 }
  - { offsetInCU: 0x16F9, offset: 0x7755, size: 0x8, addend: 0x0, symName: __RNvXsc_NtCsaYfPqFfImBE_4dprs10parametersNtB5_8TopologyNtNtCs2tD97QJu26F_4core3fmt5Debug3fmtB7_, symObjAddr: 0x5074, symBinAddr: 0x9A14, symSize: 0xA4 }
  - { offsetInCU: 0x1739, offset: 0x7795, size: 0x8, addend: 0x0, symName: __RNvXsd_NtCsaYfPqFfImBE_4dprs10parametersNtB5_8TopologyNtNtCs2tD97QJu26F_4core5clone5Clone5cloneB7_, symObjAddr: 0x5118, symBinAddr: 0x9AB8, symSize: 0x5C }
  - { offsetInCU: 0x176B, offset: 0x77C7, size: 0x8, addend: 0x0, symName: __RNvXse_NtCsaYfPqFfImBE_4dprs10parametersNtB5_8TopologyNtNtCsF7gmULBm3O_4pyo311type_object10PyTypeInfo15type_object_rawB7_, symObjAddr: 0x5174, symBinAddr: 0x9B14, symSize: 0x40 }
  - { offsetInCU: 0x17A8, offset: 0x7804, size: 0x8, addend: 0x0, symName: __RNvXsh_NtCsaYfPqFfImBE_4dprs10parametersNtB5_8TopologyNtNtCsF7gmULBm3O_4pyo310conversion12FromPyObject7extract, symObjAddr: 0x5284, symBinAddr: 0x9C24, symSize: 0xDC }
  - { offsetInCU: 0x1814, offset: 0x7870, size: 0x8, addend: 0x0, symName: __RNvXsn_NtCsaYfPqFfImBE_4dprs10parametersNtB5_17BoundaryConditionNtNtCs2tD97QJu26F_4core3cmp9PartialEq2eqB7_, symObjAddr: 0x53A8, symBinAddr: 0x9D48, symSize: 0x34 }
  - { offsetInCU: 0x188E, offset: 0x78EA, size: 0x8, addend: 0x0, symName: __RNvXso_NtCsaYfPqFfImBE_4dprs10parametersNtB5_17BoundaryConditionNtNtCs2tD97QJu26F_4core3fmt5Debug3fmtB7_, symObjAddr: 0x53DC, symBinAddr: 0x9D7C, symSize: 0xF4 }
  - { offsetInCU: 0x18CE, offset: 0x792A, size: 0x8, addend: 0x0, symName: __RNvXsp_NtCsaYfPqFfImBE_4dprs10parametersNtB5_17BoundaryConditionNtNtCs2tD97QJu26F_4core5clone5Clone5cloneB7_, symObjAddr: 0x54D0, symBinAddr: 0x9E70, symSize: 0x94 }
  - { offsetInCU: 0x1900, offset: 0x795C, size: 0x8, addend: 0x0, symName: __RNvXsq_NtCsaYfPqFfImBE_4dprs10parametersNtB5_17BoundaryConditionNtNtCsF7gmULBm3O_4pyo311type_object10PyTypeInfo15type_object_rawB7_, symObjAddr: 0x5564, symBinAddr: 0x9F04, symSize: 0x40 }
  - { offsetInCU: 0x193D, offset: 0x7999, size: 0x8, addend: 0x0, symName: __RNvXst_NtCsaYfPqFfImBE_4dprs10parametersNtB5_17BoundaryConditionNtNtCsF7gmULBm3O_4pyo310conversion12FromPyObject7extract, symObjAddr: 0x56AC, symBinAddr: 0xA04C, symSize: 0xDC }
  - { offsetInCU: 0x19A9, offset: 0x7A05, size: 0x8, addend: 0x0, symName: __RNvXsz_NtCsaYfPqFfImBE_4dprs10parametersNtB5_10ProcessingNtNtCs2tD97QJu26F_4core3cmp9PartialEq2eqB7_, symObjAddr: 0x57D0, symBinAddr: 0xA170, symSize: 0x34 }
  - { offsetInCU: 0x5B07, offset: 0xBB63, size: 0x8, addend: 0x0, symName: __RNvMs7_NtCsaYfPqFfImBE_4dprs10parametersNtB5_9Dimension15___pymethod_D1__, symObjAddr: 0x0, symBinAddr: 0x49A0, symSize: 0x20 }
  - { offsetInCU: 0x5B34, offset: 0xBB90, size: 0x8, addend: 0x0, symName: __RNvMs7_NtCsaYfPqFfImBE_4dprs10parametersNtB5_9Dimension15___pymethod_D2__, symObjAddr: 0x20, symBinAddr: 0x49C0, symSize: 0x20 }
  - { offsetInCU: 0x5B61, offset: 0xBBBD, size: 0x8, addend: 0x0, symName: __RNvMs7_NtCsaYfPqFfImBE_4dprs10parametersNtB5_9Dimension15___pymethod_D3__, symObjAddr: 0x40, symBinAddr: 0x49E0, symSize: 0x20 }
  - { offsetInCU: 0x5B8E, offset: 0xBBEA, size: 0x8, addend: 0x0, symName: __RNvMs7_NtCsaYfPqFfImBE_4dprs10parametersNtB5_9Dimension24___pymethod___richcmp____, symObjAddr: 0x60, symBinAddr: 0x4A00, symSize: 0x2E8 }
  - { offsetInCU: 0x5C47, offset: 0xBCA3, size: 0x8, addend: 0x0, symName: __RNvMs7_NtCsaYfPqFfImBE_4dprs10parametersNtB5_9Dimension38___pymethod___default___pyo3__int______, symObjAddr: 0x348, symBinAddr: 0x4CE8, symSize: 0x120 }
  - { offsetInCU: 0x5CEC, offset: 0xBD48, size: 0x8, addend: 0x0, symName: __RNvMs7_NtCsaYfPqFfImBE_4dprs10parametersNtB5_9Dimension39___pymethod___default___pyo3__repr______, symObjAddr: 0x468, symBinAddr: 0x4E08, symSize: 0x130 }
  - { offsetInCU: 0x5D9E, offset: 0xBDFA, size: 0x8, addend: 0x0, symName: __RNvMs9_NtCsaYfPqFfImBE_4dprs10parametersNtB5_9Dimension13___pyo3__int__, symObjAddr: 0x598, symBinAddr: 0x4F38, symSize: 0x5C }
  - { offsetInCU: 0x5DC0, offset: 0xBE1C, size: 0x8, addend: 0x0, symName: __RNvMs9_NtCsaYfPqFfImBE_4dprs10parametersNtB5_9Dimension14___pyo3__repr__, symObjAddr: 0x5F4, symBinAddr: 0x4F94, symSize: 0x88 }
  - { offsetInCU: 0x5DEF, offset: 0xBE4B, size: 0x8, addend: 0x0, symName: __RNvMs9_NtCsaYfPqFfImBE_4dprs10parametersNtB5_9Dimension30___pyo3__generated____richcmp__, symObjAddr: 0x67C, symBinAddr: 0x501C, symSize: 0x2CC }
  - { offsetInCU: 0x5EB4, offset: 0xBF10, size: 0x8, addend: 0x0, symName: __RNvMsH_NtCsaYfPqFfImBE_4dprs10parametersNtB5_10Processing19___pymethod_Serial__, symObjAddr: 0x948, symBinAddr: 0x52E8, symSize: 0x20 }
  - { offsetInCU: 0x5EE1, offset: 0xBF3D, size: 0x8, addend: 0x0, symName: __RNvMsH_NtCsaYfPqFfImBE_4dprs10parametersNtB5_10Processing21___pymethod_Parallel__, symObjAddr: 0x968, symBinAddr: 0x5308, symSize: 0x20 }
  - { offsetInCU: 0x5F0E, offset: 0xBF6A, size: 0x8, addend: 0x0, symName: __RNvMsH_NtCsaYfPqFfImBE_4dprs10parametersNtB5_10Processing24___pymethod___richcmp____, symObjAddr: 0x988, symBinAddr: 0x5328, symSize: 0x2E8 }
  - { offsetInCU: 0x5FC7, offset: 0xC023, size: 0x8, addend: 0x0, symName: __RNvMsH_NtCsaYfPqFfImBE_4dprs10parametersNtB5_10Processing28___pymethod_ParallelChunked__, symObjAddr: 0xC70, symBinAddr: 0x5610, symSize: 0x20 }
  - { offsetInCU: 0x5FF4, offset: 0xC050, size: 0x8, addend: 0x0, symName: __RNvMsH_NtCsaYfPqFfImBE_4dprs10parametersNtB5_10Processing38___pymethod___default___pyo3__int______, symObjAddr: 0xC90, symBinAddr: 0x5630, symSize: 0x120 }
  - { offsetInCU: 0x6099, offset: 0xC0F5, size: 0x8, addend: 0x0, symName: __RNvMsH_NtCsaYfPqFfImBE_4dprs10parametersNtB5_10Processing39___pymethod___default___pyo3__repr______, symObjAddr: 0xDB0, symBinAddr: 0x5750, symSize: 0x130 }
  - { offsetInCU: 0x614B, offset: 0xC1A7, size: 0x8, addend: 0x0, symName: __RNvMsJ_NtCsaYfPqFfImBE_4dprs10parametersNtB5_10Processing13___pyo3__int__, symObjAddr: 0xEE0, symBinAddr: 0x5880, symSize: 0x5C }
  - { offsetInCU: 0x616D, offset: 0xC1C9, size: 0x8, addend: 0x0, symName: __RNvMsJ_NtCsaYfPqFfImBE_4dprs10parametersNtB5_10Processing14___pyo3__repr__, symObjAddr: 0xF3C, symBinAddr: 0x58DC, symSize: 0x88 }
  - { offsetInCU: 0x618F, offset: 0xC1EB, size: 0x8, addend: 0x0, symName: __RNvMsJ_NtCsaYfPqFfImBE_4dprs10parametersNtB5_10Processing30___pyo3__generated____richcmp__, symObjAddr: 0xFC4, symBinAddr: 0x5964, symSize: 0x2CC }
  - { offsetInCU: 0x6254, offset: 0xC2B0, size: 0x8, addend: 0x0, symName: __RNvMsj_NtCsaYfPqFfImBE_4dprs10parametersNtB5_8Topology17___pymethod_Open__, symObjAddr: 0x1290, symBinAddr: 0x5C30, symSize: 0x20 }
  - { offsetInCU: 0x6281, offset: 0xC2DD, size: 0x8, addend: 0x0, symName: __RNvMsj_NtCsaYfPqFfImBE_4dprs10parametersNtB5_8Topology21___pymethod_Periodic__, symObjAddr: 0x12B0, symBinAddr: 0x5C50, symSize: 0x20 }
  - { offsetInCU: 0x62AE, offset: 0xC30A, size: 0x8, addend: 0x0, symName: __RNvMsj_NtCsaYfPqFfImBE_4dprs10parametersNtB5_8Topology24___pymethod_Unspecified__, symObjAddr: 0x12D0, symBinAddr: 0x5C70, symSize: 0x20 }
  - { offsetInCU: 0x62DB, offset: 0xC337, size: 0x8, addend: 0x0, symName: __RNvMsj_NtCsaYfPqFfImBE_4dprs10parametersNtB5_8Topology24___pymethod___richcmp____, symObjAddr: 0x12F0, symBinAddr: 0x5C90, symSize: 0x2E8 }
  - { offsetInCU: 0x6394, offset: 0xC3F0, size: 0x8, addend: 0x0, symName: __RNvMsj_NtCsaYfPqFfImBE_4dprs10parametersNtB5_8Topology38___pymethod___default___pyo3__int______, symObjAddr: 0x15D8, symBinAddr: 0x5F78, symSize: 0x120 }
  - { offsetInCU: 0x6439, offset: 0xC495, size: 0x8, addend: 0x0, symName: __RNvMsj_NtCsaYfPqFfImBE_4dprs10parametersNtB5_8Topology39___pymethod___default___pyo3__repr______, symObjAddr: 0x16F8, symBinAddr: 0x6098, symSize: 0x130 }
  - { offsetInCU: 0x64EB, offset: 0xC547, size: 0x8, addend: 0x0, symName: __RNvMsl_NtCsaYfPqFfImBE_4dprs10parametersNtB5_8Topology13___pyo3__int__, symObjAddr: 0x1828, symBinAddr: 0x61C8, symSize: 0x5C }
  - { offsetInCU: 0x650D, offset: 0xC569, size: 0x8, addend: 0x0, symName: __RNvMsl_NtCsaYfPqFfImBE_4dprs10parametersNtB5_8Topology14___pyo3__repr__, symObjAddr: 0x1884, symBinAddr: 0x6224, symSize: 0x88 }
  - { offsetInCU: 0x652F, offset: 0xC58B, size: 0x8, addend: 0x0, symName: __RNvMsl_NtCsaYfPqFfImBE_4dprs10parametersNtB5_8Topology30___pyo3__generated____richcmp__, symObjAddr: 0x190C, symBinAddr: 0x62AC, symSize: 0x2CC }
  - { offsetInCU: 0x65F4, offset: 0xC650, size: 0x8, addend: 0x0, symName: __RNvMsv_NtCsaYfPqFfImBE_4dprs10parametersNtB5_17BoundaryCondition19___pymethod_Pinned__, symObjAddr: 0x1BD8, symBinAddr: 0x6578, symSize: 0x20 }
  - { offsetInCU: 0x6621, offset: 0xC67D, size: 0x8, addend: 0x0, symName: __RNvMsv_NtCsaYfPqFfImBE_4dprs10parametersNtB5_17BoundaryCondition21___pymethod_Extended__, symObjAddr: 0x1BF8, symBinAddr: 0x6598, symSize: 0x20 }
  - { offsetInCU: 0x664E, offset: 0xC6AA, size: 0x8, addend: 0x0, symName: __RNvMsv_NtCsaYfPqFfImBE_4dprs10parametersNtB5_17BoundaryCondition21___pymethod_Floating__, symObjAddr: 0x1C18, symBinAddr: 0x65B8, symSize: 0x20 }
  - { offsetInCU: 0x667B, offset: 0xC6D7, size: 0x8, addend: 0x0, symName: __RNvMsv_NtCsaYfPqFfImBE_4dprs10parametersNtB5_17BoundaryCondition23___pymethod_Reflecting__, symObjAddr: 0x1C38, symBinAddr: 0x65D8, symSize: 0x20 }
  - { offsetInCU: 0x66A8, offset: 0xC704, size: 0x8, addend: 0x0, symName: __RNvMsv_NtCsaYfPqFfImBE_4dprs10parametersNtB5_17BoundaryCondition24___pymethod_Unspecified__, symObjAddr: 0x1C58, symBinAddr: 0x65F8, symSize: 0x20 }
  - { offsetInCU: 0x66D5, offset: 0xC731, size: 0x8, addend: 0x0, symName: __RNvMsv_NtCsaYfPqFfImBE_4dprs10parametersNtB5_17BoundaryCondition24___pymethod___richcmp____, symObjAddr: 0x1C78, symBinAddr: 0x6618, symSize: 0x2E8 }
  - { offsetInCU: 0x678E, offset: 0xC7EA, size: 0x8, addend: 0x0, symName: __RNvMsv_NtCsaYfPqFfImBE_4dprs10parametersNtB5_17BoundaryCondition38___pymethod___default___pyo3__int______, symObjAddr: 0x1F60, symBinAddr: 0x6900, symSize: 0x120 }
  - { offsetInCU: 0x6833, offset: 0xC88F, size: 0x8, addend: 0x0, symName: __RNvMsv_NtCsaYfPqFfImBE_4dprs10parametersNtB5_17BoundaryCondition39___pymethod___default___pyo3__repr______, symObjAddr: 0x2080, symBinAddr: 0x6A20, symSize: 0x130 }
  - { offsetInCU: 0x68E5, offset: 0xC941, size: 0x8, addend: 0x0, symName: __RNvMsx_NtCsaYfPqFfImBE_4dprs10parametersNtB5_17BoundaryCondition13___pyo3__int__, symObjAddr: 0x21B0, symBinAddr: 0x6B50, symSize: 0x94 }
  - { offsetInCU: 0x6907, offset: 0xC963, size: 0x8, addend: 0x0, symName: __RNvMsx_NtCsaYfPqFfImBE_4dprs10parametersNtB5_17BoundaryCondition14___pyo3__repr__, symObjAddr: 0x2244, symBinAddr: 0x6BE4, symSize: 0xD8 }
  - { offsetInCU: 0x6929, offset: 0xC985, size: 0x8, addend: 0x0, symName: __RNvMsx_NtCsaYfPqFfImBE_4dprs10parametersNtB5_17BoundaryCondition30___pyo3__generated____richcmp__, symObjAddr: 0x231C, symBinAddr: 0x6CBC, symSize: 0x2CC }
  - { offsetInCU: 0x1E, offset: 0xCD12, size: 0x8, addend: 0x0, symName: __RINvNtCsbHbxnPY57xw_3std5panic12catch_unwindINtNtNtCs2tD97QJu26F_4core5panic11unwind_safe16AssertUnwindSafeNCINvMs7_NtCs9PXnr41oVbh_10rayon_core3jobINtB1Q_9JobResultINtNtNtCs9xDkXAC1PNF_5alloc11collections11linked_list10LinkedListINtNtB2K_3vec3VecbEEE4callNCINvNvNtB1S_4join12join_context6call_bB2D_NCINvNvNtNtCslkboY0IC5z6_5rayon4iter8plumbing24bridge_producer_consumer6helperINtNtB4Y_5range12IterProducerjEINtNtB4W_3map11MapConsumerNtNtB4W_6extend15ListVecConsumerNCNvMNtNtCsaYfPqFfImBE_4dprs4life8model_2dINtB7z_14LatticeModel2DNtNtB7B_10life_model9LifeModelE23next_iteration_parallel0EEs_0E0E0EB2D_EB7D_, symObjAddr: 0x0, symBinAddr: 0xA1A4, symSize: 0x104 }
  - { offsetInCU: 0x4BB3, offset: 0x118A7, size: 0x8, addend: 0x0, symName: __RINvNtCsbHbxnPY57xw_3std5panic12catch_unwindINtNtNtCs2tD97QJu26F_4core5panic11unwind_safe16AssertUnwindSafeNCINvMs7_NtCs9PXnr41oVbh_10rayon_core3jobINtB1Q_9JobResultINtNtNtCs9xDkXAC1PNF_5alloc11collections11linked_list10LinkedListINtNtB2K_3vec3VecbEEE4callNCINvNvNtB1S_4join12join_context6call_bB2D_NCINvNvNtNtCslkboY0IC5z6_5rayon4iter8plumbing24bridge_producer_consumer6helperINtNtB4Y_5range12IterProducerjEINtNtB4W_3map11MapConsumerNtNtB4W_6extend15ListVecConsumerNCNvMNtNtCsaYfPqFfImBE_4dprs4life8model_2dINtB7z_14LatticeModel2DNtNtB7B_10life_model9LifeModelE23next_iteration_parallel0EEs_0E0E0EB2D_EB7D_, symObjAddr: 0x0, symBinAddr: 0xA1A4, symSize: 0x104 }
  - { offsetInCU: 0x4D0E, offset: 0x11A02, size: 0x8, addend: 0x0, symName: __RINvNtCsbHbxnPY57xw_3std5panic12catch_unwindINtNtNtCs2tD97QJu26F_4core5panic11unwind_safe16AssertUnwindSafeNCINvMs7_NtCs9PXnr41oVbh_10rayon_core3jobINtB1Q_9JobResultINtNtNtNtCslkboY0IC5z6_5rayon4iter7collect8consumer13CollectResultbEE4callNCINvNvNtB1S_4join12join_context6call_bB2D_NCINvNvNtB2K_8plumbing24bridge_producer_consumer6helperINtNtB2M_5range12IterProducerjEINtNtB2K_3map11MapConsumerINtB2G_15CollectConsumerbENCNvMNtNtCsaYfPqFfImBE_4dprs4life8model_2dINtB6P_14LatticeModel2DNtNtB6R_10life_model9LifeModelE23next_iteration_parallel0EEs_0E0E0EB2D_EB6T_, symObjAddr: 0x104, symBinAddr: 0xA2A8, symSize: 0x104 }
  - { offsetInCU: 0x4E69, offset: 0x11B5D, size: 0x8, addend: 0x0, symName: __RINvNtCsbHbxnPY57xw_3std5panic12catch_unwindINtNtNtCs2tD97QJu26F_4core5panic11unwind_safe16AssertUnwindSafeNCINvMs7_NtCs9PXnr41oVbh_10rayon_core3jobINtB1Q_9JobResultTINtNtNtCs9xDkXAC1PNF_5alloc11collections11linked_list10LinkedListINtNtB2L_3vec3VecbEEB2E_EE4callNCINvMs4_NtB1S_8registryNtB4l_8Registry15in_worker_crossNCINvNtB1S_4join12join_contextNCINvNvNtNtCslkboY0IC5z6_5rayon4iter8plumbing24bridge_producer_consumer6helperINtNtB5L_5range12IterProducerjEINtNtB5J_3map11MapConsumerNtNtB5J_6extend15ListVecConsumerNCNvMNtNtCsaYfPqFfImBE_4dprs4life8model_2dINtB8m_14LatticeModel2DNtNtB8o_10life_model9LifeModelE23next_iteration_parallel0EE0NCB5C_s_0B2E_B2E_E0B2D_E0E0EB2D_EB8q_, symObjAddr: 0x208, symBinAddr: 0xA3AC, symSize: 0x118 }
  - { offsetInCU: 0x4FC5, offset: 0x11CB9, size: 0x8, addend: 0x0, symName: __RINvNtCsbHbxnPY57xw_3std5panic12catch_unwindINtNtNtCs2tD97QJu26F_4core5panic11unwind_safe16AssertUnwindSafeNCINvMs7_NtCs9PXnr41oVbh_10rayon_core3jobINtB1Q_9JobResultTINtNtNtCs9xDkXAC1PNF_5alloc11collections11linked_list10LinkedListINtNtB2L_3vec3VecbEEB2E_EE4callNCNCINvMs4_NtB1S_8registryNtB4n_8Registry14in_worker_coldNCINvNtB1S_4join12join_contextNCINvNvNtNtCslkboY0IC5z6_5rayon4iter8plumbing24bridge_producer_consumer6helperINtNtB5M_5range12IterProducerjEINtNtB5K_3map11MapConsumerNtNtB5K_6extend15ListVecConsumerNCNvMNtNtCsaYfPqFfImBE_4dprs4life8model_2dINtB8n_14LatticeModel2DNtNtB8p_10life_model9LifeModelE23next_iteration_parallel0EE0NCB5D_s_0B2E_B2E_E0B2D_E00E0EB2D_EB8r_, symObjAddr: 0x320, symBinAddr: 0xA4C4, symSize: 0x118 }
  - { offsetInCU: 0x5121, offset: 0x11E15, size: 0x8, addend: 0x0, symName: __RINvNtCsbHbxnPY57xw_3std5panic12catch_unwindINtNtNtCs2tD97QJu26F_4core5panic11unwind_safe16AssertUnwindSafeNCINvMs7_NtCs9PXnr41oVbh_10rayon_core3jobINtB1Q_9JobResultTINtNtNtNtCslkboY0IC5z6_5rayon4iter7collect8consumer13CollectResultbEB2E_EE4callNCINvMs4_NtB1S_8registryNtB44_8Registry15in_worker_crossNCINvNtB1S_4join12join_contextNCINvNvNtB2L_8plumbing24bridge_producer_consumer6helperINtNtB2N_5range12IterProducerjEINtNtB2L_3map11MapConsumerINtB2H_15CollectConsumerbENCNvMNtNtCsaYfPqFfImBE_4dprs4life8model_2dINtB7C_14LatticeModel2DNtNtB7E_10life_model9LifeModelE23next_iteration_parallel0EE0NCB5l_s_0B2E_B2E_E0B2D_E0E0EB2D_EB7G_, symObjAddr: 0x438, symBinAddr: 0xA5DC, symSize: 0x118 }
  - { offsetInCU: 0x527D, offset: 0x11F71, size: 0x8, addend: 0x0, symName: __RINvNtCsbHbxnPY57xw_3std5panic12catch_unwindINtNtNtCs2tD97QJu26F_4core5panic11unwind_safe16AssertUnwindSafeNCINvMs7_NtCs9PXnr41oVbh_10rayon_core3jobINtB1Q_9JobResultTINtNtNtNtCslkboY0IC5z6_5rayon4iter7collect8consumer13CollectResultbEB2E_EE4callNCNCINvMs4_NtB1S_8registryNtB46_8Registry14in_worker_coldNCINvNtB1S_4join12join_contextNCINvNvNtB2L_8plumbing24bridge_producer_consumer6helperINtNtB2N_5range12IterProducerjEINtNtB2L_3map11MapConsumerINtB2H_15CollectConsumerbENCNvMNtNtCsaYfPqFfImBE_4dprs4life8model_2dINtB7D_14LatticeModel2DNtNtB7F_10life_model9LifeModelE23next_iteration_parallel0EE0NCB5m_s_0B2E_B2E_E0B2D_E00E0EB2D_EB7H_, symObjAddr: 0x550, symBinAddr: 0xA6F4, symSize: 0x118 }
  - { offsetInCU: 0x53D9, offset: 0x120CD, size: 0x8, addend: 0x0, symName: __RINvNtCsbHbxnPY57xw_3std5panic12catch_unwindINtNtNtCs2tD97QJu26F_4core5panic11unwind_safe16AssertUnwindSafeNCINvMs7_NtCs9PXnr41oVbh_10rayon_core3jobINtB1Q_9JobResultTjINtNtCs9xDkXAC1PNF_5alloc3vec3VecIB2G_bEEEE4callNCINvMs4_NtB1S_8registryNtB3A_8Registry15in_worker_crossNCINvMNtB1S_11thread_poolNtB4r_10ThreadPool7installNCNvNtCsaYfPqFfImBE_4dprs2dp14run_simulation0B2D_E0B2D_E0E0EB2D_EB5g_, symObjAddr: 0x668, symBinAddr: 0xA80C, symSize: 0x100 }
  - { offsetInCU: 0x5534, offset: 0x12228, size: 0x8, addend: 0x0, symName: __RINvNtCsbHbxnPY57xw_3std5panic12catch_unwindINtNtNtCs2tD97QJu26F_4core5panic11unwind_safe16AssertUnwindSafeNCINvMs7_NtCs9PXnr41oVbh_10rayon_core3jobINtB1Q_9JobResultTjINtNtCs9xDkXAC1PNF_5alloc3vec3VecIB2G_bEEEE4callNCINvMs4_NtB1S_8registryNtB3A_8Registry15in_worker_crossNCINvMNtB1S_11thread_poolNtB4r_10ThreadPool7installNCNvNtCsaYfPqFfImBE_4dprs4life14run_simulation0B2D_E0B2D_E0E0EB2D_EB5g_, symObjAddr: 0x768, symBinAddr: 0xA90C, symSize: 0x100 }
  - { offsetInCU: 0x568F, offset: 0x12383, size: 0x8, addend: 0x0, symName: __RINvNtCsbHbxnPY57xw_3std5panic12catch_unwindINtNtNtCs2tD97QJu26F_4core5panic11unwind_safe16AssertUnwindSafeNCINvMs7_NtCs9PXnr41oVbh_10rayon_core3jobINtB1Q_9JobResultTjINtNtCs9xDkXAC1PNF_5alloc3vec3VecIB2G_bEEEE4callNCNCINvMs4_NtB1S_8registryNtB3C_8Registry14in_worker_coldNCINvMNtB1S_11thread_poolNtB4s_10ThreadPool7installNCNvNtCsaYfPqFfImBE_4dprs2dp14run_simulation0B2D_E0B2D_E00E0EB2D_EB5h_, symObjAddr: 0x868, symBinAddr: 0xAA0C, symSize: 0x100 }
  - { offsetInCU: 0x57EA, offset: 0x124DE, size: 0x8, addend: 0x0, symName: __RINvNtCsbHbxnPY57xw_3std5panic12catch_unwindINtNtNtCs2tD97QJu26F_4core5panic11unwind_safe16AssertUnwindSafeNCINvMs7_NtCs9PXnr41oVbh_10rayon_core3jobINtB1Q_9JobResultTjINtNtCs9xDkXAC1PNF_5alloc3vec3VecIB2G_bEEEE4callNCNCINvMs4_NtB1S_8registryNtB3C_8Registry14in_worker_coldNCINvMNtB1S_11thread_poolNtB4s_10ThreadPool7installNCNvNtCsaYfPqFfImBE_4dprs4life14run_simulation0B2D_E0B2D_E00E0EB2D_EB5h_, symObjAddr: 0x968, symBinAddr: 0xAB0C, symSize: 0x100 }
  - { offsetInCU: 0x5945, offset: 0x12639, size: 0x8, addend: 0x0, symName: __RINvNtCsbHbxnPY57xw_3std5panic12catch_unwindINtNtNtCs2tD97QJu26F_4core5panic11unwind_safe16AssertUnwindSafeNCINvMs7_NtCs9PXnr41oVbh_10rayon_core3jobINtB1Q_9JobResultTuuEE4callNCINvMs4_NtB1S_8registryNtB2W_8Registry15in_worker_crossNCINvNtB1S_4join12join_contextNCINvNvNtNtCslkboY0IC5z6_5rayon4iter8plumbing24bridge_producer_consumer6helperINtNtB4k_9enumerate17EnumerateProducerINtNtNtB4m_5slice6chunks17ChunksMutProducerbEEINtNtB4k_8for_each15ForEachConsumerNCNvMNtNtCsaYfPqFfImBE_4dprs4life8model_2dINtB7r_14LatticeModel2DNtNtB7t_10life_model9LifeModelE31next_iteration_parallel_chunked0EE0NCB4d_s_0uuE0B2D_E0E0EB2D_EB7v_, symObjAddr: 0xA68, symBinAddr: 0xAC0C, symSize: 0xC8 }
  - { offsetInCU: 0x5A57, offset: 0x1274B, size: 0x8, addend: 0x0, symName: __RINvNtCsbHbxnPY57xw_3std5panic12catch_unwindINtNtNtCs2tD97QJu26F_4core5panic11unwind_safe16AssertUnwindSafeNCINvMs7_NtCs9PXnr41oVbh_10rayon_core3jobINtB1Q_9JobResultTuuEE4callNCNCINvMs4_NtB1S_8registryNtB2Y_8Registry14in_worker_coldNCINvNtB1S_4join12join_contextNCINvNvNtNtCslkboY0IC5z6_5rayon4iter8plumbing24bridge_producer_consumer6helperINtNtB4l_9enumerate17EnumerateProducerINtNtNtB4n_5slice6chunks17ChunksMutProducerbEEINtNtB4l_8for_each15ForEachConsumerNCNvMNtNtCsaYfPqFfImBE_4dprs4life8model_2dINtB7s_14LatticeModel2DNtNtB7u_10life_model9LifeModelE31next_iteration_parallel_chunked0EE0NCB4e_s_0uuE0B2D_E00E0EB2D_EB7w_, symObjAddr: 0xB30, symBinAddr: 0xACD4, symSize: 0xC8 }
  - { offsetInCU: 0x5B69, offset: 0x1285D, size: 0x8, addend: 0x0, symName: __RINvNtCsbHbxnPY57xw_3std5panic12catch_unwindINtNtNtCs2tD97QJu26F_4core5panic11unwind_safe16AssertUnwindSafeNCINvMs7_NtCs9PXnr41oVbh_10rayon_core3jobINtB1Q_9JobResultuE4callNCINvNvNtB1S_4join12join_context6call_buNCINvNvNtNtCslkboY0IC5z6_5rayon4iter8plumbing24bridge_producer_consumer6helperINtNtB3x_9enumerate17EnumerateProducerINtNtNtB3z_5slice6chunks17ChunksMutProducerbEEINtNtB3x_8for_each15ForEachConsumerNCNvMNtNtCsaYfPqFfImBE_4dprs4life8model_2dINtB6E_14LatticeModel2DNtNtB6G_10life_model9LifeModelE31next_iteration_parallel_chunked0EEs_0E0E0EuEB6I_, symObjAddr: 0xBF8, symBinAddr: 0xAD9C, symSize: 0xC8 }
  - { offsetInCU: 0x5C7B, offset: 0x1296F, size: 0x8, addend: 0x0, symName: __RINvNtCsbHbxnPY57xw_3std5panic12catch_unwindINtNtNtCs2tD97QJu26F_4core5panic11unwind_safe16AssertUnwindSafeNCINvNvNtCs9PXnr41oVbh_10rayon_core4join12join_context6call_aINtNtNtCs9xDkXAC1PNF_5alloc11collections11linked_list10LinkedListINtNtB2N_3vec3VecbEENCINvNvNtNtCslkboY0IC5z6_5rayon4iter8plumbing24bridge_producer_consumer6helperINtNtB4e_5range12IterProducerjEINtNtB4c_3map11MapConsumerNtNtB4c_6extend15ListVecConsumerNCNvMNtNtCsaYfPqFfImBE_4dprs4life8model_2dINtB6P_14LatticeModel2DNtNtB6R_10life_model9LifeModelE23next_iteration_parallel0EE0E0EB2G_EB6T_, symObjAddr: 0xCC0, symBinAddr: 0xAE64, symSize: 0x104 }
  - { offsetInCU: 0x5DD6, offset: 0x12ACA, size: 0x8, addend: 0x0, symName: __RINvNtCsbHbxnPY57xw_3std5panic12catch_unwindINtNtNtCs2tD97QJu26F_4core5panic11unwind_safe16AssertUnwindSafeNCINvNvNtCs9PXnr41oVbh_10rayon_core4join12join_context6call_aINtNtNtNtCslkboY0IC5z6_5rayon4iter7collect8consumer13CollectResultbENCINvNvNtB2N_8plumbing24bridge_producer_consumer6helperINtNtB2P_5range12IterProducerjEINtNtB2N_3map11MapConsumerINtB2J_15CollectConsumerbENCNvMNtNtCsaYfPqFfImBE_4dprs4life8model_2dINtB65_14LatticeModel2DNtNtB67_10life_model9LifeModelE23next_iteration_parallel0EE0E0EB2G_EB69_, symObjAddr: 0xDC4, symBinAddr: 0xAF68, symSize: 0x104 }
  - { offsetInCU: 0x5F31, offset: 0x12C25, size: 0x8, addend: 0x0, symName: __RINvNtCsbHbxnPY57xw_3std5panic12catch_unwindINtNtNtCs2tD97QJu26F_4core5panic11unwind_safe16AssertUnwindSafeNCINvNvNtCs9PXnr41oVbh_10rayon_core4join12join_context6call_auNCINvNvNtNtCslkboY0IC5z6_5rayon4iter8plumbing24bridge_producer_consumer6helperINtNtB2Q_9enumerate17EnumerateProducerINtNtNtB2S_5slice6chunks17ChunksMutProducerbEEINtNtB2Q_8for_each15ForEachConsumerNCNvMNtNtCsaYfPqFfImBE_4dprs4life8model_2dINtB5X_14LatticeModel2DNtNtB5Z_10life_model9LifeModelE31next_iteration_parallel_chunked0EE0E0EuEB61_, symObjAddr: 0xEC8, symBinAddr: 0xB06C, symSize: 0xC8 }
  - { offsetInCU: 0x6043, offset: 0x12D37, size: 0x8, addend: 0x0, symName: __RINvNtCsbHbxnPY57xw_3std5panic12catch_unwindNCINvNtNtCsF7gmULBm3O_4pyo35impl_10trampoline10trampolineNCNvBL_11module_exec0lE0INtNtCs2tD97QJu26F_4core6result6ResultlNtNtBP_3err5PyErrEECsaYfPqFfImBE_4dprs, symObjAddr: 0xF90, symBinAddr: 0xB134, symSize: 0xE4 }
  - { offsetInCU: 0x6168, offset: 0x12E5C, size: 0x8, addend: 0x0, symName: __RINvNtCsbHbxnPY57xw_3std5panic12catch_unwindNCINvNtNtCsF7gmULBm3O_4pyo35impl_10trampoline10trampolineNCNvNtBL_11richcmpfunc5inner0ONtNtCsqz1hv0UmID_8pyo3_ffi6object8PyObjectE0INtNtCs2tD97QJu26F_4core6result6ResultB24_NtNtBP_3err5PyErrEECsaYfPqFfImBE_4dprs, symObjAddr: 0x1074, symBinAddr: 0xB218, symSize: 0xF8 }
  - { offsetInCU: 0x62C2, offset: 0x12FB6, size: 0x8, addend: 0x0, symName: __RINvNtCsbHbxnPY57xw_3std5panic12catch_unwindNCINvNtNtCsF7gmULBm3O_4pyo35impl_10trampoline10trampolineNCNvNtBL_32fastcall_cfunction_with_keywords5inner0ONtNtCsqz1hv0UmID_8pyo3_ffi6object8PyObjectE0INtNtCs2tD97QJu26F_4core6result6ResultB2p_NtNtBP_3err5PyErrEECsaYfPqFfImBE_4dprs, symObjAddr: 0x116C, symBinAddr: 0xB310, symSize: 0x10C }
  - { offsetInCU: 0x641E, offset: 0x13112, size: 0x8, addend: 0x0, symName: __RINvNtCsbHbxnPY57xw_3std5panic12catch_unwindNCINvNtNtCsF7gmULBm3O_4pyo35impl_10trampoline10trampolineNCNvNtBL_8reprfunc5inner0ONtNtCsqz1hv0UmID_8pyo3_ffi6object8PyObjectE0INtNtCs2tD97QJu26F_4core6result6ResultB20_NtNtBP_3err5PyErrEECsaYfPqFfImBE_4dprs, symObjAddr: 0x1278, symBinAddr: 0xB41C, symSize: 0xE4 }
  - { offsetInCU: 0x6543, offset: 0x13237, size: 0x8, addend: 0x0, symName: __RINvNtCsbHbxnPY57xw_3std5panic12catch_unwindNCINvNtNtCsF7gmULBm3O_4pyo35impl_10trampoline10trampolineNCNvNtBL_9unaryfunc5inner0ONtNtCsqz1hv0UmID_8pyo3_ffi6object8PyObjectE0INtNtCs2tD97QJu26F_4core6result6ResultB21_NtNtBP_3err5PyErrEECsaYfPqFfImBE_4dprs, symObjAddr: 0x135C, symBinAddr: 0xB500, symSize: 0xE4 }
  - { offsetInCU: 0x6668, offset: 0x1335C, size: 0x8, addend: 0x0, symName: __RINvNtCsbHbxnPY57xw_3std5panic12catch_unwindNCINvNtNtCsF7gmULBm3O_4pyo35impl_10trampoline21trampoline_unraisableNCNvBL_7dealloc0E0INtNtCs2tD97QJu26F_4core6result6ResultuNtNtBP_3err5PyErrEECsaYfPqFfImBE_4dprs, symObjAddr: 0x1440, symBinAddr: 0xB5E4, symSize: 0xE4 }
  - { offsetInCU: 0x1E, offset: 0x148FC, size: 0x8, addend: 0x0, symName: __RNvMs9_Cs9PXnr41oVbh_10rayon_coreNtB5_9FnContext3newCsaYfPqFfImBE_4dprs, symObjAddr: 0x0, symBinAddr: 0xB71C, symSize: 0x10 }
  - { offsetInCU: 0x102, offset: 0x149E0, size: 0x8, addend: 0x0, symName: __RNvXsb_Cs9PXnr41oVbh_10rayon_coreNtB5_20ThreadPoolBuildErrorNtNtCs2tD97QJu26F_4core3fmt5Debug3fmtCsaYfPqFfImBE_4dprs, symObjAddr: 0x2C, symBinAddr: 0xB748, symSize: 0x64 }
  - { offsetInCU: 0x5A6, offset: 0x14E84, size: 0x8, addend: 0x0, symName: __RNvMs9_Cs9PXnr41oVbh_10rayon_coreNtB5_9FnContext3newCsaYfPqFfImBE_4dprs, symObjAddr: 0x0, symBinAddr: 0xB71C, symSize: 0x10 }
  - { offsetInCU: 0x5D6, offset: 0x14EB4, size: 0x8, addend: 0x0, symName: __RNvMsa_Cs9PXnr41oVbh_10rayon_coreNtB5_9FnContext8migratedCsaYfPqFfImBE_4dprs, symObjAddr: 0x10, symBinAddr: 0xB72C, symSize: 0x1C }
  - { offsetInCU: 0x1E, offset: 0x14F65, size: 0x8, addend: 0x0, symName: __RNvMs_NtNtCs2tD97QJu26F_4core3mem13manually_dropINtB4_12ManuallyDropINtNtB8_4cell10UnsafeCellNtNtCsaYfPqFfImBE_4dprs10parameters10ProcessingEE4dropB1x_, symObjAddr: 0x0, symBinAddr: 0xB7AC, symSize: 0x10 }
  - { offsetInCU: 0x2C1, offset: 0x15208, size: 0x8, addend: 0x0, symName: __RNvMs_NtNtCs2tD97QJu26F_4core3mem13manually_dropINtB4_12ManuallyDropINtNtB8_4cell10UnsafeCellNtNtCsaYfPqFfImBE_4dprs10parameters10ProcessingEE4dropB1x_, symObjAddr: 0x0, symBinAddr: 0xB7AC, symSize: 0x10 }
  - { offsetInCU: 0x2FA, offset: 0x15241, size: 0x8, addend: 0x0, symName: __RNvMs_NtNtCs2tD97QJu26F_4core3mem13manually_dropINtB4_12ManuallyDropINtNtB8_4cell10UnsafeCellNtNtCsaYfPqFfImBE_4dprs10parameters17BoundaryConditionEE4dropB1x_, symObjAddr: 0x10, symBinAddr: 0xB7BC, symSize: 0x10 }
  - { offsetInCU: 0x333, offset: 0x1527A, size: 0x8, addend: 0x0, symName: __RNvMs_NtNtCs2tD97QJu26F_4core3mem13manually_dropINtB4_12ManuallyDropINtNtB8_4cell10UnsafeCellNtNtCsaYfPqFfImBE_4dprs10parameters8TopologyEE4dropB1x_, symObjAddr: 0x20, symBinAddr: 0xB7CC, symSize: 0x10 }
  - { offsetInCU: 0x36C, offset: 0x152B3, size: 0x8, addend: 0x0, symName: __RNvMs_NtNtCs2tD97QJu26F_4core3mem13manually_dropINtB4_12ManuallyDropINtNtB8_4cell10UnsafeCellNtNtCsaYfPqFfImBE_4dprs10parameters9DimensionEE4dropB1x_, symObjAddr: 0x30, symBinAddr: 0xB7DC, symSize: 0x10 }
  - { offsetInCU: 0x1E, offset: 0x152FD, size: 0x8, addend: 0x0, symName: __RINvXNtNtCsaYfPqFfImBE_4dprs4life10life_modelNtB3_9LifeModelNtNtB5_8model_2d7Model2D14randomize_cellNtNtNtCseSFJDzX8FyV_4rand4rngs6thread9ThreadRngEB7_, symObjAddr: 0x0, symBinAddr: 0xB7EC, symSize: 0x30 }
  - { offsetInCU: 0x3F, offset: 0x1531E, size: 0x8, addend: 0x0, symName: __RINvXNtNtCsaYfPqFfImBE_4dprs4life10life_modelNtB3_9LifeModelNtNtB5_8model_2d7Model2D14randomize_cellNtNtNtCseSFJDzX8FyV_4rand4rngs6thread9ThreadRngEB7_, symObjAddr: 0x0, symBinAddr: 0xB7EC, symSize: 0x30 }
  - { offsetInCU: 0x87, offset: 0x15366, size: 0x8, addend: 0x0, symName: __RNCNvXNtNtCsaYfPqFfImBE_4dprs4life10life_modelNtB4_9LifeModelNtNtB6_8model_2d7Model2D9next_cell0B8_, symObjAddr: 0x30, symBinAddr: 0xB81C, symSize: 0x20 }
  - { offsetInCU: 0xBD, offset: 0x1539C, size: 0x8, addend: 0x0, symName: __RNCNvXNtNtCsaYfPqFfImBE_4dprs4life10life_modelNtB4_9LifeModelNtNtB6_8model_2d7Model2D9next_cells_0B8_, symObjAddr: 0x50, symBinAddr: 0xB83C, symSize: 0x20 }
  - { offsetInCU: 0x1E, offset: 0x156D0, size: 0x8, addend: 0x0, symName: __RNvXNtNtCsaYfPqFfImBE_4dprs4life10life_modelNtB2_9LifeModelNtNtB4_8model_2d7Model2D9next_cell, symObjAddr: 0x0, symBinAddr: 0xB85C, symSize: 0x180 }
  - { offsetInCU: 0x3F, offset: 0x156F1, size: 0x8, addend: 0x0, symName: __RNvXNtNtCsaYfPqFfImBE_4dprs4life10life_modelNtB2_9LifeModelNtNtB4_8model_2d7Model2D9next_cell, symObjAddr: 0x0, symBinAddr: 0xB85C, symSize: 0x180 }
  - { offsetInCU: 0xB0, offset: 0x15762, size: 0x8, addend: 0x0, symName: __RNvXs2_NtNtCsaYfPqFfImBE_4dprs4life10life_modelNtB5_9LifeModelNtNtCs2tD97QJu26F_4core7default7Default7defaultB9_, symObjAddr: 0x180, symBinAddr: 0xB9DC, symSize: 0x4 }
  - { offsetInCU: 0x1E, offset: 0x157E1, size: 0x8, addend: 0x0, symName: __RINvMs5_NtNtCsF7gmULBm3O_4pyo35impl_16extract_argumentNtB6_19FunctionDescription13handle_kwargsNtB6_13NoVarkeywordsINtNtNtNtCs2tD97QJu26F_4core4iter8adapters3zip3ZipNtNtNtBa_5types5tuple21BorrowedTupleIteratorINtNtB1U_6copied6CopiedINtNtNtB1Y_5slice4iter4IterINtNtBa_8instance8BorrowedNtNtB2H_3any5PyAnyEEEEECsaYfPqFfImBE_4dprs, symObjAddr: 0x0, symBinAddr: 0xB9E0, symSize: 0x698 }
  - { offsetInCU: 0x230D, offset: 0x17AD0, size: 0x8, addend: 0x0, symName: __RINvNtNtCsF7gmULBm3O_4pyo35impl_16extract_argument16extract_argumentNtNtCsaYfPqFfImBE_4dprs10parameters10ParametersKb1_EB18_, symObjAddr: 0xCD0, symBinAddr: 0xC6B0, symSize: 0x178 }
  - { offsetInCU: 0x2392, offset: 0x17B55, size: 0x8, addend: 0x0, symName: __RINvNtNtCsF7gmULBm3O_4pyo35impl_16extract_argument16extract_argumentRINtNtB6_8instance5BoundNtNtNtB6_5types3any5PyAnyEKb0_ECsaYfPqFfImBE_4dprs, symObjAddr: 0xE48, symBinAddr: 0xC828, symSize: 0x148 }
  - { offsetInCU: 0x2415, offset: 0x17BD8, size: 0x8, addend: 0x0, symName: __RINvNtNtCsF7gmULBm3O_4pyo35impl_16extract_argument19extract_pyclass_refNtNtCsaYfPqFfImBE_4dprs10parameters10ProcessingEB1b_, symObjAddr: 0xF90, symBinAddr: 0xC970, symSize: 0xE0 }
  - { offsetInCU: 0x2492, offset: 0x17C55, size: 0x8, addend: 0x0, symName: __RINvNtNtCsF7gmULBm3O_4pyo35impl_16extract_argument19extract_pyclass_refNtNtCsaYfPqFfImBE_4dprs10parameters17BoundaryConditionEB1b_, symObjAddr: 0x1070, symBinAddr: 0xCA50, symSize: 0xE0 }
  - { offsetInCU: 0x250F, offset: 0x17CD2, size: 0x8, addend: 0x0, symName: __RINvNtNtCsF7gmULBm3O_4pyo35impl_16extract_argument19extract_pyclass_refNtNtCsaYfPqFfImBE_4dprs10parameters8TopologyEB1b_, symObjAddr: 0x1150, symBinAddr: 0xCB30, symSize: 0xE0 }
  - { offsetInCU: 0x258C, offset: 0x17D4F, size: 0x8, addend: 0x0, symName: __RINvNtNtCsF7gmULBm3O_4pyo35impl_16extract_argument19extract_pyclass_refNtNtCsaYfPqFfImBE_4dprs10parameters9DimensionEB1b_, symObjAddr: 0x1230, symBinAddr: 0xCC10, symSize: 0xE0 }
  - { offsetInCU: 0x2613, offset: 0x17DD6, size: 0x8, addend: 0x0, symName: __RNCINvMs5_NtNtCsF7gmULBm3O_4pyo35impl_16extract_argumentNtB8_19FunctionDescription26extract_arguments_fastcallNtB8_9NoVarargsNtB8_13NoVarkeywordsE0CsaYfPqFfImBE_4dprs, symObjAddr: 0x1310, symBinAddr: 0xCCF0, symSize: 0x24 }
  - { offsetInCU: 0x266B, offset: 0x17E2E, size: 0x8, addend: 0x0, symName: __RNCNvMs5_NtNtCsF7gmULBm3O_4pyo35impl_16extract_argumentNtB7_19FunctionDescription36find_keyword_parameter_in_positional0CsaYfPqFfImBE_4dprs, symObjAddr: 0x1334, symBinAddr: 0xCD14, symSize: 0x48 }
  - { offsetInCU: 0x26CB, offset: 0x17E8E, size: 0x8, addend: 0x0, symName: __RNCNvMs5_NtNtCsF7gmULBm3O_4pyo35impl_16extract_argumentNtB7_19FunctionDescription38find_keyword_parameter_in_keyword_only0CsaYfPqFfImBE_4dprs, symObjAddr: 0x137C, symBinAddr: 0xCD5C, symSize: 0x38 }
  - { offsetInCU: 0x3309, offset: 0x18ACC, size: 0x8, addend: 0x0, symName: __RINvMs5_NtNtCsF7gmULBm3O_4pyo35impl_16extract_argumentNtB6_19FunctionDescription13handle_kwargsNtB6_13NoVarkeywordsINtNtNtNtCs2tD97QJu26F_4core4iter8adapters3zip3ZipNtNtNtBa_5types5tuple21BorrowedTupleIteratorINtNtB1U_6copied6CopiedINtNtNtB1Y_5slice4iter4IterINtNtBa_8instance8BorrowedNtNtB2H_3any5PyAnyEEEEECsaYfPqFfImBE_4dprs, symObjAddr: 0x0, symBinAddr: 0xB9E0, symSize: 0x698 }
  - { offsetInCU: 0x3528, offset: 0x18CEB, size: 0x8, addend: 0x0, symName: __RINvMs5_NtNtCsF7gmULBm3O_4pyo35impl_16extract_argumentNtB6_19FunctionDescription26extract_arguments_fastcallNtB6_9NoVarargsNtB6_13NoVarkeywordsECsaYfPqFfImBE_4dprs, symObjAddr: 0x698, symBinAddr: 0xC078, symSize: 0x638 }
  - { offsetInCU: 0x1E, offset: 0x1926A, size: 0x8, addend: 0x0, symName: __RNvNtCsqz1hv0UmID_8pyo3_ffi10boolobject7Py_TrueCsaYfPqFfImBE_4dprs, symObjAddr: 0x0, symBinAddr: 0xCD94, symSize: 0xC }
  - { offsetInCU: 0xF1, offset: 0x1933D, size: 0x8, addend: 0x0, symName: __RNvNtCsqz1hv0UmID_8pyo3_ffi10boolobject7Py_TrueCsaYfPqFfImBE_4dprs, symObjAddr: 0x0, symBinAddr: 0xCD94, symSize: 0xC }
  - { offsetInCU: 0x10E, offset: 0x1935A, size: 0x8, addend: 0x0, symName: __RNvNtCsqz1hv0UmID_8pyo3_ffi10boolobject8Py_FalseCsaYfPqFfImBE_4dprs, symObjAddr: 0xC, symBinAddr: 0xCDA0, symSize: 0xC }
  - { offsetInCU: 0x1E, offset: 0x1A7E2, size: 0x8, addend: 0x0, symName: __RINvNtCs9PXnr41oVbh_10rayon_core6unwind14halt_unwindingNCINvMs7_NtB4_3jobINtB10_9JobResultINtNtNtCs9xDkXAC1PNF_5alloc11collections11linked_list10LinkedListINtNtB1x_3vec3VecbEEE4callNCINvNvNtB4_4join12join_context6call_bB1q_NCINvNvNtNtCslkboY0IC5z6_5rayon4iter8plumbing24bridge_producer_consumer6helperINtNtB3K_5range12IterProducerjEINtNtB3I_3map11MapConsumerNtNtB3I_6extend15ListVecConsumerNCNvMNtNtCsaYfPqFfImBE_4dprs4life8model_2dINtB6l_14LatticeModel2DNtNtB6n_10life_model9LifeModelE23next_iteration_parallel0EEs_0E0E0B1q_EB6p_, symObjAddr: 0x0, symBinAddr: 0xCDAC, symSize: 0x40 }
  - { offsetInCU: 0x341, offset: 0x1AB05, size: 0x8, addend: 0x0, symName: __RINvNtCs9PXnr41oVbh_10rayon_core6unwind14halt_unwindingNCINvMs7_NtB4_3jobINtB10_9JobResultINtNtNtCs9xDkXAC1PNF_5alloc11collections11linked_list10LinkedListINtNtB1x_3vec3VecbEEE4callNCINvNvNtB4_4join12join_context6call_bB1q_NCINvNvNtNtCslkboY0IC5z6_5rayon4iter8plumbing24bridge_producer_consumer6helperINtNtB3K_5range12IterProducerjEINtNtB3I_3map11MapConsumerNtNtB3I_6extend15ListVecConsumerNCNvMNtNtCsaYfPqFfImBE_4dprs4life8model_2dINtB6l_14LatticeModel2DNtNtB6n_10life_model9LifeModelE23next_iteration_parallel0EEs_0E0E0B1q_EB6p_, symObjAddr: 0x0, symBinAddr: 0xCDAC, symSize: 0x40 }
  - { offsetInCU: 0x380, offset: 0x1AB44, size: 0x8, addend: 0x0, symName: __RINvNtCs9PXnr41oVbh_10rayon_core6unwind14halt_unwindingNCINvMs7_NtB4_3jobINtB10_9JobResultINtNtNtNtCslkboY0IC5z6_5rayon4iter7collect8consumer13CollectResultbEE4callNCINvNvNtB4_4join12join_context6call_bB1q_NCINvNvNtB1x_8plumbing24bridge_producer_consumer6helperINtNtB1z_5range12IterProducerjEINtNtB1x_3map11MapConsumerINtB1t_15CollectConsumerbENCNvMNtNtCsaYfPqFfImBE_4dprs4life8model_2dINtB5B_14LatticeModel2DNtNtB5D_10life_model9LifeModelE23next_iteration_parallel0EEs_0E0E0B1q_EB5F_, symObjAddr: 0x40, symBinAddr: 0xCDEC, symSize: 0x40 }
  - { offsetInCU: 0x3BF, offset: 0x1AB83, size: 0x8, addend: 0x0, symName: __RINvNtCs9PXnr41oVbh_10rayon_core6unwind14halt_unwindingNCINvMs7_NtB4_3jobINtB10_9JobResultTINtNtNtCs9xDkXAC1PNF_5alloc11collections11linked_list10LinkedListINtNtB1y_3vec3VecbEEB1r_EE4callNCINvMs4_NtB4_8registryNtB38_8Registry15in_worker_crossNCINvNtB4_4join12join_contextNCINvNvNtNtCslkboY0IC5z6_5rayon4iter8plumbing24bridge_producer_consumer6helperINtNtB4w_5range12IterProducerjEINtNtB4u_3map11MapConsumerNtNtB4u_6extend15ListVecConsumerNCNvMNtNtCsaYfPqFfImBE_4dprs4life8model_2dINtB77_14LatticeModel2DNtNtB79_10life_model9LifeModelE23next_iteration_parallel0EE0NCB4n_s_0B1r_B1r_E0B1q_E0E0B1q_EB7b_, symObjAddr: 0x80, symBinAddr: 0xCE2C, symSize: 0x40 }
  - { offsetInCU: 0x3FE, offset: 0x1ABC2, size: 0x8, addend: 0x0, symName: __RINvNtCs9PXnr41oVbh_10rayon_core6unwind14halt_unwindingNCINvMs7_NtB4_3jobINtB10_9JobResultTINtNtNtCs9xDkXAC1PNF_5alloc11collections11linked_list10LinkedListINtNtB1y_3vec3VecbEEB1r_EE4callNCNCINvMs4_NtB4_8registryNtB3a_8Registry14in_worker_coldNCINvNtB4_4join12join_contextNCINvNvNtNtCslkboY0IC5z6_5rayon4iter8plumbing24bridge_producer_consumer6helperINtNtB4x_5range12IterProducerjEINtNtB4v_3map11MapConsumerNtNtB4v_6extend15ListVecConsumerNCNvMNtNtCsaYfPqFfImBE_4dprs4life8model_2dINtB78_14LatticeModel2DNtNtB7a_10life_model9LifeModelE23next_iteration_parallel0EE0NCB4o_s_0B1r_B1r_E0B1q_E00E0B1q_EB7c_, symObjAddr: 0xC0, symBinAddr: 0xCE6C, symSize: 0x40 }
  - { offsetInCU: 0x43D, offset: 0x1AC01, size: 0x8, addend: 0x0, symName: __RINvNtCs9PXnr41oVbh_10rayon_core6unwind14halt_unwindingNCINvMs7_NtB4_3jobINtB10_9JobResultTINtNtNtNtCslkboY0IC5z6_5rayon4iter7collect8consumer13CollectResultbEB1r_EE4callNCINvMs4_NtB4_8registryNtB2R_8Registry15in_worker_crossNCINvNtB4_4join12join_contextNCINvNvNtB1y_8plumbing24bridge_producer_consumer6helperINtNtB1A_5range12IterProducerjEINtNtB1y_3map11MapConsumerINtB1u_15CollectConsumerbENCNvMNtNtCsaYfPqFfImBE_4dprs4life8model_2dINtB6n_14LatticeModel2DNtNtB6p_10life_model9LifeModelE23next_iteration_parallel0EE0NCB46_s_0B1r_B1r_E0B1q_E0E0B1q_EB6r_, symObjAddr: 0x100, symBinAddr: 0xCEAC, symSize: 0x40 }
  - { offsetInCU: 0x47C, offset: 0x1AC40, size: 0x8, addend: 0x0, symName: __RINvNtCs9PXnr41oVbh_10rayon_core6unwind14halt_unwindingNCINvMs7_NtB4_3jobINtB10_9JobResultTINtNtNtNtCslkboY0IC5z6_5rayon4iter7collect8consumer13CollectResultbEB1r_EE4callNCNCINvMs4_NtB4_8registryNtB2T_8Registry14in_worker_coldNCINvNtB4_4join12join_contextNCINvNvNtB1y_8plumbing24bridge_producer_consumer6helperINtNtB1A_5range12IterProducerjEINtNtB1y_3map11MapConsumerINtB1u_15CollectConsumerbENCNvMNtNtCsaYfPqFfImBE_4dprs4life8model_2dINtB6o_14LatticeModel2DNtNtB6q_10life_model9LifeModelE23next_iteration_parallel0EE0NCB47_s_0B1r_B1r_E0B1q_E00E0B1q_EB6s_, symObjAddr: 0x140, symBinAddr: 0xCEEC, symSize: 0x40 }
  - { offsetInCU: 0x4BB, offset: 0x1AC7F, size: 0x8, addend: 0x0, symName: __RINvNtCs9PXnr41oVbh_10rayon_core6unwind14halt_unwindingNCINvMs7_NtB4_3jobINtB10_9JobResultTjINtNtCs9xDkXAC1PNF_5alloc3vec3VecIB1t_bEEEE4callNCINvMs4_NtB4_8registryNtB2n_8Registry15in_worker_crossNCINvMNtB4_11thread_poolNtB3d_10ThreadPool7installNCNvNtCsaYfPqFfImBE_4dprs2dp14run_simulation0B1q_E0B1q_E0E0B1q_EB41_, symObjAddr: 0x180, symBinAddr: 0xCF2C, symSize: 0x40 }
  - { offsetInCU: 0x4FA, offset: 0x1ACBE, size: 0x8, addend: 0x0, symName: __RINvNtCs9PXnr41oVbh_10rayon_core6unwind14halt_unwindingNCINvMs7_NtB4_3jobINtB10_9JobResultTjINtNtCs9xDkXAC1PNF_5alloc3vec3VecIB1t_bEEEE4callNCINvMs4_NtB4_8registryNtB2n_8Registry15in_worker_crossNCINvMNtB4_11thread_poolNtB3d_10ThreadPool7installNCNvNtCsaYfPqFfImBE_4dprs4life14run_simulation0B1q_E0B1q_E0E0B1q_EB41_, symObjAddr: 0x1C0, symBinAddr: 0xCF6C, symSize: 0x40 }
  - { offsetInCU: 0x539, offset: 0x1ACFD, size: 0x8, addend: 0x0, symName: __RINvNtCs9PXnr41oVbh_10rayon_core6unwind14halt_unwindingNCINvMs7_NtB4_3jobINtB10_9JobResultTjINtNtCs9xDkXAC1PNF_5alloc3vec3VecIB1t_bEEEE4callNCNCINvMs4_NtB4_8registryNtB2p_8Registry14in_worker_coldNCINvMNtB4_11thread_poolNtB3e_10ThreadPool7installNCNvNtCsaYfPqFfImBE_4dprs2dp14run_simulation0B1q_E0B1q_E00E0B1q_EB42_, symObjAddr: 0x200, symBinAddr: 0xCFAC, symSize: 0x40 }
  - { offsetInCU: 0x578, offset: 0x1AD3C, size: 0x8, addend: 0x0, symName: __RINvNtCs9PXnr41oVbh_10rayon_core6unwind14halt_unwindingNCINvMs7_NtB4_3jobINtB10_9JobResultTjINtNtCs9xDkXAC1PNF_5alloc3vec3VecIB1t_bEEEE4callNCNCINvMs4_NtB4_8registryNtB2p_8Registry14in_worker_coldNCINvMNtB4_11thread_poolNtB3e_10ThreadPool7installNCNvNtCsaYfPqFfImBE_4dprs4life14run_simulation0B1q_E0B1q_E00E0B1q_EB42_, symObjAddr: 0x240, symBinAddr: 0xCFEC, symSize: 0x40 }
  - { offsetInCU: 0x5B7, offset: 0x1AD7B, size: 0x8, addend: 0x0, symName: __RINvNtCs9PXnr41oVbh_10rayon_core6unwind14halt_unwindingNCINvMs7_NtB4_3jobINtB10_9JobResultTuuEE4callNCINvMs4_NtB4_8registryNtB1J_8Registry15in_worker_crossNCINvNtB4_4join12join_contextNCINvNvNtNtCslkboY0IC5z6_5rayon4iter8plumbing24bridge_producer_consumer6helperINtNtB35_9enumerate17EnumerateProducerINtNtNtB37_5slice6chunks17ChunksMutProducerbEEINtNtB35_8for_each15ForEachConsumerNCNvMNtNtCsaYfPqFfImBE_4dprs4life8model_2dINtB6c_14LatticeModel2DNtNtB6e_10life_model9LifeModelE31next_iteration_parallel_chunked0EE0NCB2Y_s_0uuE0B1q_E0E0B1q_EB6g_, symObjAddr: 0x280, symBinAddr: 0xD02C, symSize: 0x38 }
  - { offsetInCU: 0x5F6, offset: 0x1ADBA, size: 0x8, addend: 0x0, symName: __RINvNtCs9PXnr41oVbh_10rayon_core6unwind14halt_unwindingNCINvMs7_NtB4_3jobINtB10_9JobResultTuuEE4callNCNCINvMs4_NtB4_8registryNtB1L_8Registry14in_worker_coldNCINvNtB4_4join12join_contextNCINvNvNtNtCslkboY0IC5z6_5rayon4iter8plumbing24bridge_producer_consumer6helperINtNtB36_9enumerate17EnumerateProducerINtNtNtB38_5slice6chunks17ChunksMutProducerbEEINtNtB36_8for_each15ForEachConsumerNCNvMNtNtCsaYfPqFfImBE_4dprs4life8model_2dINtB6d_14LatticeModel2DNtNtB6f_10life_model9LifeModelE31next_iteration_parallel_chunked0EE0NCB2Z_s_0uuE0B1q_E00E0B1q_EB6h_, symObjAddr: 0x2B8, symBinAddr: 0xD064, symSize: 0x38 }
  - { offsetInCU: 0x635, offset: 0x1ADF9, size: 0x8, addend: 0x0, symName: __RINvNtCs9PXnr41oVbh_10rayon_core6unwind14halt_unwindingNCINvMs7_NtB4_3jobINtB10_9JobResultuE4callNCINvNvNtB4_4join12join_context6call_buNCINvNvNtNtCslkboY0IC5z6_5rayon4iter8plumbing24bridge_producer_consumer6helperINtNtB2j_9enumerate17EnumerateProducerINtNtNtB2l_5slice6chunks17ChunksMutProducerbEEINtNtB2j_8for_each15ForEachConsumerNCNvMNtNtCsaYfPqFfImBE_4dprs4life8model_2dINtB5q_14LatticeModel2DNtNtB5s_10life_model9LifeModelE31next_iteration_parallel_chunked0EEs_0E0E0uEB5u_, symObjAddr: 0x2F0, symBinAddr: 0xD09C, symSize: 0x38 }
  - { offsetInCU: 0x674, offset: 0x1AE38, size: 0x8, addend: 0x0, symName: __RINvNtCs9PXnr41oVbh_10rayon_core6unwind14halt_unwindingNCINvNvNtB4_4join12join_context6call_aINtNtNtCs9xDkXAC1PNF_5alloc11collections11linked_list10LinkedListINtNtB1A_3vec3VecbEENCINvNvNtNtCslkboY0IC5z6_5rayon4iter8plumbing24bridge_producer_consumer6helperINtNtB31_5range12IterProducerjEINtNtB2Z_3map11MapConsumerNtNtB2Z_6extend15ListVecConsumerNCNvMNtNtCsaYfPqFfImBE_4dprs4life8model_2dINtB5C_14LatticeModel2DNtNtB5E_10life_model9LifeModelE23next_iteration_parallel0EE0E0B1t_EB5G_, symObjAddr: 0x328, symBinAddr: 0xD0D4, symSize: 0x40 }
  - { offsetInCU: 0x6B3, offset: 0x1AE77, size: 0x8, addend: 0x0, symName: __RINvNtCs9PXnr41oVbh_10rayon_core6unwind14halt_unwindingNCINvNvNtB4_4join12join_context6call_aINtNtNtNtCslkboY0IC5z6_5rayon4iter7collect8consumer13CollectResultbENCINvNvNtB1A_8plumbing24bridge_producer_consumer6helperINtNtB1C_5range12IterProducerjEINtNtB1A_3map11MapConsumerINtB1w_15CollectConsumerbENCNvMNtNtCsaYfPqFfImBE_4dprs4life8model_2dINtB4S_14LatticeModel2DNtNtB4U_10life_model9LifeModelE23next_iteration_parallel0EE0E0B1t_EB4W_, symObjAddr: 0x368, symBinAddr: 0xD114, symSize: 0x40 }
  - { offsetInCU: 0x6F2, offset: 0x1AEB6, size: 0x8, addend: 0x0, symName: __RINvNtCs9PXnr41oVbh_10rayon_core6unwind14halt_unwindingNCINvNvNtB4_4join12join_context6call_auNCINvNvNtNtCslkboY0IC5z6_5rayon4iter8plumbing24bridge_producer_consumer6helperINtNtB1D_9enumerate17EnumerateProducerINtNtNtB1F_5slice6chunks17ChunksMutProducerbEEINtNtB1D_8for_each15ForEachConsumerNCNvMNtNtCsaYfPqFfImBE_4dprs4life8model_2dINtB4K_14LatticeModel2DNtNtB4M_10life_model9LifeModelE31next_iteration_parallel_chunked0EE0E0uEB4O_, symObjAddr: 0x3A8, symBinAddr: 0xD154, symSize: 0x38 }
  - { offsetInCU: 0x1E, offset: 0x1BEA4, size: 0x8, addend: 0x0, symName: __RNvMNtNtCsF7gmULBm3O_4pyo35types10boolobjectNtB2_6PyBool3newCsaYfPqFfImBE_4dprs, symObjAddr: 0x0, symBinAddr: 0xD18C, symSize: 0x48 }
  - { offsetInCU: 0x1285, offset: 0x1D10B, size: 0x8, addend: 0x0, symName: __RNvXsa_NtNtCsF7gmULBm3O_4pyo35types10boolobjectbNtNtB9_10conversion12IntoPyObject13into_pyobjectCsaYfPqFfImBE_4dprs, symObjAddr: 0x48, symBinAddr: 0xD1D4, symSize: 0x20 }
  - { offsetInCU: 0x186B, offset: 0x1D6F1, size: 0x8, addend: 0x0, symName: __RNvMNtNtCsF7gmULBm3O_4pyo35types10boolobjectNtB2_6PyBool3newCsaYfPqFfImBE_4dprs, symObjAddr: 0x0, symBinAddr: 0xD18C, symSize: 0x48 }
  - { offsetInCU: 0x1E, offset: 0x1D74A, size: 0x8, addend: 0x0, symName: __RINvMNtCs2tD97QJu26F_4core6resultINtB3_6ResultIBw_uNtNtCsF7gmULBm3O_4pyo33err5PyErrEINtNtCs9xDkXAC1PNF_5alloc5boxed3BoxDNtNtB5_3any3AnyNtNtB5_6marker4SendEL_EE14unwrap_or_elseNCINvNtNtBR_5impl_10trampoline21trampoline_unraisableNCNvB2S_7dealloc0Es_0ECsaYfPqFfImBE_4dprs, symObjAddr: 0x0, symBinAddr: 0xD1F4, symSize: 0x70 }
  - { offsetInCU: 0xA9F, offset: 0x1E1CB, size: 0x8, addend: 0x0, symName: __RNvXs1_NtNtCsF7gmULBm3O_4pyo35impl_8callbackINtNtCs2tD97QJu26F_4core6result6ResultINtNtB9_8instance2PyNtNtNtB9_5types3any5PyAnyENtNtB9_3err5PyErrEINtB5_20IntoPyCallbackOutputONtNtCsqz1hv0UmID_8pyo3_ffi6object8PyObjectE7convertCsaYfPqFfImBE_4dprs, symObjAddr: 0x1920, symBinAddr: 0xEB14, symSize: 0xBC }
  - { offsetInCU: 0x3C2E, offset: 0x2135A, size: 0x8, addend: 0x0, symName: __RNcNtINtNtCs2tD97QJu26F_4core6result6ResultRINtNtCsF7gmULBm3O_4pyo38instance2PyNtNtCsaYfPqFfImBE_4dprs10parameters10ProcessingENtNtBL_3err5PyErrE2Ok0B1j_, symObjAddr: 0x1660, symBinAddr: 0xE854, symSize: 0x1C }
  - { offsetInCU: 0x3C6A, offset: 0x21396, size: 0x8, addend: 0x0, symName: __RNcNtINtNtCs2tD97QJu26F_4core6result6ResultRINtNtCsF7gmULBm3O_4pyo38instance2PyNtNtCsaYfPqFfImBE_4dprs10parameters17BoundaryConditionENtNtBL_3err5PyErrE2Ok0B1j_, symObjAddr: 0x167C, symBinAddr: 0xE870, symSize: 0x1C }
  - { offsetInCU: 0x3CA6, offset: 0x213D2, size: 0x8, addend: 0x0, symName: __RNcNtINtNtCs2tD97QJu26F_4core6result6ResultRINtNtCsF7gmULBm3O_4pyo38instance2PyNtNtCsaYfPqFfImBE_4dprs10parameters8TopologyENtNtBL_3err5PyErrE2Ok0B1j_, symObjAddr: 0x1698, symBinAddr: 0xE88C, symSize: 0x1C }
  - { offsetInCU: 0x3CE2, offset: 0x2140E, size: 0x8, addend: 0x0, symName: __RNcNtINtNtCs2tD97QJu26F_4core6result6ResultRINtNtCsF7gmULBm3O_4pyo38instance2PyNtNtCsaYfPqFfImBE_4dprs10parameters9DimensionENtNtBL_3err5PyErrE2Ok0B1j_, symObjAddr: 0x16B4, symBinAddr: 0xE8A8, symSize: 0x1C }
  - { offsetInCU: 0x3D25, offset: 0x21451, size: 0x8, addend: 0x0, symName: __RNvXsp_NtCs2tD97QJu26F_4core6resultINtB5_6ResultINtNtCsF7gmULBm3O_4pyo38instance8BorrowedNtNtCsaYfPqFfImBE_4dprs10parameters10ProcessingENtNtNtBP_3err10cast_error9CastErrorENtNtNtB7_3ops9try_trait3Try6branchB1t_, symObjAddr: 0x19DC, symBinAddr: 0xEBD0, symSize: 0x68 }
  - { offsetInCU: 0x3DA2, offset: 0x214CE, size: 0x8, addend: 0x0, symName: __RNvXsp_NtCs2tD97QJu26F_4core6resultINtB5_6ResultINtNtCsF7gmULBm3O_4pyo38instance8BorrowedNtNtCsaYfPqFfImBE_4dprs10parameters10ProcessingENtNtNtBP_7pyclass5guard17PyClassGuardErrorENtNtNtB7_3ops9try_trait3Try6branchB1t_, symObjAddr: 0x1A44, symBinAddr: 0xEC38, symSize: 0x68 }
  - { offsetInCU: 0x3E1F, offset: 0x2154B, size: 0x8, addend: 0x0, symName: __RNvXsp_NtCs2tD97QJu26F_4core6resultINtB5_6ResultINtNtCsF7gmULBm3O_4pyo38instance8BorrowedNtNtCsaYfPqFfImBE_4dprs10parameters17BoundaryConditionENtNtNtBP_3err10cast_error9CastErrorENtNtNtB7_3ops9try_trait3Try6branchB1t_, symObjAddr: 0x1AAC, symBinAddr: 0xECA0, symSize: 0x68 }
  - { offsetInCU: 0x3E9C, offset: 0x215C8, size: 0x8, addend: 0x0, symName: __RNvXsp_NtCs2tD97QJu26F_4core6resultINtB5_6ResultINtNtCsF7gmULBm3O_4pyo38instance8BorrowedNtNtCsaYfPqFfImBE_4dprs10parameters17BoundaryConditionENtNtNtBP_7pyclass5guard17PyClassGuardErrorENtNtNtB7_3ops9try_trait3Try6branchB1t_, symObjAddr: 0x1B14, symBinAddr: 0xED08, symSize: 0x68 }
  - { offsetInCU: 0x3F19, offset: 0x21645, size: 0x8, addend: 0x0, symName: __RNvXsp_NtCs2tD97QJu26F_4core6resultINtB5_6ResultINtNtCsF7gmULBm3O_4pyo38instance8BorrowedNtNtCsaYfPqFfImBE_4dprs10parameters8TopologyENtNtNtBP_3err10cast_error9CastErrorENtNtNtB7_3ops9try_trait3Try6branchB1t_, symObjAddr: 0x1B7C, symBinAddr: 0xED70, symSize: 0x68 }
  - { offsetInCU: 0x3F96, offset: 0x216C2, size: 0x8, addend: 0x0, symName: __RNvXsp_NtCs2tD97QJu26F_4core6resultINtB5_6ResultINtNtCsF7gmULBm3O_4pyo38instance8BorrowedNtNtCsaYfPqFfImBE_4dprs10parameters8TopologyENtNtNtBP_7pyclass5guard17PyClassGuardErrorENtNtNtB7_3ops9try_trait3Try6branchB1t_, symObjAddr: 0x1BE4, symBinAddr: 0xEDD8, symSize: 0x68 }
  - { offsetInCU: 0x4013, offset: 0x2173F, size: 0x8, addend: 0x0, symName: __RNvXsp_NtCs2tD97QJu26F_4core6resultINtB5_6ResultINtNtCsF7gmULBm3O_4pyo38instance8BorrowedNtNtCsaYfPqFfImBE_4dprs10parameters9DimensionENtNtNtBP_3err10cast_error9CastErrorENtNtNtB7_3ops9try_trait3Try6branchB1t_, symObjAddr: 0x1C4C, symBinAddr: 0xEE40, symSize: 0x68 }
  - { offsetInCU: 0x4090, offset: 0x217BC, size: 0x8, addend: 0x0, symName: __RNvXsp_NtCs2tD97QJu26F_4core6resultINtB5_6ResultINtNtCsF7gmULBm3O_4pyo38instance8BorrowedNtNtCsaYfPqFfImBE_4dprs10parameters9DimensionENtNtNtBP_7pyclass5guard17PyClassGuardErrorENtNtNtB7_3ops9try_trait3Try6branchB1t_, symObjAddr: 0x1CB4, symBinAddr: 0xEEA8, symSize: 0x68 }
  - { offsetInCU: 0x410D, offset: 0x21839, size: 0x8, addend: 0x0, symName: __RNvXsp_NtCs2tD97QJu26F_4core6resultINtB5_6ResultINtNtCsF7gmULBm3O_4pyo38instance8BorrowedNtNtNtBP_5types10typeobject6PyTypeENtNtBP_3err5PyErrENtNtNtB7_3ops9try_trait3Try6branchCsaYfPqFfImBE_4dprs, symObjAddr: 0x1D1C, symBinAddr: 0xEF10, symSize: 0xA0 }
  - { offsetInCU: 0x418A, offset: 0x218B6, size: 0x8, addend: 0x0, symName: __RNvXsp_NtCs2tD97QJu26F_4core6resultINtB5_6ResultINtNtCsF7gmULBm3O_4pyo38instance8BorrowedNtNtNtBP_5types3any5PyAnyENtNtNtBP_3err10cast_error9CastErrorENtNtNtB7_3ops9try_trait3Try6branchCsaYfPqFfImBE_4dprs, symObjAddr: 0x1DBC, symBinAddr: 0xEFB0, symSize: 0x68 }
  - { offsetInCU: 0x4207, offset: 0x21933, size: 0x8, addend: 0x0, symName: __RNvXsp_NtCs2tD97QJu26F_4core6resultINtB5_6ResultINtNtCsF7gmULBm3O_4pyo38instance8BorrowedNtNtNtBP_5types5tuple7PyTupleENtNtNtBP_3err10cast_error9CastErrorENtNtNtB7_3ops9try_trait3Try6branchCsaYfPqFfImBE_4dprs, symObjAddr: 0x1E24, symBinAddr: 0xF018, symSize: 0x68 }
  - { offsetInCU: 0x4284, offset: 0x219B0, size: 0x8, addend: 0x0, symName: __RNvXsp_NtCs2tD97QJu26F_4core6resultINtB5_6ResultINtNtCsF7gmULBm3O_4pyo38instance8BorrowedNtNtNtBP_5types6module8PyModuleENtNtNtBP_3err10cast_error9CastErrorENtNtNtB7_3ops9try_trait3Try6branchCsaYfPqFfImBE_4dprs, symObjAddr: 0x1E8C, symBinAddr: 0xF080, symSize: 0x68 }
  - { offsetInCU: 0x4301, offset: 0x21A2D, size: 0x8, addend: 0x0, symName: __RNvXsp_NtCs2tD97QJu26F_4core6resultINtB5_6ResultINtNtNtCs9xDkXAC1PNF_5alloc3vec13in_place_drop11InPlaceDropINtBP_3VecbEEzENtNtNtB7_3ops9try_trait3Try11from_outputCsaYfPqFfImBE_4dprs, symObjAddr: 0x1EF4, symBinAddr: 0xF0E8, symSize: 0x1C }
  - { offsetInCU: 0x4341, offset: 0x21A6D, size: 0x8, addend: 0x0, symName: __RNvXsp_NtCs2tD97QJu26F_4core6resultINtB5_6ResultINtNtNtCs9xDkXAC1PNF_5alloc3vec13in_place_drop11InPlaceDropINtBP_3VecbEEzENtNtNtB7_3ops9try_trait3Try6branchCsaYfPqFfImBE_4dprs, symObjAddr: 0x1F10, symBinAddr: 0xF104, symSize: 0x3C }
  - { offsetInCU: 0x439F, offset: 0x21ACB, size: 0x8, addend: 0x0, symName: __RNvXsp_NtCs2tD97QJu26F_4core6resultINtB5_6ResultINtNtNtCsF7gmULBm3O_4pyo37pyclass5guard12PyClassGuardNtNtCsaYfPqFfImBE_4dprs10parameters10ProcessingENtBN_17PyClassGuardErrorENtNtNtB7_3ops9try_trait3Try6branchB1F_, symObjAddr: 0x1F4C, symBinAddr: 0xF140, symSize: 0x68 }
  - { offsetInCU: 0x441C, offset: 0x21B48, size: 0x8, addend: 0x0, symName: __RNvXsp_NtCs2tD97QJu26F_4core6resultINtB5_6ResultINtNtNtCsF7gmULBm3O_4pyo37pyclass5guard12PyClassGuardNtNtCsaYfPqFfImBE_4dprs10parameters10ProcessingENtNtBR_6pycell13PyBorrowErrorENtNtNtB7_3ops9try_trait3Try6branchB1F_, symObjAddr: 0x1FB4, symBinAddr: 0xF1A8, symSize: 0x44 }
  - { offsetInCU: 0x4498, offset: 0x21BC4, size: 0x8, addend: 0x0, symName: __RNvXsp_NtCs2tD97QJu26F_4core6resultINtB5_6ResultINtNtNtCsF7gmULBm3O_4pyo37pyclass5guard12PyClassGuardNtNtCsaYfPqFfImBE_4dprs10parameters17BoundaryConditionENtBN_17PyClassGuardErrorENtNtNtB7_3ops9try_trait3Try6branchB1F_, symObjAddr: 0x1FF8, symBinAddr: 0xF1EC, symSize: 0x68 }
  - { offsetInCU: 0x4515, offset: 0x21C41, size: 0x8, addend: 0x0, symName: __RNvXsp_NtCs2tD97QJu26F_4core6resultINtB5_6ResultINtNtNtCsF7gmULBm3O_4pyo37pyclass5guard12PyClassGuardNtNtCsaYfPqFfImBE_4dprs10parameters17BoundaryConditionENtNtBR_6pycell13PyBorrowErrorENtNtNtB7_3ops9try_trait3Try6branchB1F_, symObjAddr: 0x2060, symBinAddr: 0xF254, symSize: 0x44 }
  - { offsetInCU: 0x4591, offset: 0x21CBD, size: 0x8, addend: 0x0, symName: __RNvXsp_NtCs2tD97QJu26F_4core6resultINtB5_6ResultINtNtNtCsF7gmULBm3O_4pyo37pyclass5guard12PyClassGuardNtNtCsaYfPqFfImBE_4dprs10parameters8TopologyENtBN_17PyClassGuardErrorENtNtNtB7_3ops9try_trait3Try6branchB1F_, symObjAddr: 0x20A4, symBinAddr: 0xF298, symSize: 0x68 }
  - { offsetInCU: 0x460E, offset: 0x21D3A, size: 0x8, addend: 0x0, symName: __RNvXsp_NtCs2tD97QJu26F_4core6resultINtB5_6ResultINtNtNtCsF7gmULBm3O_4pyo37pyclass5guard12PyClassGuardNtNtCsaYfPqFfImBE_4dprs10parameters8TopologyENtNtBR_6pycell13PyBorrowErrorENtNtNtB7_3ops9try_trait3Try6branchB1F_, symObjAddr: 0x210C, symBinAddr: 0xF300, symSize: 0x44 }
  - { offsetInCU: 0x468A, offset: 0x21DB6, size: 0x8, addend: 0x0, symName: __RNvXsp_NtCs2tD97QJu26F_4core6resultINtB5_6ResultINtNtNtCsF7gmULBm3O_4pyo37pyclass5guard12PyClassGuardNtNtCsaYfPqFfImBE_4dprs10parameters9DimensionENtBN_17PyClassGuardErrorENtNtNtB7_3ops9try_trait3Try6branchB1F_, symObjAddr: 0x2150, symBinAddr: 0xF344, symSize: 0x68 }
  - { offsetInCU: 0x4707, offset: 0x21E33, size: 0x8, addend: 0x0, symName: __RNvXsp_NtCs2tD97QJu26F_4core6resultINtB5_6ResultINtNtNtCsF7gmULBm3O_4pyo37pyclass5guard12PyClassGuardNtNtCsaYfPqFfImBE_4dprs10parameters9DimensionENtNtBR_6pycell13PyBorrowErrorENtNtNtB7_3ops9try_trait3Try6branchB1F_, symObjAddr: 0x21B8, symBinAddr: 0xF3AC, symSize: 0x44 }
  - { offsetInCU: 0x4783, offset: 0x21EAF, size: 0x8, addend: 0x0, symName: __RNvXsp_NtCs2tD97QJu26F_4core6resultINtB5_6ResultNtNtCsaYfPqFfImBE_4dprs10parameters10ParametersNtNtCsF7gmULBm3O_4pyo33err5PyErrENtNtNtB7_3ops9try_trait3Try6branchBO_, symObjAddr: 0x21FC, symBinAddr: 0xF3F0, symSize: 0xC0 }
  - { offsetInCU: 0x4801, offset: 0x21F2D, size: 0x8, addend: 0x0, symName: __RNvXsp_NtCs2tD97QJu26F_4core6resultINtB5_6ResultNtNtCsaYfPqFfImBE_4dprs10parameters10ProcessingNtNtCsF7gmULBm3O_4pyo33err5PyErrENtNtNtB7_3ops9try_trait3Try6branchBO_, symObjAddr: 0x22BC, symBinAddr: 0xF4B0, symSize: 0xA0 }
  - { offsetInCU: 0x487E, offset: 0x21FAA, size: 0x8, addend: 0x0, symName: __RNvXsp_NtCs2tD97QJu26F_4core6resultINtB5_6ResultNtNtCsaYfPqFfImBE_4dprs10parameters17BoundaryConditionNtNtCsF7gmULBm3O_4pyo33err5PyErrENtNtNtB7_3ops9try_trait3Try6branchBO_, symObjAddr: 0x235C, symBinAddr: 0xF550, symSize: 0xA0 }
  - { offsetInCU: 0x48FB, offset: 0x22027, size: 0x8, addend: 0x0, symName: __RNvXsp_NtCs2tD97QJu26F_4core6resultINtB5_6ResultNtNtCsaYfPqFfImBE_4dprs10parameters8TopologyNtNtCsF7gmULBm3O_4pyo33err5PyErrENtNtNtB7_3ops9try_trait3Try6branchBO_, symObjAddr: 0x23FC, symBinAddr: 0xF5F0, symSize: 0xA0 }
  - { offsetInCU: 0x4978, offset: 0x220A4, size: 0x8, addend: 0x0, symName: __RNvXsp_NtCs2tD97QJu26F_4core6resultINtB5_6ResultNtNtCsaYfPqFfImBE_4dprs10parameters9DimensionNtNtCsF7gmULBm3O_4pyo33err5PyErrENtNtNtB7_3ops9try_trait3Try6branchBO_, symObjAddr: 0x249C, symBinAddr: 0xF690, symSize: 0xA0 }
  - { offsetInCU: 0x49F5, offset: 0x22121, size: 0x8, addend: 0x0, symName: __RNvXsp_NtCs2tD97QJu26F_4core6resultINtB5_6ResultONtNtCsqz1hv0UmID_8pyo3_ffi6object8PyObjectNtNtCsF7gmULBm3O_4pyo33err5PyErrENtNtNtB7_3ops9try_trait3Try6branchCsaYfPqFfImBE_4dprs, symObjAddr: 0x253C, symBinAddr: 0xF730, symSize: 0xA0 }
  - { offsetInCU: 0x4A72, offset: 0x2219E, size: 0x8, addend: 0x0, symName: __RNvXsp_NtCs2tD97QJu26F_4core6resultINtB5_6ResultRNtNtCsaYfPqFfImBE_4dprs10parameters10ProcessingNtNtCsF7gmULBm3O_4pyo33err5PyErrENtNtNtB7_3ops9try_trait3Try6branchBP_, symObjAddr: 0x25DC, symBinAddr: 0xF7D0, symSize: 0xA0 }
  - { offsetInCU: 0x4AEF, offset: 0x2221B, size: 0x8, addend: 0x0, symName: __RNvXsp_NtCs2tD97QJu26F_4core6resultINtB5_6ResultRNtNtCsaYfPqFfImBE_4dprs10parameters17BoundaryConditionNtNtCsF7gmULBm3O_4pyo33err5PyErrENtNtNtB7_3ops9try_trait3Try6branchBP_, symObjAddr: 0x267C, symBinAddr: 0xF870, symSize: 0xA0 }
  - { offsetInCU: 0x4B6C, offset: 0x22298, size: 0x8, addend: 0x0, symName: __RNvXsp_NtCs2tD97QJu26F_4core6resultINtB5_6ResultRNtNtCsaYfPqFfImBE_4dprs10parameters8TopologyNtNtCsF7gmULBm3O_4pyo33err5PyErrENtNtNtB7_3ops9try_trait3Try6branchBP_, symObjAddr: 0x271C, symBinAddr: 0xF910, symSize: 0xA0 }
  - { offsetInCU: 0x4BE9, offset: 0x22315, size: 0x8, addend: 0x0, symName: __RNvXsp_NtCs2tD97QJu26F_4core6resultINtB5_6ResultRNtNtCsaYfPqFfImBE_4dprs10parameters9DimensionNtNtCsF7gmULBm3O_4pyo33err5PyErrENtNtNtB7_3ops9try_trait3Try6branchBP_, symObjAddr: 0x27BC, symBinAddr: 0xF9B0, symSize: 0xA0 }
  - { offsetInCU: 0x4C66, offset: 0x22392, size: 0x8, addend: 0x0, symName: __RNvXsp_NtCs2tD97QJu26F_4core6resultINtB5_6ResultTNtNtCsaYfPqFfImBE_4dprs10parameters17BoundaryConditionBL_ENtNtCsF7gmULBm3O_4pyo33err5PyErrENtNtNtB7_3ops9try_trait3Try6branchBP_, symObjAddr: 0x285C, symBinAddr: 0xFA50, symSize: 0xAC }
  - { offsetInCU: 0x4CE3, offset: 0x2240F, size: 0x8, addend: 0x0, symName: __RNvXsp_NtCs2tD97QJu26F_4core6resultINtB5_6ResultTbbENtNtCsF7gmULBm3O_4pyo33err5PyErrENtNtNtB7_3ops9try_trait3Try6branchCsaYfPqFfImBE_4dprs, symObjAddr: 0x2908, symBinAddr: 0xFAFC, symSize: 0xC0 }
  - { offsetInCU: 0x4D60, offset: 0x2248C, size: 0x8, addend: 0x0, symName: __RNvXsp_NtCs2tD97QJu26F_4core6resultINtB5_6ResultTuuENtNtCsF7gmULBm3O_4pyo33err5PyErrENtNtNtB7_3ops9try_trait3Try6branchCsaYfPqFfImBE_4dprs, symObjAddr: 0x29C8, symBinAddr: 0xFBBC, symSize: 0x90 }
  - { offsetInCU: 0x4DDD, offset: 0x22509, size: 0x8, addend: 0x0, symName: __RNvXsp_NtCs2tD97QJu26F_4core6resultINtB5_6ResultiNtNtCsF7gmULBm3O_4pyo33err5PyErrENtNtNtB7_3ops9try_trait3Try11from_outputCsaYfPqFfImBE_4dprs, symObjAddr: 0x2A58, symBinAddr: 0xFC4C, symSize: 0x18 }
  - { offsetInCU: 0x4E23, offset: 0x2254F, size: 0x8, addend: 0x0, symName: __RNvXsq_NtCs2tD97QJu26F_4core6resultINtB5_6ResultINtNtCsF7gmULBm3O_4pyo38instance5BoundNtNtCsaYfPqFfImBE_4dprs10parameters10ProcessingENtNtBP_3err5PyErrEINtNtNtB7_3ops9try_trait12FromResidualIBy_NtNtB7_7convert10InfallibleB28_EE13from_residualB1q_, symObjAddr: 0x2A70, symBinAddr: 0xFC64, symSize: 0x6C }
  - { offsetInCU: 0x4EA9, offset: 0x225D5, size: 0x8, addend: 0x0, symName: __RNvXsq_NtCs2tD97QJu26F_4core6resultINtB5_6ResultINtNtCsF7gmULBm3O_4pyo38instance5BoundNtNtCsaYfPqFfImBE_4dprs10parameters17BoundaryConditionENtNtBP_3err5PyErrEINtNtNtB7_3ops9try_trait12FromResidualIBy_NtNtB7_7convert10InfallibleB2f_EE13from_residualB1q_, symObjAddr: 0x2ADC, symBinAddr: 0xFCD0, symSize: 0x6C }
  - { offsetInCU: 0x4F2F, offset: 0x2265B, size: 0x8, addend: 0x0, symName: __RNvXsq_NtCs2tD97QJu26F_4core6resultINtB5_6ResultINtNtCsF7gmULBm3O_4pyo38instance5BoundNtNtCsaYfPqFfImBE_4dprs10parameters8TopologyENtNtBP_3err5PyErrEINtNtNtB7_3ops9try_trait12FromResidualIBy_NtNtB7_7convert10InfallibleB25_EE13from_residualB1q_, symObjAddr: 0x2B48, symBinAddr: 0xFD3C, symSize: 0x6C }
  - { offsetInCU: 0x4FB5, offset: 0x226E1, size: 0x8, addend: 0x0, symName: __RNvXsq_NtCs2tD97QJu26F_4core6resultINtB5_6ResultINtNtCsF7gmULBm3O_4pyo38instance5BoundNtNtCsaYfPqFfImBE_4dprs10parameters9DimensionENtNtBP_3err5PyErrEINtNtNtB7_3ops9try_trait12FromResidualIBy_NtNtB7_7convert10InfallibleB26_EE13from_residualB1q_, symObjAddr: 0x2BB4, symBinAddr: 0xFDA8, symSize: 0x6C }
  - { offsetInCU: 0x503B, offset: 0x22767, size: 0x8, addend: 0x0, symName: __RNvXsq_NtCs2tD97QJu26F_4core6resultINtB5_6ResultINtNtNtCsF7gmULBm3O_4pyo37pyclass5guard12PyClassGuardNtNtCsaYfPqFfImBE_4dprs10parameters10ProcessingENtBN_17PyClassGuardErrorEINtNtNtB7_3ops9try_trait12FromResidualIBy_NtNtB7_7convert10InfallibleB2n_EE13from_residualB1F_, symObjAddr: 0x2C28, symBinAddr: 0xFE14, symSize: 0x50 }
  - { offsetInCU: 0x50A2, offset: 0x227CE, size: 0x8, addend: 0x0, symName: __RNvXsq_NtCs2tD97QJu26F_4core6resultINtB5_6ResultINtNtNtCsF7gmULBm3O_4pyo37pyclass5guard12PyClassGuardNtNtCsaYfPqFfImBE_4dprs10parameters17BoundaryConditionENtBN_17PyClassGuardErrorEINtNtNtB7_3ops9try_trait12FromResidualIBy_NtNtB7_7convert10InfallibleB2u_EE13from_residualB1F_, symObjAddr: 0x2C78, symBinAddr: 0xFE64, symSize: 0x50 }
  - { offsetInCU: 0x5109, offset: 0x22835, size: 0x8, addend: 0x0, symName: __RNvXsq_NtCs2tD97QJu26F_4core6resultINtB5_6ResultINtNtNtCsF7gmULBm3O_4pyo37pyclass5guard12PyClassGuardNtNtCsaYfPqFfImBE_4dprs10parameters8TopologyENtBN_17PyClassGuardErrorEINtNtNtB7_3ops9try_trait12FromResidualIBy_NtNtB7_7convert10InfallibleB2k_EE13from_residualB1F_, symObjAddr: 0x2CC8, symBinAddr: 0xFEB4, symSize: 0x50 }
  - { offsetInCU: 0x5170, offset: 0x2289C, size: 0x8, addend: 0x0, symName: __RNvXsq_NtCs2tD97QJu26F_4core6resultINtB5_6ResultINtNtNtCsF7gmULBm3O_4pyo37pyclass5guard12PyClassGuardNtNtCsaYfPqFfImBE_4dprs10parameters9DimensionENtBN_17PyClassGuardErrorEINtNtNtB7_3ops9try_trait12FromResidualIBy_NtNtB7_7convert10InfallibleB2l_EE13from_residualB1F_, symObjAddr: 0x2D18, symBinAddr: 0xFF04, symSize: 0x50 }
  - { offsetInCU: 0x51D7, offset: 0x22903, size: 0x8, addend: 0x0, symName: __RNvXsq_NtCs2tD97QJu26F_4core6resultINtB5_6ResultNtNtCsaYfPqFfImBE_4dprs10parameters10ParametersNtNtCsF7gmULBm3O_4pyo33err5PyErrEINtNtNtB7_3ops9try_trait12FromResidualIBy_NtNtB7_7convert10InfallibleB1v_EE13from_residualBO_, symObjAddr: 0x2D68, symBinAddr: 0xFF54, symSize: 0x68 }
  - { offsetInCU: 0x525D, offset: 0x22989, size: 0x8, addend: 0x0, symName: __RNvXsq_NtCs2tD97QJu26F_4core6resultINtB5_6ResultNtNtCsaYfPqFfImBE_4dprs10parameters10ProcessingNtNtNtCsF7gmULBm3O_4pyo37pyclass5guard17PyClassGuardErrorEINtNtNtB7_3ops9try_trait12FromResidualIBy_NtNtB7_7convert10InfallibleB1v_EE13from_residualBO_, symObjAddr: 0x2DD0, symBinAddr: 0xFFBC, symSize: 0x50 }
  - { offsetInCU: 0x52C4, offset: 0x229F0, size: 0x8, addend: 0x0, symName: __RNvXsq_NtCs2tD97QJu26F_4core6resultINtB5_6ResultNtNtCsaYfPqFfImBE_4dprs10parameters17BoundaryConditionNtNtNtCsF7gmULBm3O_4pyo37pyclass5guard17PyClassGuardErrorEINtNtNtB7_3ops9try_trait12FromResidualIBy_NtNtB7_7convert10InfallibleB1C_EE13from_residualBO_, symObjAddr: 0x2E20, symBinAddr: 0x1000C, symSize: 0x50 }
  - { offsetInCU: 0x532B, offset: 0x22A57, size: 0x8, addend: 0x0, symName: __RNvXsq_NtCs2tD97QJu26F_4core6resultINtB5_6ResultNtNtCsaYfPqFfImBE_4dprs10parameters8TopologyNtNtNtCsF7gmULBm3O_4pyo37pyclass5guard17PyClassGuardErrorEINtNtNtB7_3ops9try_trait12FromResidualIBy_NtNtB7_7convert10InfallibleB1s_EE13from_residualBO_, symObjAddr: 0x2E70, symBinAddr: 0x1005C, symSize: 0x50 }
  - { offsetInCU: 0x5392, offset: 0x22ABE, size: 0x8, addend: 0x0, symName: __RNvXsq_NtCs2tD97QJu26F_4core6resultINtB5_6ResultNtNtCsaYfPqFfImBE_4dprs10parameters9DimensionNtNtNtCsF7gmULBm3O_4pyo37pyclass5guard17PyClassGuardErrorEINtNtNtB7_3ops9try_trait12FromResidualIBy_NtNtB7_7convert10InfallibleB1t_EE13from_residualBO_, symObjAddr: 0x2EC0, symBinAddr: 0x100AC, symSize: 0x50 }
  - { offsetInCU: 0x53F9, offset: 0x22B25, size: 0x8, addend: 0x0, symName: __RNvXsq_NtCs2tD97QJu26F_4core6resultINtB5_6ResultRINtNtCsF7gmULBm3O_4pyo38instance2PyNtNtCsaYfPqFfImBE_4dprs10parameters10ProcessingENtNtBQ_3err5PyErrEINtNtNtB7_3ops9try_trait12FromResidualIBy_NtNtB7_7convert10InfallibleB26_EE13from_residualB1o_, symObjAddr: 0x2F10, symBinAddr: 0x100FC, symSize: 0x6C }
  - { offsetInCU: 0x547F, offset: 0x22BAB, size: 0x8, addend: 0x0, symName: __RNvXsq_NtCs2tD97QJu26F_4core6resultINtB5_6ResultRINtNtCsF7gmULBm3O_4pyo38instance2PyNtNtCsaYfPqFfImBE_4dprs10parameters17BoundaryConditionENtNtBQ_3err5PyErrEINtNtNtB7_3ops9try_trait12FromResidualIBy_NtNtB7_7convert10InfallibleB2d_EE13from_residualB1o_, symObjAddr: 0x2F7C, symBinAddr: 0x10168, symSize: 0x6C }
  - { offsetInCU: 0x5505, offset: 0x22C31, size: 0x8, addend: 0x0, symName: __RNvXsq_NtCs2tD97QJu26F_4core6resultINtB5_6ResultRINtNtCsF7gmULBm3O_4pyo38instance2PyNtNtCsaYfPqFfImBE_4dprs10parameters8TopologyENtNtBQ_3err5PyErrEINtNtNtB7_3ops9try_trait12FromResidualIBy_NtNtB7_7convert10InfallibleB23_EE13from_residualB1o_, symObjAddr: 0x2FE8, symBinAddr: 0x101D4, symSize: 0x6C }
  - { offsetInCU: 0x558B, offset: 0x22CB7, size: 0x8, addend: 0x0, symName: __RNvXsq_NtCs2tD97QJu26F_4core6resultINtB5_6ResultRINtNtCsF7gmULBm3O_4pyo38instance2PyNtNtCsaYfPqFfImBE_4dprs10parameters9DimensionENtNtBQ_3err5PyErrEINtNtNtB7_3ops9try_trait12FromResidualIBy_NtNtB7_7convert10InfallibleB24_EE13from_residualB1o_, symObjAddr: 0x3054, symBinAddr: 0x10240, symSize: 0x6C }
  - { offsetInCU: 0x5611, offset: 0x22D3D, size: 0x8, addend: 0x0, symName: __RNvXsq_NtCs2tD97QJu26F_4core6resultINtB5_6ResultRINtNtCsF7gmULBm3O_4pyo38instance5BoundNtNtNtBQ_5types3any5PyAnyENtNtNtBQ_3err10cast_error9CastErrorEINtNtNtB7_3ops9try_trait12FromResidualIBy_NtNtB7_7convert10InfallibleB1N_EE13from_residualCsaYfPqFfImBE_4dprs, symObjAddr: 0x30C0, symBinAddr: 0x102AC, symSize: 0x44 }
  - { offsetInCU: 0x5678, offset: 0x22DA4, size: 0x8, addend: 0x0, symName: __RNvXsq_NtCs2tD97QJu26F_4core6resultINtB5_6ResultRNtNtCsaYfPqFfImBE_4dprs10parameters10ProcessingNtNtCsF7gmULBm3O_4pyo33err5PyErrEINtNtNtB7_3ops9try_trait12FromResidualIBy_NtNtB7_7convert10InfallibleNtNtB1A_6pycell13PyBorrowErrorEE13from_residualBP_, symObjAddr: 0x3104, symBinAddr: 0x102F0, symSize: 0x4C }
  - { offsetInCU: 0x56DF, offset: 0x22E0B, size: 0x8, addend: 0x0, symName: __RNvXsq_NtCs2tD97QJu26F_4core6resultINtB5_6ResultRNtNtCsaYfPqFfImBE_4dprs10parameters10ProcessingNtNtCsF7gmULBm3O_4pyo33err5PyErrEINtNtNtB7_3ops9try_trait12FromResidualIBy_NtNtB7_7convert10InfallibleNtNtB1y_10cast_error9CastErrorEE13from_residualBP_, symObjAddr: 0x3150, symBinAddr: 0x1033C, symSize: 0x6C }
  - { offsetInCU: 0x5746, offset: 0x22E72, size: 0x8, addend: 0x0, symName: __RNvXsq_NtCs2tD97QJu26F_4core6resultINtB5_6ResultRNtNtCsaYfPqFfImBE_4dprs10parameters17BoundaryConditionNtNtCsF7gmULBm3O_4pyo33err5PyErrEINtNtNtB7_3ops9try_trait12FromResidualIBy_NtNtB7_7convert10InfallibleNtNtB1F_10cast_error9CastErrorEE13from_residualBP_, symObjAddr: 0x31BC, symBinAddr: 0x103A8, symSize: 0x6C }
  - { offsetInCU: 0x57AD, offset: 0x22ED9, size: 0x8, addend: 0x0, symName: __RNvXsq_NtCs2tD97QJu26F_4core6resultINtB5_6ResultRNtNtCsaYfPqFfImBE_4dprs10parameters17BoundaryConditionNtNtCsF7gmULBm3O_4pyo33err5PyErrEINtNtNtB7_3ops9try_trait12FromResidualIBy_NtNtB7_7convert10InfallibleNtNtB1H_6pycell13PyBorrowErrorEE13from_residualBP_, symObjAddr: 0x3228, symBinAddr: 0x10414, symSize: 0x4C }
  - { offsetInCU: 0x5814, offset: 0x22F40, size: 0x8, addend: 0x0, symName: __RNvXsq_NtCs2tD97QJu26F_4core6resultINtB5_6ResultRNtNtCsaYfPqFfImBE_4dprs10parameters8TopologyNtNtCsF7gmULBm3O_4pyo33err5PyErrEINtNtNtB7_3ops9try_trait12FromResidualIBy_NtNtB7_7convert10InfallibleNtNtB1v_10cast_error9CastErrorEE13from_residualBP_, symObjAddr: 0x3274, symBinAddr: 0x10460, symSize: 0x6C }
  - { offsetInCU: 0x587B, offset: 0x22FA7, size: 0x8, addend: 0x0, symName: __RNvXsq_NtCs2tD97QJu26F_4core6resultINtB5_6ResultRNtNtCsaYfPqFfImBE_4dprs10parameters8TopologyNtNtCsF7gmULBm3O_4pyo33err5PyErrEINtNtNtB7_3ops9try_trait12FromResidualIBy_NtNtB7_7convert10InfallibleNtNtB1x_6pycell13PyBorrowErrorEE13from_residualBP_, symObjAddr: 0x32E0, symBinAddr: 0x104CC, symSize: 0x4C }
  - { offsetInCU: 0x58E2, offset: 0x2300E, size: 0x8, addend: 0x0, symName: __RNvXsq_NtCs2tD97QJu26F_4core6resultINtB5_6ResultRNtNtCsaYfPqFfImBE_4dprs10parameters9DimensionNtNtCsF7gmULBm3O_4pyo33err5PyErrEINtNtNtB7_3ops9try_trait12FromResidualIBy_NtNtB7_7convert10InfallibleNtNtB1w_10cast_error9CastErrorEE13from_residualBP_, symObjAddr: 0x332C, symBinAddr: 0x10518, symSize: 0x6C }
  - { offsetInCU: 0x5949, offset: 0x23075, size: 0x8, addend: 0x0, symName: __RNvXsq_NtCs2tD97QJu26F_4core6resultINtB5_6ResultRNtNtCsaYfPqFfImBE_4dprs10parameters9DimensionNtNtCsF7gmULBm3O_4pyo33err5PyErrEINtNtNtB7_3ops9try_trait12FromResidualIBy_NtNtB7_7convert10InfallibleNtNtB1y_6pycell13PyBorrowErrorEE13from_residualBP_, symObjAddr: 0x3398, symBinAddr: 0x10584, symSize: 0x4C }
  - { offsetInCU: 0x59B0, offset: 0x230DC, size: 0x8, addend: 0x0, symName: __RNvXsq_NtCs2tD97QJu26F_4core6resultINtB5_6ResultTNtNtCsaYfPqFfImBE_4dprs10parameters17BoundaryConditionBL_ENtNtCsF7gmULBm3O_4pyo33err5PyErrEINtNtNtB7_3ops9try_trait12FromResidualIBy_NtNtB7_7convert10InfallibleB1H_EE13from_residualBP_, symObjAddr: 0x33E4, symBinAddr: 0x105D0, symSize: 0x6C }
  - { offsetInCU: 0x5A36, offset: 0x23162, size: 0x8, addend: 0x0, symName: __RNvXsq_NtCs2tD97QJu26F_4core6resultINtB5_6ResultTNtNtCsaYfPqFfImBE_4dprs10parameters17BoundaryConditionBL_ENtNtCsF7gmULBm3O_4pyo33err5PyErrEINtNtNtB7_3ops9try_trait12FromResidualIBy_NtNtB7_7convert10InfallibleNtNtB1J_10cast_error9CastErrorEE13from_residualBP_, symObjAddr: 0x3450, symBinAddr: 0x1063C, symSize: 0x6C }
  - { offsetInCU: 0x5A9D, offset: 0x231C9, size: 0x8, addend: 0x0, symName: __RNvXsq_NtCs2tD97QJu26F_4core6resultINtB5_6ResultTbbENtNtCsF7gmULBm3O_4pyo33err5PyErrEINtNtNtB7_3ops9try_trait12FromResidualIBy_NtNtB7_7convert10InfallibleBO_EE13from_residualCsaYfPqFfImBE_4dprs, symObjAddr: 0x34BC, symBinAddr: 0x106A8, symSize: 0x6C }
  - { offsetInCU: 0x5B23, offset: 0x2324F, size: 0x8, addend: 0x0, symName: __RNvXsq_NtCs2tD97QJu26F_4core6resultINtB5_6ResultTbbENtNtCsF7gmULBm3O_4pyo33err5PyErrEINtNtNtB7_3ops9try_trait12FromResidualIBy_NtNtB7_7convert10InfallibleNtNtBQ_10cast_error9CastErrorEE13from_residualCsaYfPqFfImBE_4dprs, symObjAddr: 0x3528, symBinAddr: 0x10714, symSize: 0x6C }
  - { offsetInCU: 0x5B8A, offset: 0x232B6, size: 0x8, addend: 0x0, symName: __RNvXsq_NtCs2tD97QJu26F_4core6resultINtB5_6ResultTuuENtNtCsF7gmULBm3O_4pyo33err5PyErrEINtNtNtB7_3ops9try_trait12FromResidualIBy_NtNtB7_7convert10InfallibleBO_EE13from_residualCsaYfPqFfImBE_4dprs, symObjAddr: 0x3594, symBinAddr: 0x10780, symSize: 0x6C }
  - { offsetInCU: 0x5C10, offset: 0x2333C, size: 0x8, addend: 0x0, symName: __RNvXsq_NtCs2tD97QJu26F_4core6resultINtB5_6ResultlNtNtCsF7gmULBm3O_4pyo33err5PyErrEINtNtNtB7_3ops9try_trait12FromResidualIBy_NtNtB7_7convert10InfallibleNtNtBN_10cast_error9CastErrorEE13from_residualCsaYfPqFfImBE_4dprs, symObjAddr: 0x3600, symBinAddr: 0x107EC, symSize: 0x6C }
  - { offsetInCU: 0x977D, offset: 0x26EA9, size: 0x8, addend: 0x0, symName: __RINvMNtCs2tD97QJu26F_4core6resultINtB3_6ResultIBw_uNtNtCsF7gmULBm3O_4pyo33err5PyErrEINtNtCs9xDkXAC1PNF_5alloc5boxed3BoxDNtNtB5_3any3AnyNtNtB5_6marker4SendEL_EE14unwrap_or_elseNCINvNtNtBR_5impl_10trampoline21trampoline_unraisableNCNvB2S_7dealloc0Es_0ECsaYfPqFfImBE_4dprs, symObjAddr: 0x0, symBinAddr: 0xD1F4, symSize: 0x70 }
  - { offsetInCU: 0x981B, offset: 0x26F47, size: 0x8, addend: 0x0, symName: __RINvMNtCs2tD97QJu26F_4core6resultINtB3_6ResultINtNtCsF7gmULBm3O_4pyo38instance5BoundNtNtCsaYfPqFfImBE_4dprs10parameters10ProcessingENtNtBN_3err5PyErrE3mapINtBL_2PyB1k_ENvMs9_BL_BI_6unbindEB1o_, symObjAddr: 0x70, symBinAddr: 0xD264, symSize: 0x90 }
  - { offsetInCU: 0x98C6, offset: 0x26FF2, size: 0x8, addend: 0x0, symName: __RINvMNtCs2tD97QJu26F_4core6resultINtB3_6ResultINtNtCsF7gmULBm3O_4pyo38instance5BoundNtNtCsaYfPqFfImBE_4dprs10parameters17BoundaryConditionENtNtBN_3err5PyErrE3mapINtBL_2PyB1k_ENvMs9_BL_BI_6unbindEB1o_, symObjAddr: 0x100, symBinAddr: 0xD2F4, symSize: 0x90 }
  - { offsetInCU: 0x9971, offset: 0x2709D, size: 0x8, addend: 0x0, symName: __RINvMNtCs2tD97QJu26F_4core6resultINtB3_6ResultINtNtCsF7gmULBm3O_4pyo38instance5BoundNtNtCsaYfPqFfImBE_4dprs10parameters8TopologyENtNtBN_3err5PyErrE3mapINtBL_2PyB1k_ENvMs9_BL_BI_6unbindEB1o_, symObjAddr: 0x190, symBinAddr: 0xD384, symSize: 0x90 }
  - { offsetInCU: 0x9A1C, offset: 0x27148, size: 0x8, addend: 0x0, symName: __RINvMNtCs2tD97QJu26F_4core6resultINtB3_6ResultINtNtCsF7gmULBm3O_4pyo38instance5BoundNtNtCsaYfPqFfImBE_4dprs10parameters9DimensionENtNtBN_3err5PyErrE3mapINtBL_2PyB1k_ENvMs9_BL_BI_6unbindEB1o_, symObjAddr: 0x220, symBinAddr: 0xD414, symSize: 0x90 }
  - { offsetInCU: 0x9AC7, offset: 0x271F3, size: 0x8, addend: 0x0, symName: __RINvMNtCs2tD97QJu26F_4core6resultINtB3_6ResultINtNtCsF7gmULBm3O_4pyo38instance5BoundNtNtNtBN_5types3any5PyAnyENtNtB5_7convert10InfallibleE3mapONtNtCsqz1hv0UmID_8pyo3_ffi6object8PyObjectNvYBI_INtBL_11BoundObjectB1k_E8into_ptrECsaYfPqFfImBE_4dprs, symObjAddr: 0x2B0, symBinAddr: 0xD4A4, symSize: 0x38 }
  - { offsetInCU: 0x9B3B, offset: 0x27267, size: 0x8, addend: 0x0, symName: __RINvMNtCs2tD97QJu26F_4core6resultINtB3_6ResultINtNtCsF7gmULBm3O_4pyo38instance5BoundNtNtNtBN_5types3any5PyAnyENtNtBN_3err5PyErrE3mapONtNtCsqz1hv0UmID_8pyo3_ffi6object8PyObjectNvMs9_BL_BI_8into_ptrECsaYfPqFfImBE_4dprs, symObjAddr: 0x2E8, symBinAddr: 0xD4DC, symSize: 0x90 }
  - { offsetInCU: 0x9BE6, offset: 0x27312, size: 0x8, addend: 0x0, symName: __RINvMNtCs2tD97QJu26F_4core6resultINtB3_6ResultINtNtCsF7gmULBm3O_4pyo38instance5BoundNtNtNtBN_5types3num5PyIntENtNtB5_7convert10InfallibleE3mapONtNtCsqz1hv0UmID_8pyo3_ffi6object8PyObjectNvYBI_INtBL_11BoundObjectB1k_E8into_ptrECsaYfPqFfImBE_4dprs, symObjAddr: 0x378, symBinAddr: 0xD56C, symSize: 0x38 }
  - { offsetInCU: 0x9C72, offset: 0x2739E, size: 0x8, addend: 0x0, symName: __RINvMNtCs2tD97QJu26F_4core6resultINtB3_6ResultINtNtCsF7gmULBm3O_4pyo38instance5BoundNtNtNtBN_5types4list6PyListENtNtBN_3err5PyErrE3mapIBJ_NtNtB1o_3any5PyAnyENvMs9_BL_BI_8into_anyECsaYfPqFfImBE_4dprs, symObjAddr: 0x3B0, symBinAddr: 0xD5A4, symSize: 0x90 }
  - { offsetInCU: 0x9D1D, offset: 0x27449, size: 0x8, addend: 0x0, symName: __RINvMNtCs2tD97QJu26F_4core6resultINtB3_6ResultINtNtCsF7gmULBm3O_4pyo38instance5BoundNtNtNtBN_5types6string8PyStringENtNtB5_7convert10InfallibleE3mapONtNtCsqz1hv0UmID_8pyo3_ffi6object8PyObjectNvYBI_INtBL_11BoundObjectB1k_E8into_ptrECsaYfPqFfImBE_4dprs, symObjAddr: 0x440, symBinAddr: 0xD634, symSize: 0x38 }
  - { offsetInCU: 0x9DAB, offset: 0x274D7, size: 0x8, addend: 0x0, symName: __RINvMNtCs2tD97QJu26F_4core6resultINtB3_6ResultINtNtCsF7gmULBm3O_4pyo38instance8BorrowedNtNtCsaYfPqFfImBE_4dprs10parameters10ProcessingENtNtNtBN_3err10cast_error9CastErrorE7map_errNtNtNtBN_7pyclass5guard17PyClassGuardErrorNCNvXs1_B2T_INtB2T_12PyClassGuardB1n_ENtNtBN_10conversion12FromPyObject7extract0EB1r_, symObjAddr: 0x478, symBinAddr: 0xD66C, symSize: 0x80 }
  - { offsetInCU: 0x9E4B, offset: 0x27577, size: 0x8, addend: 0x0, symName: __RINvMNtCs2tD97QJu26F_4core6resultINtB3_6ResultINtNtCsF7gmULBm3O_4pyo38instance8BorrowedNtNtCsaYfPqFfImBE_4dprs10parameters17BoundaryConditionENtNtNtBN_3err10cast_error9CastErrorE7map_errNtNtNtBN_7pyclass5guard17PyClassGuardErrorNCNvXs1_B30_INtB30_12PyClassGuardB1n_ENtNtBN_10conversion12FromPyObject7extract0EB1r_, symObjAddr: 0x4F8, symBinAddr: 0xD6EC, symSize: 0x80 }
  - { offsetInCU: 0x9EEB, offset: 0x27617, size: 0x8, addend: 0x0, symName: __RINvMNtCs2tD97QJu26F_4core6resultINtB3_6ResultINtNtCsF7gmULBm3O_4pyo38instance8BorrowedNtNtCsaYfPqFfImBE_4dprs10parameters8TopologyENtNtNtBN_3err10cast_error9CastErrorE7map_errNtNtNtBN_7pyclass5guard17PyClassGuardErrorNCNvXs1_B2Q_INtB2Q_12PyClassGuardB1n_ENtNtBN_10conversion12FromPyObject7extract0EB1r_, symObjAddr: 0x578, symBinAddr: 0xD76C, symSize: 0x80 }
  - { offsetInCU: 0x9F8B, offset: 0x276B7, size: 0x8, addend: 0x0, symName: __RINvMNtCs2tD97QJu26F_4core6resultINtB3_6ResultINtNtCsF7gmULBm3O_4pyo38instance8BorrowedNtNtCsaYfPqFfImBE_4dprs10parameters9DimensionENtNtNtBN_3err10cast_error9CastErrorE7map_errNtNtNtBN_7pyclass5guard17PyClassGuardErrorNCNvXs1_B2R_INtB2R_12PyClassGuardB1n_ENtNtBN_10conversion12FromPyObject7extract0EB1r_, symObjAddr: 0x5F8, symBinAddr: 0xD7EC, symSize: 0x80 }
  - { offsetInCU: 0xA01E, offset: 0x2774A, size: 0x8, addend: 0x0, symName: __RINvMNtCs2tD97QJu26F_4core6resultINtB3_6ResultINtNtNtCsF7gmULBm3O_4pyo37pyclass5guard12PyClassGuardNtNtCsaYfPqFfImBE_4dprs10parameters10ProcessingENtNtBP_6pycell13PyBorrowErrorE7map_errNtBL_17PyClassGuardErrorNCNvXs1_BL_BI_NtNtBP_10conversion12FromPyObject7extracts_0EB1D_, symObjAddr: 0x678, symBinAddr: 0xD86C, symSize: 0x6C }
  - { offsetInCU: 0xA0B0, offset: 0x277DC, size: 0x8, addend: 0x0, symName: __RINvMNtCs2tD97QJu26F_4core6resultINtB3_6ResultINtNtNtCsF7gmULBm3O_4pyo37pyclass5guard12PyClassGuardNtNtCsaYfPqFfImBE_4dprs10parameters17BoundaryConditionENtNtBP_6pycell13PyBorrowErrorE7map_errNtBL_17PyClassGuardErrorNCNvXs1_BL_BI_NtNtBP_10conversion12FromPyObject7extracts_0EB1D_, symObjAddr: 0x6E4, symBinAddr: 0xD8D8, symSize: 0x6C }
  - { offsetInCU: 0xA142, offset: 0x2786E, size: 0x8, addend: 0x0, symName: __RINvMNtCs2tD97QJu26F_4core6resultINtB3_6ResultINtNtNtCsF7gmULBm3O_4pyo37pyclass5guard12PyClassGuardNtNtCsaYfPqFfImBE_4dprs10parameters8TopologyENtNtBP_6pycell13PyBorrowErrorE7map_errNtBL_17PyClassGuardErrorNCNvXs1_BL_BI_NtNtBP_10conversion12FromPyObject7extracts_0EB1D_, symObjAddr: 0x750, symBinAddr: 0xD944, symSize: 0x6C }
  - { offsetInCU: 0xA1D4, offset: 0x27900, size: 0x8, addend: 0x0, symName: __RINvMNtCs2tD97QJu26F_4core6resultINtB3_6ResultINtNtNtCsF7gmULBm3O_4pyo37pyclass5guard12PyClassGuardNtNtCsaYfPqFfImBE_4dprs10parameters9DimensionENtNtBP_6pycell13PyBorrowErrorE7map_errNtBL_17PyClassGuardErrorNCNvXs1_BL_BI_NtNtBP_10conversion12FromPyObject7extracts_0EB1D_, symObjAddr: 0x7BC, symBinAddr: 0xD9B0, symSize: 0x6C }
  - { offsetInCU: 0xA27E, offset: 0x279AA, size: 0x8, addend: 0x0, symName: __RINvMNtCs2tD97QJu26F_4core6resultINtB3_6ResultNtNtCsaYfPqFfImBE_4dprs10parameters17BoundaryConditionNtNtNtCsF7gmULBm3O_4pyo37pyclass5guard17PyClassGuardErrorE7map_errNtNtB1G_3err5PyErrNvYB1A_INtNtB5_7convert4IntoB2E_E4intoEBM_, symObjAddr: 0x828, symBinAddr: 0xDA1C, symSize: 0x90 }
  - { offsetInCU: 0xA329, offset: 0x27A55, size: 0x8, addend: 0x0, symName: __RINvMNtCs2tD97QJu26F_4core6resultINtB3_6ResultONtNtCsqz1hv0UmID_8pyo3_ffi6object8PyObjectNtNtB5_7convert10InfallibleE7map_errNtNtCsF7gmULBm3O_4pyo33err5PyErrNvYB1p_INtB1r_4IntoB1Z_E4intoECsaYfPqFfImBE_4dprs, symObjAddr: 0x8B8, symBinAddr: 0xDAAC, symSize: 0x30 }
  - { offsetInCU: 0xA3AC, offset: 0x27AD8, size: 0x8, addend: 0x0, symName: __RINvMNtCs2tD97QJu26F_4core6resultINtB3_6ResultRINtNtCsF7gmULBm3O_4pyo38instance2PyNtNtCsaYfPqFfImBE_4dprs10parameters10ProcessingENtNtBO_3err5PyErrE3mapINtBM_5BoundB1i_ENCNvXsE_B1k_B1i_NtNtBO_10conversion12IntoPyObject13into_pyobjects_0EB1m_, symObjAddr: 0x8E8, symBinAddr: 0xDADC, symSize: 0x9C }
  - { offsetInCU: 0xA43F, offset: 0x27B6B, size: 0x8, addend: 0x0, symName: __RINvMNtCs2tD97QJu26F_4core6resultINtB3_6ResultRINtNtCsF7gmULBm3O_4pyo38instance2PyNtNtCsaYfPqFfImBE_4dprs10parameters17BoundaryConditionENtNtBO_3err5PyErrE3mapINtBM_5BoundB1i_ENCNvXss_B1k_B1i_NtNtBO_10conversion12IntoPyObject13into_pyobjects_0EB1m_, symObjAddr: 0x984, symBinAddr: 0xDB78, symSize: 0x9C }
  - { offsetInCU: 0xA4D2, offset: 0x27BFE, size: 0x8, addend: 0x0, symName: __RINvMNtCs2tD97QJu26F_4core6resultINtB3_6ResultRINtNtCsF7gmULBm3O_4pyo38instance2PyNtNtCsaYfPqFfImBE_4dprs10parameters8TopologyENtNtBO_3err5PyErrE3mapINtBM_5BoundB1i_ENCNvXsg_B1k_B1i_NtNtBO_10conversion12IntoPyObject13into_pyobjects_0EB1m_, symObjAddr: 0xA20, symBinAddr: 0xDC14, symSize: 0x9C }
  - { offsetInCU: 0xA565, offset: 0x27C91, size: 0x8, addend: 0x0, symName: __RINvMNtCs2tD97QJu26F_4core6resultINtB3_6ResultRINtNtCsF7gmULBm3O_4pyo38instance2PyNtNtCsaYfPqFfImBE_4dprs10parameters9DimensionENtNtBO_3err5PyErrE3mapINtBM_5BoundB1i_ENCNvXs4_B1k_B1i_NtNtBO_10conversion12IntoPyObject13into_pyobjects_0EB1m_, symObjAddr: 0xABC, symBinAddr: 0xDCB0, symSize: 0x9C }
  - { offsetInCU: 0xA605, offset: 0x27D31, size: 0x8, addend: 0x0, symName: __RINvMNtCs2tD97QJu26F_4core6resultINtB3_6ResultRINtNtCsF7gmULBm3O_4pyo38instance5BoundNtNtCsaYfPqFfImBE_4dprs10parameters10ProcessingENtNtNtBO_3err10cast_error9CastErrorE3mapiNCNCNvMsJ_B1n_B1l_30___pyo3__generated____richcmp__00EB1p_, symObjAddr: 0xB58, symBinAddr: 0xDD4C, symSize: 0x78 }
  - { offsetInCU: 0xA6A5, offset: 0x27DD1, size: 0x8, addend: 0x0, symName: __RINvMNtCs2tD97QJu26F_4core6resultINtB3_6ResultRINtNtCsF7gmULBm3O_4pyo38instance5BoundNtNtCsaYfPqFfImBE_4dprs10parameters17BoundaryConditionENtNtNtBO_3err10cast_error9CastErrorE3mapiNCNCNvMsx_B1n_B1l_30___pyo3__generated____richcmp__00EB1p_, symObjAddr: 0xBD0, symBinAddr: 0xDDC4, symSize: 0x78 }
  - { offsetInCU: 0xA745, offset: 0x27E71, size: 0x8, addend: 0x0, symName: __RINvMNtCs2tD97QJu26F_4core6resultINtB3_6ResultRINtNtCsF7gmULBm3O_4pyo38instance5BoundNtNtCsaYfPqFfImBE_4dprs10parameters8TopologyENtNtNtBO_3err10cast_error9CastErrorE3mapiNCNCNvMsl_B1n_B1l_30___pyo3__generated____richcmp__00EB1p_, symObjAddr: 0xC48, symBinAddr: 0xDE3C, symSize: 0x78 }
  - { offsetInCU: 0xA7E5, offset: 0x27F11, size: 0x8, addend: 0x0, symName: __RINvMNtCs2tD97QJu26F_4core6resultINtB3_6ResultRINtNtCsF7gmULBm3O_4pyo38instance5BoundNtNtCsaYfPqFfImBE_4dprs10parameters9DimensionENtNtNtBO_3err10cast_error9CastErrorE3mapiNCNCNvMs9_B1n_B1l_30___pyo3__generated____richcmp__00EB1p_, symObjAddr: 0xCC0, symBinAddr: 0xDEB4, symSize: 0x78 }
  - { offsetInCU: 0xA885, offset: 0x27FB1, size: 0x8, addend: 0x0, symName: __RINvMNtCs2tD97QJu26F_4core6resultINtB3_6ResultRINtNtCsF7gmULBm3O_4pyo38instance5BoundNtNtNtBO_5types10typeobject6PyTypeENtNtBO_3err5PyErrE14unwrap_or_elseNCNvXs2_NtCsaYfPqFfImBE_4dprs10parametersNtB2A_9DimensionNtNtBO_11type_object10PyTypeInfo15type_object_raw0EB2C_, symObjAddr: 0xD38, symBinAddr: 0xDF2C, symSize: 0x8C }
  - { offsetInCU: 0xA8F1, offset: 0x2801D, size: 0x8, addend: 0x0, symName: __RINvMNtCs2tD97QJu26F_4core6resultINtB3_6ResultRINtNtCsF7gmULBm3O_4pyo38instance5BoundNtNtNtBO_5types10typeobject6PyTypeENtNtBO_3err5PyErrE14unwrap_or_elseNCNvXsC_NtCsaYfPqFfImBE_4dprs10parametersNtB2A_10ProcessingNtNtBO_11type_object10PyTypeInfo15type_object_raw0EB2C_, symObjAddr: 0xDC4, symBinAddr: 0xDFB8, symSize: 0x8C }
  - { offsetInCU: 0xA95D, offset: 0x28089, size: 0x8, addend: 0x0, symName: __RINvMNtCs2tD97QJu26F_4core6resultINtB3_6ResultRINtNtCsF7gmULBm3O_4pyo38instance5BoundNtNtNtBO_5types10typeobject6PyTypeENtNtBO_3err5PyErrE14unwrap_or_elseNCNvXse_NtCsaYfPqFfImBE_4dprs10parametersNtB2A_8TopologyNtNtBO_11type_object10PyTypeInfo15type_object_raw0EB2C_, symObjAddr: 0xE50, symBinAddr: 0xE044, symSize: 0x8C }
  - { offsetInCU: 0xA9C9, offset: 0x280F5, size: 0x8, addend: 0x0, symName: __RINvMNtCs2tD97QJu26F_4core6resultINtB3_6ResultRINtNtCsF7gmULBm3O_4pyo38instance5BoundNtNtNtBO_5types10typeobject6PyTypeENtNtBO_3err5PyErrE14unwrap_or_elseNCNvXsq_NtCsaYfPqFfImBE_4dprs10parametersNtB2A_17BoundaryConditionNtNtBO_11type_object10PyTypeInfo15type_object_raw0EB2C_, symObjAddr: 0xEDC, symBinAddr: 0xE0D0, symSize: 0x8C }
  - { offsetInCU: 0xABCA, offset: 0x282F6, size: 0x8, addend: 0x0, symName: __RINvMNtCs2tD97QJu26F_4core6resultINtB3_6ResultTjINtNtCs9xDkXAC1PNF_5alloc3vec3VecIBL_bEEENtNtCsF7gmULBm3O_4pyo33err5PyErrE7map_errB1p_NvYB1p_INtNtB5_7convert4IntoB1p_E4intoECsaYfPqFfImBE_4dprs, symObjAddr: 0xF68, symBinAddr: 0xE15C, symSize: 0xCC }
  - { offsetInCU: 0xAC5E, offset: 0x2838A, size: 0x8, addend: 0x0, symName: __RINvMNtCs2tD97QJu26F_4core6resultINtB3_6ResultTjINtNtCs9xDkXAC1PNF_5alloc3vec3VecIBL_bEEENtNtCsF7gmULBm3O_4pyo33err5PyErrE8and_thenINtNtB1t_8instance5BoundNtNtNtB1t_5types3any5PyAnyENCNvMs6_NtNtB1t_5impl_4wrapINtB32_21IntoPyObjectConverterBv_E12map_into_ptr0ECsaYfPqFfImBE_4dprs, symObjAddr: 0x1034, symBinAddr: 0xE228, symSize: 0xB0 }
  - { offsetInCU: 0xACF1, offset: 0x2841D, size: 0x8, addend: 0x0, symName: __RINvMNtCs2tD97QJu26F_4core6resultINtB3_6ResultbNtNtCsF7gmULBm3O_4pyo33err5PyErrE7map_errBJ_NvYBJ_INtNtB5_7convert4IntoBJ_E4intoECsaYfPqFfImBE_4dprs, symObjAddr: 0x10E4, symBinAddr: 0xE2D8, symSize: 0xBC }
  - { offsetInCU: 0xAD91, offset: 0x284BD, size: 0x8, addend: 0x0, symName: __RINvMNtCs2tD97QJu26F_4core6resultINtB3_6ResultiNtNtCsF7gmULBm3O_4pyo33err5PyErrE7or_elseNtNtBL_10cast_error9CastErrorNCNvMs9_NtCsaYfPqFfImBE_4dprs10parametersNtB1Z_9Dimension30___pyo3__generated____richcmp__0EB21_, symObjAddr: 0x11A0, symBinAddr: 0xE394, symSize: 0x98 }
  - { offsetInCU: 0xAE24, offset: 0x28550, size: 0x8, addend: 0x0, symName: __RINvMNtCs2tD97QJu26F_4core6resultINtB3_6ResultiNtNtCsF7gmULBm3O_4pyo33err5PyErrE7or_elseNtNtBL_10cast_error9CastErrorNCNvMsJ_NtCsaYfPqFfImBE_4dprs10parametersNtB1Z_10Processing30___pyo3__generated____richcmp__0EB21_, symObjAddr: 0x1238, symBinAddr: 0xE42C, symSize: 0x98 }
  - { offsetInCU: 0xAEB7, offset: 0x285E3, size: 0x8, addend: 0x0, symName: __RINvMNtCs2tD97QJu26F_4core6resultINtB3_6ResultiNtNtCsF7gmULBm3O_4pyo33err5PyErrE7or_elseNtNtBL_10cast_error9CastErrorNCNvMsl_NtCsaYfPqFfImBE_4dprs10parametersNtB1Z_8Topology30___pyo3__generated____richcmp__0EB21_, symObjAddr: 0x12D0, symBinAddr: 0xE4C4, symSize: 0x98 }
  - { offsetInCU: 0xAF4A, offset: 0x28676, size: 0x8, addend: 0x0, symName: __RINvMNtCs2tD97QJu26F_4core6resultINtB3_6ResultiNtNtCsF7gmULBm3O_4pyo33err5PyErrE7or_elseNtNtBL_10cast_error9CastErrorNCNvMsx_NtCsaYfPqFfImBE_4dprs10parametersNtB1Z_17BoundaryCondition30___pyo3__generated____richcmp__0EB21_, symObjAddr: 0x1368, symBinAddr: 0xE55C, symSize: 0x98 }
  - { offsetInCU: 0xAFDD, offset: 0x28709, size: 0x8, addend: 0x0, symName: __RINvMNtCs2tD97QJu26F_4core6resultINtB3_6ResultuNtNtCsF7gmULBm3O_4pyo36pycell13PyBorrowErrorE3mapINtBL_5PyRefNtNtCsaYfPqFfImBE_4dprs10parameters10ProcessingENCNvMs0_BL_B1w_10try_borrow0EB1M_, symObjAddr: 0x1400, symBinAddr: 0xE5F4, symSize: 0x4C }
  - { offsetInCU: 0xB06F, offset: 0x2879B, size: 0x8, addend: 0x0, symName: __RINvMNtCs2tD97QJu26F_4core6resultINtB3_6ResultuNtNtCsF7gmULBm3O_4pyo36pycell13PyBorrowErrorE3mapINtBL_5PyRefNtNtCsaYfPqFfImBE_4dprs10parameters17BoundaryConditionENCNvMs0_BL_B1w_10try_borrow0EB1M_, symObjAddr: 0x144C, symBinAddr: 0xE640, symSize: 0x4C }
  - { offsetInCU: 0xB101, offset: 0x2882D, size: 0x8, addend: 0x0, symName: __RINvMNtCs2tD97QJu26F_4core6resultINtB3_6ResultuNtNtCsF7gmULBm3O_4pyo36pycell13PyBorrowErrorE3mapINtBL_5PyRefNtNtCsaYfPqFfImBE_4dprs10parameters8TopologyENCNvMs0_BL_B1w_10try_borrow0EB1M_, symObjAddr: 0x1498, symBinAddr: 0xE68C, symSize: 0x4C }
  - { offsetInCU: 0xB193, offset: 0x288BF, size: 0x8, addend: 0x0, symName: __RINvMNtCs2tD97QJu26F_4core6resultINtB3_6ResultuNtNtCsF7gmULBm3O_4pyo36pycell13PyBorrowErrorE3mapINtBL_5PyRefNtNtCsaYfPqFfImBE_4dprs10parameters9DimensionENCNvMs0_BL_B1w_10try_borrow0EB1M_, symObjAddr: 0x14E4, symBinAddr: 0xE6D8, symSize: 0x4C }
  - { offsetInCU: 0xB23F, offset: 0x2896B, size: 0x8, addend: 0x0, symName: __RINvMNtCs2tD97QJu26F_4core6resultINtB3_6ResultuNtNtCsF7gmULBm3O_4pyo36pycell13PyBorrowErrorE3mapINtNtNtBN_7pyclass5guard12PyClassGuardNtNtCsaYfPqFfImBE_4dprs10parameters10ProcessingENCNvMB1z_B1w_21try_from_class_object0EB2c_, symObjAddr: 0x1530, symBinAddr: 0xE724, symSize: 0x4C }
  - { offsetInCU: 0xB2EB, offset: 0x28A17, size: 0x8, addend: 0x0, symName: __RINvMNtCs2tD97QJu26F_4core6resultINtB3_6ResultuNtNtCsF7gmULBm3O_4pyo36pycell13PyBorrowErrorE3mapINtNtNtBN_7pyclass5guard12PyClassGuardNtNtCsaYfPqFfImBE_4dprs10parameters17BoundaryConditionENCNvMB1z_B1w_21try_from_class_object0EB2c_, symObjAddr: 0x157C, symBinAddr: 0xE770, symSize: 0x4C }
  - { offsetInCU: 0xB397, offset: 0x28AC3, size: 0x8, addend: 0x0, symName: __RINvMNtCs2tD97QJu26F_4core6resultINtB3_6ResultuNtNtCsF7gmULBm3O_4pyo36pycell13PyBorrowErrorE3mapINtNtNtBN_7pyclass5guard12PyClassGuardNtNtCsaYfPqFfImBE_4dprs10parameters8TopologyENCNvMB1z_B1w_21try_from_class_object0EB2c_, symObjAddr: 0x15C8, symBinAddr: 0xE7BC, symSize: 0x4C }
  - { offsetInCU: 0xB443, offset: 0x28B6F, size: 0x8, addend: 0x0, symName: __RINvMNtCs2tD97QJu26F_4core6resultINtB3_6ResultuNtNtCsF7gmULBm3O_4pyo36pycell13PyBorrowErrorE3mapINtNtNtBN_7pyclass5guard12PyClassGuardNtNtCsaYfPqFfImBE_4dprs10parameters9DimensionENCNvMB1z_B1w_21try_from_class_object0EB2c_, symObjAddr: 0x1614, symBinAddr: 0xE808, symSize: 0x4C }
  - { offsetInCU: 0xB4D5, offset: 0x28C01, size: 0x8, addend: 0x0, symName: __RNvMNtCs2tD97QJu26F_4core6resultINtB2_6ResultINtNtCsF7gmULBm3O_4pyo36pycell5PyRefNtNtCsaYfPqFfImBE_4dprs10parameters10ProcessingENtBK_13PyBorrowErrorE6expectB1l_, symObjAddr: 0x16D0, symBinAddr: 0xE8C4, symSize: 0x8C }
  - { offsetInCU: 0xB537, offset: 0x28C63, size: 0x8, addend: 0x0, symName: __RNvMNtCs2tD97QJu26F_4core6resultINtB2_6ResultINtNtCsF7gmULBm3O_4pyo36pycell5PyRefNtNtCsaYfPqFfImBE_4dprs10parameters17BoundaryConditionENtBK_13PyBorrowErrorE6expectB1l_, symObjAddr: 0x175C, symBinAddr: 0xE950, symSize: 0x8C }
  - { offsetInCU: 0xB599, offset: 0x28CC5, size: 0x8, addend: 0x0, symName: __RNvMNtCs2tD97QJu26F_4core6resultINtB2_6ResultINtNtCsF7gmULBm3O_4pyo36pycell5PyRefNtNtCsaYfPqFfImBE_4dprs10parameters8TopologyENtBK_13PyBorrowErrorE6expectB1l_, symObjAddr: 0x17E8, symBinAddr: 0xE9DC, symSize: 0x8C }
  - { offsetInCU: 0xB5FB, offset: 0x28D27, size: 0x8, addend: 0x0, symName: __RNvMNtCs2tD97QJu26F_4core6resultINtB2_6ResultINtNtCsF7gmULBm3O_4pyo36pycell5PyRefNtNtCsaYfPqFfImBE_4dprs10parameters9DimensionENtBK_13PyBorrowErrorE6expectB1l_, symObjAddr: 0x1874, symBinAddr: 0xEA68, symSize: 0x8C }
  - { offsetInCU: 0xB68F, offset: 0x28DBB, size: 0x8, addend: 0x0, symName: __RNvMNtCs2tD97QJu26F_4core6resultINtB2_6ResultuNtNtCsF7gmULBm3O_4pyo33err5PyErrE6is_errCsaYfPqFfImBE_4dprs, symObjAddr: 0x1900, symBinAddr: 0xEAF4, symSize: 0x20 }
  - { offsetInCU: 0x1E, offset: 0x28EFC, size: 0x8, addend: 0x0, symName: __RINvMsj_NtCs9xDkXAC1PNF_5alloc3vecINtB6_3VecbE14extend_trustedINtNtNtNtCs2tD97QJu26F_4core4iter8adapters3map3MapINtNtNtB17_3ops5range5RangejENCINvMNtNtCsaYfPqFfImBE_4dprs2dp8model_2dINtB2l_14LatticeModel2DNtNtB2n_11dp_model_2d7DPModelE21next_iteration_serialNtNtNtCseSFJDzX8FyV_4rand4rngs6thread9ThreadRngE0EEB2p_, symObjAddr: 0x0, symBinAddr: 0x10858, symSize: 0x150 }
  - { offsetInCU: 0x310C, offset: 0x2BFEA, size: 0x8, addend: 0x0, symName: __RINvNtCs9xDkXAC1PNF_5alloc3vec9from_elembECsaYfPqFfImBE_4dprs, symObjAddr: 0x610, symBinAddr: 0x10E68, symSize: 0x24 }
  - { offsetInCU: 0x3157, offset: 0x2C035, size: 0x8, addend: 0x0, symName: __RINvXse_NtCs9xDkXAC1PNF_5alloc3vecINtB6_3VecIBx_bEEINtNtNtNtCs2tD97QJu26F_4core4iter6traits7collect12FromIteratorBG_E9from_iterINtNtNtBU_8adapters3map3MapINtNtB6_9into_iter8IntoIterBG_ENCNvNtCsaYfPqFfImBE_4dprs2dp14run_simulations_0EEB33_, symObjAddr: 0x668, symBinAddr: 0x10EC0, symSize: 0x34 }
  - { offsetInCU: 0x3198, offset: 0x2C076, size: 0x8, addend: 0x0, symName: __RINvXse_NtCs9xDkXAC1PNF_5alloc3vecINtB6_3VecIBx_bEEINtNtNtNtCs2tD97QJu26F_4core4iter6traits7collect12FromIteratorBG_E9from_iterINtNtNtBU_8adapters3map3MapINtNtB6_9into_iter8IntoIterBG_ENCNvNtCsaYfPqFfImBE_4dprs4life14run_simulations_0EEB33_, symObjAddr: 0x69C, symBinAddr: 0x10EF4, symSize: 0x34 }
  - { offsetInCU: 0x31D9, offset: 0x2C0B7, size: 0x8, addend: 0x0, symName: __RINvXse_NtCs9xDkXAC1PNF_5alloc3vecINtB6_3VecbEINtNtNtNtCs2tD97QJu26F_4core4iter6traits7collect12FromIteratorbE9from_iterINtNtNtBP_8adapters3map3MapINtNtNtBR_3ops5range5RangejENCINvMNtNtCsaYfPqFfImBE_4dprs2dp8model_2dINtB2T_14LatticeModel2DNtNtB2V_11dp_model_2d7DPModelE21next_iteration_serialNtNtNtCseSFJDzX8FyV_4rand4rngs6thread9ThreadRngE0EEB2X_, symObjAddr: 0x6D0, symBinAddr: 0x10F28, symSize: 0x34 }
  - { offsetInCU: 0x321A, offset: 0x2C0F8, size: 0x8, addend: 0x0, symName: __RINvXse_NtCs9xDkXAC1PNF_5alloc3vecINtB6_3VecbEINtNtNtNtCs2tD97QJu26F_4core4iter6traits7collect12FromIteratorbE9from_iterINtNtNtBP_8adapters3map3MapINtNtNtBR_3ops5range5RangejENCINvMNtNtCsaYfPqFfImBE_4dprs2dp8model_2dINtB2T_14LatticeModel2DNtNtB2V_11dp_model_2d7DPModelE9randomizeNtNtNtCseSFJDzX8FyV_4rand4rngs6thread9ThreadRngE0EEB2X_, symObjAddr: 0x704, symBinAddr: 0x10F5C, symSize: 0x34 }
  - { offsetInCU: 0x325B, offset: 0x2C139, size: 0x8, addend: 0x0, symName: __RINvXse_NtCs9xDkXAC1PNF_5alloc3vecINtB6_3VecbEINtNtNtNtCs2tD97QJu26F_4core4iter6traits7collect12FromIteratorbE9from_iterINtNtNtBP_8adapters3map3MapINtNtNtBR_3ops5range5RangejENCINvMNtNtCsaYfPqFfImBE_4dprs4life8model_2dINtB2T_14LatticeModel2DNtNtB2V_10life_model9LifeModelE9randomizeNtNtNtCseSFJDzX8FyV_4rand4rngs6thread9ThreadRngE0EEB2X_, symObjAddr: 0x738, symBinAddr: 0x10F90, symSize: 0x34 }
  - { offsetInCU: 0x329C, offset: 0x2C17A, size: 0x8, addend: 0x0, symName: __RINvXse_NtCs9xDkXAC1PNF_5alloc3vecINtB6_3VecbEINtNtNtNtCs2tD97QJu26F_4core4iter6traits7collect12FromIteratorbE9from_iterINtNtNtBP_8adapters3map3MapINtNtNtBR_3ops5range5RangejENCNvMNtNtCsaYfPqFfImBE_4dprs4life8model_2dINtB2S_14LatticeModel2DNtNtB2U_10life_model9LifeModelE21next_iteration_serial0EEB2W_, symObjAddr: 0x76C, symBinAddr: 0x10FC4, symSize: 0x34 }
  - { offsetInCU: 0x32E3, offset: 0x2C1C1, size: 0x8, addend: 0x0, symName: __RINvXsi_NtCs9xDkXAC1PNF_5alloc3vecINtB6_3VecbEINtNtNtNtCs2tD97QJu26F_4core4iter6traits7collect6ExtendbE6extendINtNtNtBP_8adapters3map3MapINtNtNtBR_3ops5range5RangejERNCNvMNtNtCsaYfPqFfImBE_4dprs4life8model_2dINtB2J_14LatticeModel2DNtNtB2L_10life_model9LifeModelE23next_iteration_parallel0EEB2N_, symObjAddr: 0x7A0, symBinAddr: 0x10FF8, symSize: 0x40 }
  - { offsetInCU: 0x3343, offset: 0x2C221, size: 0x8, addend: 0x0, symName: __RNCINvMsj_NtCs9xDkXAC1PNF_5alloc3vecINtB8_3VecbE14extend_trustedINtNtNtNtCs2tD97QJu26F_4core4iter8adapters3map3MapINtNtNtB19_3ops5range5RangejENCINvMNtNtCsaYfPqFfImBE_4dprs2dp8model_2dINtB2n_14LatticeModel2DNtNtB2p_11dp_model_2d7DPModelE21next_iteration_serialNtNtNtCseSFJDzX8FyV_4rand4rngs6thread9ThreadRngE0EE0B2r_, symObjAddr: 0xB24, symBinAddr: 0x1137C, symSize: 0x30 }
  - { offsetInCU: 0x33EB, offset: 0x2C2C9, size: 0x8, addend: 0x0, symName: __RNCINvMsj_NtCs9xDkXAC1PNF_5alloc3vecINtB8_3VecbE14extend_trustedINtNtNtNtCs2tD97QJu26F_4core4iter8adapters3map3MapINtNtNtB19_3ops5range5RangejENCINvMNtNtCsaYfPqFfImBE_4dprs2dp8model_2dINtB2n_14LatticeModel2DNtNtB2p_11dp_model_2d7DPModelE9randomizeNtNtNtCseSFJDzX8FyV_4rand4rngs6thread9ThreadRngE0EE0B2r_, symObjAddr: 0xB54, symBinAddr: 0x113AC, symSize: 0x30 }
  - { offsetInCU: 0x3493, offset: 0x2C371, size: 0x8, addend: 0x0, symName: __RNCINvMsj_NtCs9xDkXAC1PNF_5alloc3vecINtB8_3VecbE14extend_trustedINtNtNtNtCs2tD97QJu26F_4core4iter8adapters3map3MapINtNtNtB19_3ops5range5RangejENCINvMNtNtCsaYfPqFfImBE_4dprs4life8model_2dINtB2n_14LatticeModel2DNtNtB2p_10life_model9LifeModelE9randomizeNtNtNtCseSFJDzX8FyV_4rand4rngs6thread9ThreadRngE0EE0B2r_, symObjAddr: 0xB84, symBinAddr: 0x113DC, symSize: 0x30 }
  - { offsetInCU: 0x353B, offset: 0x2C419, size: 0x8, addend: 0x0, symName: __RNCINvMsj_NtCs9xDkXAC1PNF_5alloc3vecINtB8_3VecbE14extend_trustedINtNtNtNtCs2tD97QJu26F_4core4iter8adapters3map3MapINtNtNtB19_3ops5range5RangejENCNvMNtNtCsaYfPqFfImBE_4dprs4life8model_2dINtB2m_14LatticeModel2DNtNtB2o_10life_model9LifeModelE21next_iteration_serial0EE0B2q_, symObjAddr: 0xBB4, symBinAddr: 0x1140C, symSize: 0x30 }
  - { offsetInCU: 0x35E3, offset: 0x2C4C1, size: 0x8, addend: 0x0, symName: __RNCINvMsj_NtCs9xDkXAC1PNF_5alloc3vecINtB8_3VecbE14extend_trustedINtNtNtNtCs2tD97QJu26F_4core4iter8adapters3map3MapINtNtNtB19_3ops5range5RangejERNCNvMNtNtCsaYfPqFfImBE_4dprs4life8model_2dINtB2n_14LatticeModel2DNtNtB2p_10life_model9LifeModelE23next_iteration_parallel0EE0B2r_, symObjAddr: 0xBE4, symBinAddr: 0x1143C, symSize: 0x30 }
  - { offsetInCU: 0x3855, offset: 0x2C733, size: 0x8, addend: 0x0, symName: __RNvXNtNtCs9xDkXAC1PNF_5alloc3vec14spec_from_iterINtB4_3VecbEINtB2_12SpecFromIterbINtNtNtNtCs2tD97QJu26F_4core4iter8adapters3map3MapINtNtNtB1q_3ops5range5RangejENCINvMNtNtCsaYfPqFfImBE_4dprs2dp8model_2dINtB2E_14LatticeModel2DNtNtB2G_11dp_model_2d7DPModelE21next_iteration_serialNtNtNtCseSFJDzX8FyV_4rand4rngs6thread9ThreadRngE0EE9from_iterB2I_, symObjAddr: 0x13E8, symBinAddr: 0x11C40, symSize: 0x14 }
  - { offsetInCU: 0x3894, offset: 0x2C772, size: 0x8, addend: 0x0, symName: __RNvXNtNtCs9xDkXAC1PNF_5alloc3vec14spec_from_iterINtB4_3VecbEINtB2_12SpecFromIterbINtNtNtNtCs2tD97QJu26F_4core4iter8adapters3map3MapINtNtNtB1q_3ops5range5RangejENCINvMNtNtCsaYfPqFfImBE_4dprs2dp8model_2dINtB2E_14LatticeModel2DNtNtB2G_11dp_model_2d7DPModelE9randomizeNtNtNtCseSFJDzX8FyV_4rand4rngs6thread9ThreadRngE0EE9from_iterB2I_, symObjAddr: 0x13FC, symBinAddr: 0x11C54, symSize: 0x14 }
  - { offsetInCU: 0x38D3, offset: 0x2C7B1, size: 0x8, addend: 0x0, symName: __RNvXNtNtCs9xDkXAC1PNF_5alloc3vec14spec_from_iterINtB4_3VecbEINtB2_12SpecFromIterbINtNtNtNtCs2tD97QJu26F_4core4iter8adapters3map3MapINtNtNtB1q_3ops5range5RangejENCINvMNtNtCsaYfPqFfImBE_4dprs4life8model_2dINtB2E_14LatticeModel2DNtNtB2G_10life_model9LifeModelE9randomizeNtNtNtCseSFJDzX8FyV_4rand4rngs6thread9ThreadRngE0EE9from_iterB2I_, symObjAddr: 0x1410, symBinAddr: 0x11C68, symSize: 0x14 }
  - { offsetInCU: 0x3912, offset: 0x2C7F0, size: 0x8, addend: 0x0, symName: __RNvXNtNtCs9xDkXAC1PNF_5alloc3vec14spec_from_iterINtB4_3VecbEINtB2_12SpecFromIterbINtNtNtNtCs2tD97QJu26F_4core4iter8adapters3map3MapINtNtNtB1q_3ops5range5RangejENCNvMNtNtCsaYfPqFfImBE_4dprs4life8model_2dINtB2D_14LatticeModel2DNtNtB2F_10life_model9LifeModelE21next_iteration_serial0EE9from_iterB2H_, symObjAddr: 0x1424, symBinAddr: 0x11C7C, symSize: 0x14 }
  - { offsetInCU: 0x395D, offset: 0x2C83B, size: 0x8, addend: 0x0, symName: __RNvXs2_NtNtCs9xDkXAC1PNF_5alloc3vec11spec_extendINtB7_3VecbEINtB5_10SpecExtendRbINtNtNtCs2tD97QJu26F_4core5slice4iter4IterbEE11spec_extendCsaYfPqFfImBE_4dprs, symObjAddr: 0x14A0, symBinAddr: 0x11CF8, symSize: 0xB4 }
  - { offsetInCU: 0x3B06, offset: 0x2C9E4, size: 0x8, addend: 0x0, symName: __RNvXs_NtNtCs9xDkXAC1PNF_5alloc3vec11spec_extendINtB6_3VecbEINtB4_10SpecExtendbINtNtNtNtCs2tD97QJu26F_4core4iter8adapters3map3MapINtNtNtB1n_3ops5range5RangejENCINvMNtNtCsaYfPqFfImBE_4dprs2dp8model_2dINtB2B_14LatticeModel2DNtNtB2D_11dp_model_2d7DPModelE21next_iteration_serialNtNtNtCseSFJDzX8FyV_4rand4rngs6thread9ThreadRngE0EE11spec_extendB2F_, symObjAddr: 0x1594, symBinAddr: 0x11DEC, symSize: 0x24 }
  - { offsetInCU: 0x3B58, offset: 0x2CA36, size: 0x8, addend: 0x0, symName: __RNvXs_NtNtCs9xDkXAC1PNF_5alloc3vec11spec_extendINtB6_3VecbEINtB4_10SpecExtendbINtNtNtNtCs2tD97QJu26F_4core4iter8adapters3map3MapINtNtNtB1n_3ops5range5RangejENCINvMNtNtCsaYfPqFfImBE_4dprs2dp8model_2dINtB2B_14LatticeModel2DNtNtB2D_11dp_model_2d7DPModelE9randomizeNtNtNtCseSFJDzX8FyV_4rand4rngs6thread9ThreadRngE0EE11spec_extendB2F_, symObjAddr: 0x15B8, symBinAddr: 0x11E10, symSize: 0x24 }
  - { offsetInCU: 0x3BAA, offset: 0x2CA88, size: 0x8, addend: 0x0, symName: __RNvXs_NtNtCs9xDkXAC1PNF_5alloc3vec11spec_extendINtB6_3VecbEINtB4_10SpecExtendbINtNtNtNtCs2tD97QJu26F_4core4iter8adapters3map3MapINtNtNtB1n_3ops5range5RangejENCINvMNtNtCsaYfPqFfImBE_4dprs4life8model_2dINtB2B_14LatticeModel2DNtNtB2D_10life_model9LifeModelE9randomizeNtNtNtCseSFJDzX8FyV_4rand4rngs6thread9ThreadRngE0EE11spec_extendB2F_, symObjAddr: 0x15DC, symBinAddr: 0x11E34, symSize: 0x24 }
  - { offsetInCU: 0x3BFC, offset: 0x2CADA, size: 0x8, addend: 0x0, symName: __RNvXs_NtNtCs9xDkXAC1PNF_5alloc3vec11spec_extendINtB6_3VecbEINtB4_10SpecExtendbINtNtNtNtCs2tD97QJu26F_4core4iter8adapters3map3MapINtNtNtB1n_3ops5range5RangejENCNvMNtNtCsaYfPqFfImBE_4dprs4life8model_2dINtB2A_14LatticeModel2DNtNtB2C_10life_model9LifeModelE21next_iteration_serial0EE11spec_extendB2E_, symObjAddr: 0x1600, symBinAddr: 0x11E58, symSize: 0x24 }
  - { offsetInCU: 0x3C4E, offset: 0x2CB2C, size: 0x8, addend: 0x0, symName: __RNvXs_NtNtCs9xDkXAC1PNF_5alloc3vec11spec_extendINtB6_3VecbEINtB4_10SpecExtendbINtNtNtNtCs2tD97QJu26F_4core4iter8adapters3map3MapINtNtNtB1n_3ops5range5RangejERNCNvMNtNtCsaYfPqFfImBE_4dprs4life8model_2dINtB2B_14LatticeModel2DNtNtB2D_10life_model9LifeModelE23next_iteration_parallel0EE11spec_extendB2F_, symObjAddr: 0x1624, symBinAddr: 0x11E7C, symSize: 0x24 }
  - { offsetInCU: 0x3CA7, offset: 0x2CB85, size: 0x8, addend: 0x0, symName: __RNvXs7_NtCs9xDkXAC1PNF_5alloc3vecINtB5_3VecbENtNtNtCs2tD97QJu26F_4core3ops5deref5Deref5derefCsaYfPqFfImBE_4dprs, symObjAddr: 0x1554, symBinAddr: 0x11DAC, symSize: 0x20 }
  - { offsetInCU: 0x3DCA, offset: 0x2CCA8, size: 0x8, addend: 0x0, symName: __RNvXs8_NtCs9xDkXAC1PNF_5alloc3vecINtB5_3VecbENtNtNtCs2tD97QJu26F_4core3ops5deref8DerefMut9deref_mutCsaYfPqFfImBE_4dprs, symObjAddr: 0x1574, symBinAddr: 0x11DCC, symSize: 0x20 }
  - { offsetInCU: 0x3EC2, offset: 0x2CDA0, size: 0x8, addend: 0x0, symName: __RNvXs_NtNtCs9xDkXAC1PNF_5alloc3vec16in_place_collectINtB6_3VecIBP_bEEINtNtB6_14spec_from_iter12SpecFromIterBY_INtNtNtNtCs2tD97QJu26F_4core4iter8adapters3map3MapINtNtB6_9into_iter8IntoIterBY_ENCNvNtCsaYfPqFfImBE_4dprs2dp14run_simulations_0EE9from_iterB39_, symObjAddr: 0x1648, symBinAddr: 0x11EA0, symSize: 0x28 }
  - { offsetInCU: 0x3F1E, offset: 0x2CDFC, size: 0x8, addend: 0x0, symName: __RNvXs_NtNtCs9xDkXAC1PNF_5alloc3vec16in_place_collectINtB6_3VecIBP_bEEINtNtB6_14spec_from_iter12SpecFromIterBY_INtNtNtNtCs2tD97QJu26F_4core4iter8adapters3map3MapINtNtB6_9into_iter8IntoIterBY_ENCNvNtCsaYfPqFfImBE_4dprs4life14run_simulations_0EE9from_iterB39_, symObjAddr: 0x1670, symBinAddr: 0x11EC8, symSize: 0x28 }
  - { offsetInCU: 0x3F86, offset: 0x2CE64, size: 0x8, addend: 0x0, symName: __RNvXs_NtNtCs9xDkXAC1PNF_5alloc3vec21spec_from_iter_nestedINtB6_3VecbEINtB4_18SpecFromIterNestedbINtNtNtNtCs2tD97QJu26F_4core4iter8adapters3map3MapINtNtNtB1F_3ops5range5RangejENCINvMNtNtCsaYfPqFfImBE_4dprs2dp8model_2dINtB2T_14LatticeModel2DNtNtB2V_11dp_model_2d7DPModelE21next_iteration_serialNtNtNtCseSFJDzX8FyV_4rand4rngs6thread9ThreadRngE0EE9from_iterB2X_, symObjAddr: 0x1698, symBinAddr: 0x11EF0, symSize: 0x13C }
  - { offsetInCU: 0x4048, offset: 0x2CF26, size: 0x8, addend: 0x0, symName: __RNvXs_NtNtCs9xDkXAC1PNF_5alloc3vec21spec_from_iter_nestedINtB6_3VecbEINtB4_18SpecFromIterNestedbINtNtNtNtCs2tD97QJu26F_4core4iter8adapters3map3MapINtNtNtB1F_3ops5range5RangejENCINvMNtNtCsaYfPqFfImBE_4dprs2dp8model_2dINtB2T_14LatticeModel2DNtNtB2V_11dp_model_2d7DPModelE9randomizeNtNtNtCseSFJDzX8FyV_4rand4rngs6thread9ThreadRngE0EE9from_iterB2X_, symObjAddr: 0x17D4, symBinAddr: 0x1202C, symSize: 0x130 }
  - { offsetInCU: 0x410A, offset: 0x2CFE8, size: 0x8, addend: 0x0, symName: __RNvXs_NtNtCs9xDkXAC1PNF_5alloc3vec21spec_from_iter_nestedINtB6_3VecbEINtB4_18SpecFromIterNestedbINtNtNtNtCs2tD97QJu26F_4core4iter8adapters3map3MapINtNtNtB1F_3ops5range5RangejENCINvMNtNtCsaYfPqFfImBE_4dprs4life8model_2dINtB2T_14LatticeModel2DNtNtB2V_10life_model9LifeModelE9randomizeNtNtNtCseSFJDzX8FyV_4rand4rngs6thread9ThreadRngE0EE9from_iterB2X_, symObjAddr: 0x1904, symBinAddr: 0x1215C, symSize: 0x130 }
  - { offsetInCU: 0x41CC, offset: 0x2D0AA, size: 0x8, addend: 0x0, symName: __RNvXs_NtNtCs9xDkXAC1PNF_5alloc3vec21spec_from_iter_nestedINtB6_3VecbEINtB4_18SpecFromIterNestedbINtNtNtNtCs2tD97QJu26F_4core4iter8adapters3map3MapINtNtNtB1F_3ops5range5RangejENCNvMNtNtCsaYfPqFfImBE_4dprs4life8model_2dINtB2S_14LatticeModel2DNtNtB2U_10life_model9LifeModelE21next_iteration_serial0EE9from_iterB2W_, symObjAddr: 0x1A34, symBinAddr: 0x1228C, symSize: 0x130 }
  - { offsetInCU: 0x4295, offset: 0x2D173, size: 0x8, addend: 0x0, symName: __RNvXsa_NtCs9xDkXAC1PNF_5alloc3vecINtB5_3VecbENtNtCs2tD97QJu26F_4core5clone5Clone5cloneCsaYfPqFfImBE_4dprs, symObjAddr: 0x1B64, symBinAddr: 0x123BC, symSize: 0x4C }
  - { offsetInCU: 0x4403, offset: 0x2D2E1, size: 0x8, addend: 0x0, symName: __RNvXsc_NtCs9xDkXAC1PNF_5alloc3vecINtB5_3VecbEINtNtNtCs2tD97QJu26F_4core3ops5index5IndexjE5indexCsaYfPqFfImBE_4dprs, symObjAddr: 0x1BB0, symBinAddr: 0x12408, symSize: 0x44 }
  - { offsetInCU: 0x4522, offset: 0x2D400, size: 0x8, addend: 0x0, symName: __RNvXsd_NtCs9xDkXAC1PNF_5alloc3vecINtB5_3VecbEINtNtNtCs2tD97QJu26F_4core3ops5index8IndexMutjE9index_mutCsaYfPqFfImBE_4dprs, symObjAddr: 0x1BF4, symBinAddr: 0x1244C, symSize: 0x44 }
  - { offsetInCU: 0x4641, offset: 0x2D51F, size: 0x8, addend: 0x0, symName: __RNvXsf_NtCs9xDkXAC1PNF_5alloc3vecINtB5_3VecIBw_bEENtNtNtNtCs2tD97QJu26F_4core4iter6traits7collect12IntoIterator9into_iterCsaYfPqFfImBE_4dprs, symObjAddr: 0x1C38, symBinAddr: 0x12490, symSize: 0xAC }
  - { offsetInCU: 0x4838, offset: 0x2D716, size: 0x8, addend: 0x0, symName: __RNvXsf_NtCs9xDkXAC1PNF_5alloc3vecINtB5_3VecbENtNtNtNtCs2tD97QJu26F_4core4iter6traits7collect12IntoIterator9into_iterCsaYfPqFfImBE_4dprs, symObjAddr: 0x1CE4, symBinAddr: 0x1253C, symSize: 0xA4 }
  - { offsetInCU: 0x4A35, offset: 0x2D913, size: 0x8, addend: 0x0, symName: __RNvXsp_NtCs9xDkXAC1PNF_5alloc3vecINtB5_3VecbENtNtCs2tD97QJu26F_4core7default7Default7defaultCsaYfPqFfImBE_4dprs, symObjAddr: 0x1FA4, symBinAddr: 0x127FC, symSize: 0x14 }
  - { offsetInCU: 0x4A57, offset: 0x2D935, size: 0x8, addend: 0x0, symName: __RNvXsp_NtCs9xDkXAC1PNF_5alloc3vecINtB5_3VecbENtNtCs2tD97QJu26F_4core7default7Default7defaultCsaYfPqFfImBE_4dprs, symObjAddr: 0x1FA4, symBinAddr: 0x127FC, symSize: 0x14 }
  - { offsetInCU: 0x512F, offset: 0x2E00D, size: 0x8, addend: 0x0, symName: __RINvMsj_NtCs9xDkXAC1PNF_5alloc3vecINtB6_3VecbE14extend_trustedINtNtNtNtCs2tD97QJu26F_4core4iter8adapters3map3MapINtNtNtB17_3ops5range5RangejENCINvMNtNtCsaYfPqFfImBE_4dprs2dp8model_2dINtB2l_14LatticeModel2DNtNtB2n_11dp_model_2d7DPModelE21next_iteration_serialNtNtNtCseSFJDzX8FyV_4rand4rngs6thread9ThreadRngE0EEB2p_, symObjAddr: 0x0, symBinAddr: 0x10858, symSize: 0x150 }
  - { offsetInCU: 0x5332, offset: 0x2E210, size: 0x8, addend: 0x0, symName: __RINvMsj_NtCs9xDkXAC1PNF_5alloc3vecINtB6_3VecbE14extend_trustedINtNtNtNtCs2tD97QJu26F_4core4iter8adapters3map3MapINtNtNtB17_3ops5range5RangejENCINvMNtNtCsaYfPqFfImBE_4dprs2dp8model_2dINtB2l_14LatticeModel2DNtNtB2n_11dp_model_2d7DPModelE9randomizeNtNtNtCseSFJDzX8FyV_4rand4rngs6thread9ThreadRngE0EEB2p_, symObjAddr: 0x150, symBinAddr: 0x109A8, symSize: 0x130 }
  - { offsetInCU: 0x5533, offset: 0x2E411, size: 0x8, addend: 0x0, symName: __RINvMsj_NtCs9xDkXAC1PNF_5alloc3vecINtB6_3VecbE14extend_trustedINtNtNtNtCs2tD97QJu26F_4core4iter8adapters3map3MapINtNtNtB17_3ops5range5RangejENCINvMNtNtCsaYfPqFfImBE_4dprs4life8model_2dINtB2l_14LatticeModel2DNtNtB2n_10life_model9LifeModelE9randomizeNtNtNtCseSFJDzX8FyV_4rand4rngs6thread9ThreadRngE0EEB2p_, symObjAddr: 0x280, symBinAddr: 0x10AD8, symSize: 0x130 }
  - { offsetInCU: 0x5734, offset: 0x2E612, size: 0x8, addend: 0x0, symName: __RINvMsj_NtCs9xDkXAC1PNF_5alloc3vecINtB6_3VecbE14extend_trustedINtNtNtNtCs2tD97QJu26F_4core4iter8adapters3map3MapINtNtNtB17_3ops5range5RangejENCNvMNtNtCsaYfPqFfImBE_4dprs4life8model_2dINtB2k_14LatticeModel2DNtNtB2m_10life_model9LifeModelE21next_iteration_serial0EEB2o_, symObjAddr: 0x3B0, symBinAddr: 0x10C08, symSize: 0x130 }
  - { offsetInCU: 0x5935, offset: 0x2E813, size: 0x8, addend: 0x0, symName: __RINvMsj_NtCs9xDkXAC1PNF_5alloc3vecINtB6_3VecbE14extend_trustedINtNtNtNtCs2tD97QJu26F_4core4iter8adapters3map3MapINtNtNtB17_3ops5range5RangejERNCNvMNtNtCsaYfPqFfImBE_4dprs4life8model_2dINtB2l_14LatticeModel2DNtNtB2n_10life_model9LifeModelE23next_iteration_parallel0EEB2p_, symObjAddr: 0x4E0, symBinAddr: 0x10D38, symSize: 0x130 }
  - { offsetInCU: 0x5AAB, offset: 0x2E989, size: 0x8, addend: 0x0, symName: __RINvXNtNtCslkboY0IC5z6_5rayon4iter13from_par_iterINtNtCs9xDkXAC1PNF_5alloc3vec3VecbEINtB5_20FromParallelIteratorbE13from_par_iterINtNtB5_3map3MapINtNtB7_5range4IterjENCNvMNtNtCsaYfPqFfImBE_4dprs4life8model_2dINtB2J_14LatticeModel2DNtNtB2L_10life_model9LifeModelE23next_iteration_parallel0EEB2N_, symObjAddr: 0x634, symBinAddr: 0x10E8C, symSize: 0x34 }
  - { offsetInCU: 0x5AF6, offset: 0x2E9D4, size: 0x8, addend: 0x0, symName: __RINvXsv_NtNtCslkboY0IC5z6_5rayon4iter6extendINtNtCs9xDkXAC1PNF_5alloc3vec3VecbEINtB8_14ParallelExtendbE10par_extendINtNtB8_3map3MapINtNtBa_5range4IterjENCNvMNtNtCsaYfPqFfImBE_4dprs4life8model_2dINtB2v_14LatticeModel2DNtNtB2x_10life_model9LifeModelE23next_iteration_parallel0EEB2z_, symObjAddr: 0x7E0, symBinAddr: 0x11038, symSize: 0x268 }
  - { offsetInCU: 0x5C2C, offset: 0x2EB0A, size: 0x8, addend: 0x0, symName: __RINvYINtNtCs9xDkXAC1PNF_5alloc3vec3VecbENtNtCsF7gmULBm3O_4pyo310conversion12IntoPyObject28owned_sequence_into_pyobjectIB4_B3_EECsaYfPqFfImBE_4dprs, symObjAddr: 0xA48, symBinAddr: 0x112A0, symSize: 0xDC }
  - { offsetInCU: 0x5CE2, offset: 0x2EBC0, size: 0x8, addend: 0x0, symName: __RNvYINtNtCs9xDkXAC1PNF_5alloc3vec3VecIB3_bEENtNtCsF7gmULBm3O_4pyo310conversion15IntoPyObjectExt17into_bound_py_anyCsaYfPqFfImBE_4dprs, symObjAddr: 0x1FB8, symBinAddr: 0x12810, symSize: 0xE0 }
  - { offsetInCU: 0x5D6F, offset: 0x2EC4D, size: 0x8, addend: 0x0, symName: __RNvYINtNtCs9xDkXAC1PNF_5alloc3vec3VecbENtNtCsF7gmULBm3O_4pyo310conversion15IntoPyObjectExt17into_bound_py_anyCsaYfPqFfImBE_4dprs, symObjAddr: 0x2098, symBinAddr: 0x128F0, symSize: 0xE0 }
  - { offsetInCU: 0x5DFC, offset: 0x2ECDA, size: 0x8, addend: 0x0, symName: __RNvYTjINtNtCs9xDkXAC1PNF_5alloc3vec3VecIB5_bEEENtNtCsF7gmULBm3O_4pyo310conversion15IntoPyObjectExt17into_bound_py_anyCsaYfPqFfImBE_4dprs, symObjAddr: 0x2178, symBinAddr: 0x129D0, symSize: 0xF0 }
  - { offsetInCU: 0x5EAD, offset: 0x2ED8B, size: 0x8, addend: 0x0, symName: __RNvXNtNtNtCsF7gmULBm3O_4pyo311conversions3std3vecINtNtCs9xDkXAC1PNF_5alloc3vec3VecIBM_bEENtNtB8_10conversion12IntoPyObject13into_pyobjectCsaYfPqFfImBE_4dprs, symObjAddr: 0x1438, symBinAddr: 0x11C90, symSize: 0x34 }
  - { offsetInCU: 0x5EFC, offset: 0x2EDDA, size: 0x8, addend: 0x0, symName: __RNvXNtNtNtCsF7gmULBm3O_4pyo311conversions3std3vecINtNtCs9xDkXAC1PNF_5alloc3vec3VecbENtNtB8_10conversion12IntoPyObject13into_pyobjectCsaYfPqFfImBE_4dprs, symObjAddr: 0x146C, symBinAddr: 0x11CC4, symSize: 0x34 }
  - { offsetInCU: 0x5F5E, offset: 0x2EE3C, size: 0x8, addend: 0x0, symName: __RNvXsn_NtNtCsF7gmULBm3O_4pyo35types5tupleTjINtNtCs9xDkXAC1PNF_5alloc3vec3VecIBG_bEEENtNtB9_10conversion12IntoPyObject13into_pyobjectCsaYfPqFfImBE_4dprs, symObjAddr: 0x1D88, symBinAddr: 0x125E0, symSize: 0x21C }
  - { offsetInCU: 0x6351, offset: 0x2F22F, size: 0x8, addend: 0x0, symName: __RNvMNtCs9xDkXAC1PNF_5alloc3vecINtB2_3VecIBt_bEE3newCsaYfPqFfImBE_4dprs, symObjAddr: 0xC14, symBinAddr: 0x1146C, symSize: 0x14 }
  - { offsetInCU: 0x6395, offset: 0x2F273, size: 0x8, addend: 0x0, symName: __RNvMNtCs9xDkXAC1PNF_5alloc3vecINtB2_3VecReE3newCsaYfPqFfImBE_4dprs, symObjAddr: 0xC28, symBinAddr: 0x11480, symSize: 0x14 }
  - { offsetInCU: 0x63B2, offset: 0x2F290, size: 0x8, addend: 0x0, symName: __RNvMNtCs9xDkXAC1PNF_5alloc3vecINtB2_3VecbE3newCsaYfPqFfImBE_4dprs, symObjAddr: 0xC3C, symBinAddr: 0x11494, symSize: 0x14 }
  - { offsetInCU: 0x64C3, offset: 0x2F3A1, size: 0x8, addend: 0x0, symName: __RNvMs1_NtCs9xDkXAC1PNF_5alloc3vecINtB5_3VecbE17extend_from_sliceCsaYfPqFfImBE_4dprs, symObjAddr: 0xC50, symBinAddr: 0x114A8, symSize: 0x6C }
  - { offsetInCU: 0x6709, offset: 0x2F5E7, size: 0x8, addend: 0x0, symName: __RNvMs3_NtCs9xDkXAC1PNF_5alloc3vecINtB5_3VecbE11extend_withCsaYfPqFfImBE_4dprs, symObjAddr: 0xCBC, symBinAddr: 0x11514, symSize: 0x1F0 }
  - { offsetInCU: 0x69C1, offset: 0x2F89F, size: 0x8, addend: 0x0, symName: __RNvMsF_NtCs9xDkXAC1PNF_5alloc3vecINtB5_3VecIBw_bEE4pushCsaYfPqFfImBE_4dprs, symObjAddr: 0xEAC, symBinAddr: 0x11704, symSize: 0x24 }
  - { offsetInCU: 0x6B0D, offset: 0x2F9EB, size: 0x8, addend: 0x0, symName: __RNvMsF_NtCs9xDkXAC1PNF_5alloc3vecINtB5_3VecIBw_bEE8push_mutCsaYfPqFfImBE_4dprs, symObjAddr: 0xED0, symBinAddr: 0x11728, symSize: 0xF4 }
  - { offsetInCU: 0x6C9F, offset: 0x2FB7D, size: 0x8, addend: 0x0, symName: __RNvMsF_NtCs9xDkXAC1PNF_5alloc3vecINtB5_3VecReE4pushCsaYfPqFfImBE_4dprs, symObjAddr: 0xFC4, symBinAddr: 0x1181C, symSize: 0x30 }
  - { offsetInCU: 0x6DF7, offset: 0x2FCD5, size: 0x8, addend: 0x0, symName: __RNvMsF_NtCs9xDkXAC1PNF_5alloc3vecINtB5_3VecReE8push_mutCsaYfPqFfImBE_4dprs, symObjAddr: 0xFF4, symBinAddr: 0x1184C, symSize: 0xE0 }
  - { offsetInCU: 0x6F87, offset: 0x2FE65, size: 0x8, addend: 0x0, symName: __RNvMs_NtCs9xDkXAC1PNF_5alloc3vecINtB4_3VecIBv_bEE3lenCsaYfPqFfImBE_4dprs, symObjAddr: 0x10D4, symBinAddr: 0x1192C, symSize: 0x18 }
  - { offsetInCU: 0x7007, offset: 0x2FEE5, size: 0x8, addend: 0x0, symName: __RNvMs_NtCs9xDkXAC1PNF_5alloc3vecINtB4_3VecbE10as_mut_ptrCsaYfPqFfImBE_4dprs, symObjAddr: 0x10EC, symBinAddr: 0x11944, symSize: 0x18 }
  - { offsetInCU: 0x7122, offset: 0x30000, size: 0x8, addend: 0x0, symName: __RNvMs_NtCs9xDkXAC1PNF_5alloc3vecINtB4_3VecbE15append_elementsCsaYfPqFfImBE_4dprs, symObjAddr: 0x1104, symBinAddr: 0x1195C, symSize: 0xE0 }
  - { offsetInCU: 0x72B4, offset: 0x30192, size: 0x8, addend: 0x0, symName: __RNvMs_NtCs9xDkXAC1PNF_5alloc3vecINtB4_3VecbE3lenCsaYfPqFfImBE_4dprs, symObjAddr: 0x11E4, symBinAddr: 0x11A3C, symSize: 0x18 }
  - { offsetInCU: 0x7435, offset: 0x30313, size: 0x8, addend: 0x0, symName: __RNvMs_NtCs9xDkXAC1PNF_5alloc3vecINtB4_3VecbE6appendCsaYfPqFfImBE_4dprs, symObjAddr: 0x11FC, symBinAddr: 0x11A54, symSize: 0x84 }
  - { offsetInCU: 0x769C, offset: 0x3057A, size: 0x8, addend: 0x0, symName: __RNvMs_NtCs9xDkXAC1PNF_5alloc3vecINtB4_3VecbE7reserveCsaYfPqFfImBE_4dprs, symObjAddr: 0x1280, symBinAddr: 0x11AD8, symSize: 0xA0 }
  - { offsetInCU: 0x786F, offset: 0x3074D, size: 0x8, addend: 0x0, symName: __RNvMs_NtCs9xDkXAC1PNF_5alloc3vecINtB4_3VecbE7set_lenCsaYfPqFfImBE_4dprs, symObjAddr: 0x1320, symBinAddr: 0x11B78, symSize: 0x70 }
  - { offsetInCU: 0x796B, offset: 0x30849, size: 0x8, addend: 0x0, symName: __RNvMs_NtCs9xDkXAC1PNF_5alloc3vecINtB4_3VecbE8capacityCsaYfPqFfImBE_4dprs, symObjAddr: 0x1390, symBinAddr: 0x11BE8, symSize: 0x38 }
  - { offsetInCU: 0x7A1F, offset: 0x308FD, size: 0x8, addend: 0x0, symName: __RNvMs_NtCs9xDkXAC1PNF_5alloc3vecINtB4_3VecbE8is_emptyCsaYfPqFfImBE_4dprs, symObjAddr: 0x13C8, symBinAddr: 0x11C20, symSize: 0x20 }
  - { offsetInCU: 0x1E, offset: 0x318D1, size: 0x8, addend: 0x0, symName: _PyInit_sim, symObjAddr: 0x0, symBinAddr: 0x12AC0, symSize: 0x34 }
  - { offsetInCU: 0x47, offset: 0x318FA, size: 0x8, addend: 0x0, symName: __RNvNtNtCsaYfPqFfImBE_4dprs3sim3sim9__PYO3_DEF, symObjAddr: 0xCF8, symBinAddr: 0x14C870, symSize: 0x0 }
  - { offsetInCU: 0x66, offset: 0x31919, size: 0x8, addend: 0x0, symName: __RNvNvNtNtCsaYfPqFfImBE_4dprs3sim3sim9__PYO3_DEF5SLOTS, symObjAddr: 0xD78, symBinAddr: 0x14C8F0, symSize: 0x0 }
  - { offsetInCU: 0x73, offset: 0x31926, size: 0x8, addend: 0x0, symName: __RNvNvNtNtCsaYfPqFfImBE_4dprs3sim3sim9__PYO3_DEF18___pyo3_module_exec, symObjAddr: 0xA9C, symBinAddr: 0x1355C, symSize: 0x3C }
  - { offsetInCU: 0xA0, offset: 0x31953, size: 0x8, addend: 0x0, symName: _PyInit_sim, symObjAddr: 0x0, symBinAddr: 0x12AC0, symSize: 0x34 }
  - { offsetInCU: 0xBD, offset: 0x31970, size: 0x8, addend: 0x0, symName: __RNvNtNtCsaYfPqFfImBE_4dprs3sim3sim15___pyfunction_dp, symObjAddr: 0x34, symBinAddr: 0x12AF4, symSize: 0x310 }
  - { offsetInCU: 0x236, offset: 0x31AE9, size: 0x8, addend: 0x0, symName: __RNvNtNtCsaYfPqFfImBE_4dprs3sim3sim15___pyo3_pymodule, symObjAddr: 0x344, symBinAddr: 0x12E04, symSize: 0x328 }
  - { offsetInCU: 0x317, offset: 0x31BCA, size: 0x8, addend: 0x0, symName: __RNvNtNtCsaYfPqFfImBE_4dprs3sim3sim17___pyfunction_life, symObjAddr: 0x66C, symBinAddr: 0x1312C, symSize: 0x310 }
  - { offsetInCU: 0x490, offset: 0x31D43, size: 0x8, addend: 0x0, symName: __RNvNtNtCsaYfPqFfImBE_4dprs3sim3sim2dp, symObjAddr: 0x97C, symBinAddr: 0x1343C, symSize: 0x90 }
  - { offsetInCU: 0x4E9, offset: 0x31D9C, size: 0x8, addend: 0x0, symName: __RNvNtNtCsaYfPqFfImBE_4dprs3sim3sim4life, symObjAddr: 0xA0C, symBinAddr: 0x134CC, symSize: 0x90 }
  - { offsetInCU: 0x1E, offset: 0x34952, size: 0x8, addend: 0x0, symName: __RINvNtNtCsF7gmULBm3O_4pyo35impl_12frompyobject20extract_struct_fieldNtNtCsaYfPqFfImBE_4dprs10parameters10ProcessingEB18_, symObjAddr: 0x0, symBinAddr: 0x13598, symSize: 0x144 }
  - { offsetInCU: 0x19A1, offset: 0x362D5, size: 0x8, addend: 0x0, symName: __RINvNtNtCsF7gmULBm3O_4pyo35impl_12frompyobject20extract_struct_fieldNtNtCsaYfPqFfImBE_4dprs10parameters10ProcessingEB18_, symObjAddr: 0x0, symBinAddr: 0x13598, symSize: 0x144 }
  - { offsetInCU: 0x1A27, offset: 0x3635B, size: 0x8, addend: 0x0, symName: __RINvNtNtCsF7gmULBm3O_4pyo35impl_12frompyobject20extract_struct_fieldNtNtCsaYfPqFfImBE_4dprs10parameters8TopologyEB18_, symObjAddr: 0x144, symBinAddr: 0x136DC, symSize: 0x144 }
  - { offsetInCU: 0x1AAD, offset: 0x363E1, size: 0x8, addend: 0x0, symName: __RINvNtNtCsF7gmULBm3O_4pyo35impl_12frompyobject20extract_struct_fieldNtNtCsaYfPqFfImBE_4dprs10parameters9DimensionEB18_, symObjAddr: 0x288, symBinAddr: 0x13820, symSize: 0x144 }
  - { offsetInCU: 0x1B33, offset: 0x36467, size: 0x8, addend: 0x0, symName: __RINvNtNtCsF7gmULBm3O_4pyo35impl_12frompyobject20extract_struct_fieldTNtNtCsaYfPqFfImBE_4dprs10parameters17BoundaryConditionB15_EEB19_, symObjAddr: 0x3CC, symBinAddr: 0x13964, symSize: 0x16C }
  - { offsetInCU: 0x1BB9, offset: 0x364ED, size: 0x8, addend: 0x0, symName: __RINvNtNtCsF7gmULBm3O_4pyo35impl_12frompyobject20extract_struct_fieldTbbEECsaYfPqFfImBE_4dprs, symObjAddr: 0x538, symBinAddr: 0x13AD0, symSize: 0x180 }
  - { offsetInCU: 0x1C3F, offset: 0x36573, size: 0x8, addend: 0x0, symName: __RINvNtNtCsF7gmULBm3O_4pyo35impl_12frompyobject20extract_struct_fieldbECsaYfPqFfImBE_4dprs, symObjAddr: 0x6B8, symBinAddr: 0x13C50, symSize: 0x16C }
  - { offsetInCU: 0x1CC5, offset: 0x365F9, size: 0x8, addend: 0x0, symName: __RINvNtNtCsF7gmULBm3O_4pyo35impl_12frompyobject20extract_struct_fielddECsaYfPqFfImBE_4dprs, symObjAddr: 0x824, symBinAddr: 0x13DBC, symSize: 0x160 }
  - { offsetInCU: 0x1D4B, offset: 0x3667F, size: 0x8, addend: 0x0, symName: __RINvNtNtCsF7gmULBm3O_4pyo35impl_12frompyobject20extract_struct_fieldjECsaYfPqFfImBE_4dprs, symObjAddr: 0x984, symBinAddr: 0x13F1C, symSize: 0x160 }
  - { offsetInCU: 0x1E, offset: 0x370BB, size: 0x8, addend: 0x0, symName: __RINvXsK_NtNtNtCs2tD97QJu26F_4core4iter6traits5accumjNtB6_3Sum3sumINtNtNtBa_8adapters3map3MapINtNtNtBc_5slice4iter4IterbENCNvXNtNtCsaYfPqFfImBE_4dprs2dp11dp_model_2dNtB1Z_7DPModelNtNtB21_8model_2d7Model2D11cell_update0EEB23_, symObjAddr: 0x0, symBinAddr: 0x1407C, symSize: 0x30 }
  - { offsetInCU: 0x44, offset: 0x370E1, size: 0x8, addend: 0x0, symName: __RINvXsK_NtNtNtCs2tD97QJu26F_4core4iter6traits5accumjNtB6_3Sum3sumINtNtNtBa_8adapters3map3MapINtNtNtBc_5slice4iter4IterbENCNvXNtNtCsaYfPqFfImBE_4dprs2dp11dp_model_2dNtB1Z_7DPModelNtNtB21_8model_2d7Model2D11cell_update0EEB23_, symObjAddr: 0x0, symBinAddr: 0x1407C, symSize: 0x30 }
  - { offsetInCU: 0x79, offset: 0x37116, size: 0x8, addend: 0x0, symName: __RINvXsK_NtNtNtCs2tD97QJu26F_4core4iter6traits5accumjNtB6_3Sum3sumINtNtNtBa_8adapters3map3MapINtNtNtBc_5slice4iter4IterbENCNvXNtNtCsaYfPqFfImBE_4dprs4life10life_modelNtB1Z_9LifeModelNtNtB21_8model_2d7Model2D9next_cell0EEB23_, symObjAddr: 0x30, symBinAddr: 0x140AC, symSize: 0x30 }
  - { offsetInCU: 0xAE, offset: 0x3714B, size: 0x8, addend: 0x0, symName: __RINvXsK_NtNtNtCs2tD97QJu26F_4core4iter6traits5accumjNtB6_3Sum3sumINtNtNtBa_8adapters3map3MapINtNtNtBc_5slice4iter4IterbENCNvXNtNtCsaYfPqFfImBE_4dprs4life10life_modelNtB1Z_9LifeModelNtNtB21_8model_2d7Model2D9next_cells_0EEB23_, symObjAddr: 0x60, symBinAddr: 0x140DC, symSize: 0x30 }
  - { offsetInCU: 0xE3, offset: 0x37180, size: 0x8, addend: 0x0, symName: __RINvXsK_NtNtNtCs2tD97QJu26F_4core4iter6traits5accumjNtB6_3Sum3sumINtNtNtBa_8adapters3map3MapINtNtNtCs9xDkXAC1PNF_5alloc11collections11linked_list4IterINtNtB1z_3vec3VecbEENvMs_B2r_B2o_3lenEECsaYfPqFfImBE_4dprs, symObjAddr: 0x90, symBinAddr: 0x1410C, symSize: 0x18 }
  - { offsetInCU: 0x11E, offset: 0x371BB, size: 0x8, addend: 0x0, symName: __RNCINvXsK_NtNtNtCs2tD97QJu26F_4core4iter6traits5accumjNtB8_3Sum3sumINtNtNtBc_8adapters3map3MapINtNtNtBe_5slice4iter4IterbENCNvXNtNtCsaYfPqFfImBE_4dprs2dp11dp_model_2dNtB21_7DPModelNtNtB23_8model_2d7Model2D11cell_update0EE0B25_, symObjAddr: 0xA8, symBinAddr: 0x14124, symSize: 0x48 }
  - { offsetInCU: 0x16B, offset: 0x37208, size: 0x8, addend: 0x0, symName: __RNCINvXsK_NtNtNtCs2tD97QJu26F_4core4iter6traits5accumjNtB8_3Sum3sumINtNtNtBc_8adapters3map3MapINtNtNtBe_5slice4iter4IterbENCNvXNtNtCsaYfPqFfImBE_4dprs4life10life_modelNtB21_9LifeModelNtNtB23_8model_2d7Model2D9next_cell0EE0B25_, symObjAddr: 0xF0, symBinAddr: 0x1416C, symSize: 0x48 }
  - { offsetInCU: 0x1B8, offset: 0x37255, size: 0x8, addend: 0x0, symName: __RNCINvXsK_NtNtNtCs2tD97QJu26F_4core4iter6traits5accumjNtB8_3Sum3sumINtNtNtBc_8adapters3map3MapINtNtNtBe_5slice4iter4IterbENCNvXNtNtCsaYfPqFfImBE_4dprs4life10life_modelNtB21_9LifeModelNtNtB23_8model_2d7Model2D9next_cells_0EE0B25_, symObjAddr: 0x138, symBinAddr: 0x141B4, symSize: 0x48 }
  - { offsetInCU: 0x205, offset: 0x372A2, size: 0x8, addend: 0x0, symName: __RNCINvXsK_NtNtNtCs2tD97QJu26F_4core4iter6traits5accumjNtB8_3Sum3sumINtNtNtBc_8adapters3map3MapINtNtNtCs9xDkXAC1PNF_5alloc11collections11linked_list4IterINtNtB1B_3vec3VecbEENvMs_B2t_B2q_3lenEE0CsaYfPqFfImBE_4dprs, symObjAddr: 0x180, symBinAddr: 0x141FC, symSize: 0x48 }
  - { offsetInCU: 0x1E, offset: 0x377F6, size: 0x8, addend: 0x0, symName: __RINvMNtNtCs2tD97QJu26F_4core3fmt2rtNtB3_8Argument11new_displaybECsaYfPqFfImBE_4dprs, symObjAddr: 0x0, symBinAddr: 0x14244, symSize: 0x2C }
  - { offsetInCU: 0x416, offset: 0x37BEE, size: 0x8, addend: 0x0, symName: __RINvMNtNtCs2tD97QJu26F_4core3fmt2rtNtB3_8Argument11new_displaybECsaYfPqFfImBE_4dprs, symObjAddr: 0x0, symBinAddr: 0x14244, symSize: 0x2C }
  - { offsetInCU: 0x455, offset: 0x37C2D, size: 0x8, addend: 0x0, symName: __RINvMNtNtCs2tD97QJu26F_4core3fmt2rtNtB3_8Argument11new_displaydECsaYfPqFfImBE_4dprs, symObjAddr: 0x2C, symBinAddr: 0x14270, symSize: 0x2C }
  - { offsetInCU: 0x48D, offset: 0x37C65, size: 0x8, addend: 0x0, symName: __RINvMNtNtCs2tD97QJu26F_4core3fmt2rtNtB3_8Argument9new_debugNtNtCsaYfPqFfImBE_4dprs10parameters8TopologyEBZ_, symObjAddr: 0x58, symBinAddr: 0x1429C, symSize: 0x2C }
  - { offsetInCU: 0x4C5, offset: 0x37C9D, size: 0x8, addend: 0x0, symName: __RINvMNtNtCs2tD97QJu26F_4core3fmt2rtNtB3_8Argument9new_debugNtNtCsaYfPqFfImBE_4dprs10parameters9DimensionEBZ_, symObjAddr: 0x84, symBinAddr: 0x142C8, symSize: 0x2C }
  - { offsetInCU: 0x51B, offset: 0x37CF3, size: 0x8, addend: 0x0, symName: __RINvMNtNtCs2tD97QJu26F_4core3fmt2rtNtB3_8Argument9new_debugTNtNtCsaYfPqFfImBE_4dprs10parameters17BoundaryConditionBW_EEB10_, symObjAddr: 0xB0, symBinAddr: 0x142F4, symSize: 0x2C }
  - { offsetInCU: 0x571, offset: 0x37D49, size: 0x8, addend: 0x0, symName: __RINvMNtNtCs2tD97QJu26F_4core3fmt2rtNtB3_8Argument9new_debugTbbEECsaYfPqFfImBE_4dprs, symObjAddr: 0xDC, symBinAddr: 0x14320, symSize: 0x2C }
  - { offsetInCU: 0x5D2, offset: 0x37DAA, size: 0x8, addend: 0x0, symName: __RINvMNtNtCs2tD97QJu26F_4core3fmt2rtNtB3_8Argument9new_debugTjjjEECsaYfPqFfImBE_4dprs, symObjAddr: 0x108, symBinAddr: 0x1434C, symSize: 0x2C }
  - { offsetInCU: 0x5FD, offset: 0x37DD5, size: 0x8, addend: 0x0, symName: __RINvMNtNtCs2tD97QJu26F_4core3fmt2rtNtB3_8Argument9new_debugdECsaYfPqFfImBE_4dprs, symObjAddr: 0x134, symBinAddr: 0x14378, symSize: 0x2C }
  - { offsetInCU: 0x1E, offset: 0x37E1E, size: 0x8, addend: 0x0, symName: __RNvXsF_NtNtCs2tD97QJu26F_4core4iter5rangejNtB5_4Step17forward_uncheckedCsaYfPqFfImBE_4dprs, symObjAddr: 0x0, symBinAddr: 0x143A4, symSize: 0x50 }
  - { offsetInCU: 0x75, offset: 0x37E75, size: 0x8, addend: 0x0, symName: __RNvXsF_NtNtCs2tD97QJu26F_4core4iter5rangejNtB5_4Step17forward_uncheckedCsaYfPqFfImBE_4dprs, symObjAddr: 0x0, symBinAddr: 0x143A4, symSize: 0x50 }
  - { offsetInCU: 0x1E, offset: 0x37EFD, size: 0x8, addend: 0x0, symName: __RNCINvNvNtNtNtNtCs2tD97QJu26F_4core4iter6traits8iterator8Iterator8for_each4callTjQSbERNCNvMNtNtCsaYfPqFfImBE_4dprs4life8model_2dINtB1r_14LatticeModel2DNtNtB1t_10life_model9LifeModelE31next_iteration_parallel_chunked0E0B1v_, symObjAddr: 0x0, symBinAddr: 0x143F4, symSize: 0x3C }
  - { offsetInCU: 0x4E, offset: 0x37F2D, size: 0x8, addend: 0x0, symName: __RNCINvNvNtNtNtNtCs2tD97QJu26F_4core4iter6traits8iterator8Iterator8for_each4callTjQSbERNCNvMNtNtCsaYfPqFfImBE_4dprs4life8model_2dINtB1r_14LatticeModel2DNtNtB1t_10life_model9LifeModelE31next_iteration_parallel_chunked0E0B1v_, symObjAddr: 0x0, symBinAddr: 0x143F4, symSize: 0x3C }
  - { offsetInCU: 0xA7, offset: 0x37F86, size: 0x8, addend: 0x0, symName: __RNCINvNvNtNtNtNtCs2tD97QJu26F_4core4iter6traits8iterator8Iterator8for_each4callbNCINvMsj_NtCs9xDkXAC1PNF_5alloc3vecINtB1p_3VecbE14extend_trustedINtNtNtBc_8adapters3map3MapINtNtNtBe_3ops5range5RangejENCINvMNtNtCsaYfPqFfImBE_4dprs2dp8model_2dINtB3h_14LatticeModel2DNtNtB3j_11dp_model_2d7DPModelE21next_iteration_serialNtNtNtCseSFJDzX8FyV_4rand4rngs6thread9ThreadRngE0EE0E0B3l_, symObjAddr: 0x3C, symBinAddr: 0x14430, symSize: 0x28 }
  - { offsetInCU: 0xFF, offset: 0x37FDE, size: 0x8, addend: 0x0, symName: __RNCINvNvNtNtNtNtCs2tD97QJu26F_4core4iter6traits8iterator8Iterator8for_each4callbNCINvMsj_NtCs9xDkXAC1PNF_5alloc3vecINtB1p_3VecbE14extend_trustedINtNtNtBc_8adapters3map3MapINtNtNtBe_3ops5range5RangejENCINvMNtNtCsaYfPqFfImBE_4dprs2dp8model_2dINtB3h_14LatticeModel2DNtNtB3j_11dp_model_2d7DPModelE9randomizeNtNtNtCseSFJDzX8FyV_4rand4rngs6thread9ThreadRngE0EE0E0B3l_, symObjAddr: 0x64, symBinAddr: 0x14458, symSize: 0x28 }
  - { offsetInCU: 0x157, offset: 0x38036, size: 0x8, addend: 0x0, symName: __RNCINvNvNtNtNtNtCs2tD97QJu26F_4core4iter6traits8iterator8Iterator8for_each4callbNCINvMsj_NtCs9xDkXAC1PNF_5alloc3vecINtB1p_3VecbE14extend_trustedINtNtNtBc_8adapters3map3MapINtNtNtBe_3ops5range5RangejENCINvMNtNtCsaYfPqFfImBE_4dprs4life8model_2dINtB3h_14LatticeModel2DNtNtB3j_10life_model9LifeModelE9randomizeNtNtNtCseSFJDzX8FyV_4rand4rngs6thread9ThreadRngE0EE0E0B3l_, symObjAddr: 0x8C, symBinAddr: 0x14480, symSize: 0x28 }
  - { offsetInCU: 0x1AF, offset: 0x3808E, size: 0x8, addend: 0x0, symName: __RNCINvNvNtNtNtNtCs2tD97QJu26F_4core4iter6traits8iterator8Iterator8for_each4callbNCINvMsj_NtCs9xDkXAC1PNF_5alloc3vecINtB1p_3VecbE14extend_trustedINtNtNtBc_8adapters3map3MapINtNtNtBe_3ops5range5RangejENCNvMNtNtCsaYfPqFfImBE_4dprs4life8model_2dINtB3g_14LatticeModel2DNtNtB3i_10life_model9LifeModelE21next_iteration_serial0EE0E0B3k_, symObjAddr: 0xB4, symBinAddr: 0x144A8, symSize: 0x28 }
  - { offsetInCU: 0x207, offset: 0x380E6, size: 0x8, addend: 0x0, symName: __RNCINvNvNtNtNtNtCs2tD97QJu26F_4core4iter6traits8iterator8Iterator8for_each4callbNCINvMsj_NtCs9xDkXAC1PNF_5alloc3vecINtB1p_3VecbE14extend_trustedINtNtNtBc_8adapters3map3MapINtNtNtBe_3ops5range5RangejERNCNvMNtNtCsaYfPqFfImBE_4dprs4life8model_2dINtB3h_14LatticeModel2DNtNtB3j_10life_model9LifeModelE23next_iteration_parallel0EE0E0B3l_, symObjAddr: 0xDC, symBinAddr: 0x144D0, symSize: 0x28 }
  - { offsetInCU: 0x1E, offset: 0x384B0, size: 0x8, addend: 0x0, symName: __RNvMNtNtCsF7gmULBm3O_4pyo35impl_5panicNtB2_9PanicTrap3newCsaYfPqFfImBE_4dprs, symObjAddr: 0x0, symBinAddr: 0x144F8, symSize: 0x18 }
  - { offsetInCU: 0xAD, offset: 0x3853F, size: 0x8, addend: 0x0, symName: __RNvMNtNtCsF7gmULBm3O_4pyo35impl_5panicNtB2_9PanicTrap3newCsaYfPqFfImBE_4dprs, symObjAddr: 0x0, symBinAddr: 0x144F8, symSize: 0x18 }
  - { offsetInCU: 0xCF, offset: 0x38561, size: 0x8, addend: 0x0, symName: __RNvMNtNtCsF7gmULBm3O_4pyo35impl_5panicNtB2_9PanicTrap6disarmCsaYfPqFfImBE_4dprs, symObjAddr: 0x18, symBinAddr: 0x14510, symSize: 0x28 }
  - { offsetInCU: 0x1E, offset: 0x385A1, size: 0x8, addend: 0x0, symName: __RINvYNtNtNtCseSFJDzX8FyV_4rand4rngs6thread9ThreadRngNtNtB9_3rng6RngExt6randomyECsaYfPqFfImBE_4dprs, symObjAddr: 0x0, symBinAddr: 0x14538, symSize: 0x30 }
  - { offsetInCU: 0x3A, offset: 0x385BD, size: 0x8, addend: 0x0, symName: __RINvYNtNtNtCseSFJDzX8FyV_4rand4rngs6thread9ThreadRngNtNtB9_3rng6RngExt6randomyECsaYfPqFfImBE_4dprs, symObjAddr: 0x0, symBinAddr: 0x14538, symSize: 0x30 }
  - { offsetInCU: 0x78, offset: 0x385FB, size: 0x8, addend: 0x0, symName: __RINvYNtNtNtCseSFJDzX8FyV_4rand4rngs6thread9ThreadRngNtNtB9_3rng6RngExt6samplebNtNtB9_5distr15StandardUniformECsaYfPqFfImBE_4dprs, symObjAddr: 0x30, symBinAddr: 0x14568, symSize: 0x50 }
  - { offsetInCU: 0xCD, offset: 0x38650, size: 0x8, addend: 0x0, symName: __RINvYNtNtNtCseSFJDzX8FyV_4rand4rngs6thread9ThreadRngNtNtB9_3rng6RngExt6samplebNtNtNtB9_5distr9bernoulli9BernoulliECsaYfPqFfImBE_4dprs, symObjAddr: 0x80, symBinAddr: 0x145B8, symSize: 0x5C }
  - { offsetInCU: 0x122, offset: 0x386A5, size: 0x8, addend: 0x0, symName: __RNvYNtNtNtCseSFJDzX8FyV_4rand4rngs6thread9ThreadRngNtNtB8_3rng6RngExt11random_boolCsaYfPqFfImBE_4dprs, symObjAddr: 0x234, symBinAddr: 0x1476C, symSize: 0x88 }
  - { offsetInCU: 0x712, offset: 0x38C95, size: 0x8, addend: 0x0, symName: __RNvXCskCe4T2tHIYC_9rand_coreNtNtNtCseSFJDzX8FyV_4rand4rngs6thread9ThreadRngNtB2_3Rng8next_u32CsaYfPqFfImBE_4dprs, symObjAddr: 0xDC, symBinAddr: 0x14614, symSize: 0xAC }
  - { offsetInCU: 0x7C6, offset: 0x38D49, size: 0x8, addend: 0x0, symName: __RNvXCskCe4T2tHIYC_9rand_coreNtNtNtCseSFJDzX8FyV_4rand4rngs6thread9ThreadRngNtB2_3Rng8next_u64CsaYfPqFfImBE_4dprs, symObjAddr: 0x188, symBinAddr: 0x146C0, symSize: 0xAC }
  - { offsetInCU: 0x1E, offset: 0x3903A, size: 0x8, addend: 0x0, symName: __RINvMNtNtCsF7gmULBm3O_4pyo34sync9once_lockINtB3_10PyOnceLockINtNtB7_8instance2PyNtNtCsaYfPqFfImBE_4dprs10parameters10ProcessingEE15get_or_try_initNCNvXsE_B1i_B1g_NtNtB7_10conversion12IntoPyObject13into_pyobject0NtNtB7_3err5PyErrEB1k_, symObjAddr: 0x0, symBinAddr: 0x147F4, symSize: 0xB0 }
  - { offsetInCU: 0x1F95, offset: 0x3AFB1, size: 0x8, addend: 0x0, symName: __RINvNtNtCsF7gmULBm3O_4pyo34sync9once_lock30try_init_once_cell_py_attachedNCNvXs4_NtCsaYfPqFfImBE_4dprs10parametersNtB1h_9DimensionNtNtB6_10conversion12IntoPyObject13into_pyobject0INtNtB6_8instance2PyB1O_ENtNtB6_3err5PyErrEB1j_, symObjAddr: 0x2C0, symBinAddr: 0xCE614, symSize: 0xBC }
  - { offsetInCU: 0x2021, offset: 0x3B03D, size: 0x8, addend: 0x0, symName: __RINvNtNtCsF7gmULBm3O_4pyo34sync9once_lock30try_init_once_cell_py_attachedNCNvXsE_NtCsaYfPqFfImBE_4dprs10parametersNtB1h_10ProcessingNtNtB6_10conversion12IntoPyObject13into_pyobject0INtNtB6_8instance2PyB1O_ENtNtB6_3err5PyErrEB1j_, symObjAddr: 0x37C, symBinAddr: 0xCE6D0, symSize: 0xBC }
  - { offsetInCU: 0x20AD, offset: 0x3B0C9, size: 0x8, addend: 0x0, symName: __RINvNtNtCsF7gmULBm3O_4pyo34sync9once_lock30try_init_once_cell_py_attachedNCNvXsg_NtCsaYfPqFfImBE_4dprs10parametersNtB1h_8TopologyNtNtB6_10conversion12IntoPyObject13into_pyobject0INtNtB6_8instance2PyB1O_ENtNtB6_3err5PyErrEB1j_, symObjAddr: 0x438, symBinAddr: 0xCE78C, symSize: 0xBC }
  - { offsetInCU: 0x2139, offset: 0x3B155, size: 0x8, addend: 0x0, symName: __RINvNtNtCsF7gmULBm3O_4pyo34sync9once_lock30try_init_once_cell_py_attachedNCNvXss_NtCsaYfPqFfImBE_4dprs10parametersNtB1h_17BoundaryConditionNtNtB6_10conversion12IntoPyObject13into_pyobject0INtNtB6_8instance2PyB1O_ENtNtB6_3err5PyErrEB1j_, symObjAddr: 0x4F4, symBinAddr: 0xCE848, symSize: 0xBC }
  - { offsetInCU: 0x21CF, offset: 0x3B1EB, size: 0x8, addend: 0x0, symName: __RNCINvMNtNtCsF7gmULBm3O_4pyo34sync9once_lockINtB5_10PyOnceLockINtNtB9_8instance2PyNtNtCsaYfPqFfImBE_4dprs10parameters10ProcessingEE15get_or_try_initNCNvXsE_B1k_B1i_NtNtB9_10conversion12IntoPyObject13into_pyobject0NtNtB9_3err5PyErrE0B1m_, symObjAddr: 0x5B0, symBinAddr: 0x14AB4, symSize: 0x2C }
  - { offsetInCU: 0x2237, offset: 0x3B253, size: 0x8, addend: 0x0, symName: __RNCINvMNtNtCsF7gmULBm3O_4pyo34sync9once_lockINtB5_10PyOnceLockINtNtB9_8instance2PyNtNtCsaYfPqFfImBE_4dprs10parameters17BoundaryConditionEE15get_or_try_initNCNvXss_B1k_B1i_NtNtB9_10conversion12IntoPyObject13into_pyobject0NtNtB9_3err5PyErrE0B1m_, symObjAddr: 0x5DC, symBinAddr: 0x14AE0, symSize: 0x2C }
  - { offsetInCU: 0x229F, offset: 0x3B2BB, size: 0x8, addend: 0x0, symName: __RNCINvMNtNtCsF7gmULBm3O_4pyo34sync9once_lockINtB5_10PyOnceLockINtNtB9_8instance2PyNtNtCsaYfPqFfImBE_4dprs10parameters8TopologyEE15get_or_try_initNCNvXsg_B1k_B1i_NtNtB9_10conversion12IntoPyObject13into_pyobject0NtNtB9_3err5PyErrE0B1m_, symObjAddr: 0x608, symBinAddr: 0x14B0C, symSize: 0x2C }
  - { offsetInCU: 0x2307, offset: 0x3B323, size: 0x8, addend: 0x0, symName: __RNCINvMNtNtCsF7gmULBm3O_4pyo34sync9once_lockINtB5_10PyOnceLockINtNtB9_8instance2PyNtNtCsaYfPqFfImBE_4dprs10parameters9DimensionEE15get_or_try_initNCNvXs4_B1k_B1i_NtNtB9_10conversion12IntoPyObject13into_pyobject0NtNtB9_3err5PyErrE0B1m_, symObjAddr: 0x634, symBinAddr: 0x14B38, symSize: 0x2C }
  - { offsetInCU: 0x2376, offset: 0x3B392, size: 0x8, addend: 0x0, symName: __RNCINvNtNtCsF7gmULBm3O_4pyo34sync9once_lock30try_init_once_cell_py_attachedNCNvXs4_NtCsaYfPqFfImBE_4dprs10parametersNtB1j_9DimensionNtNtB8_10conversion12IntoPyObject13into_pyobject0INtNtB8_8instance2PyB1Q_ENtNtB8_3err5PyErrE0B1l_, symObjAddr: 0x660, symBinAddr: 0x14B64, symSize: 0x84 }
  - { offsetInCU: 0x23CF, offset: 0x3B3EB, size: 0x8, addend: 0x0, symName: __RNCINvNtNtCsF7gmULBm3O_4pyo34sync9once_lock30try_init_once_cell_py_attachedNCNvXsE_NtCsaYfPqFfImBE_4dprs10parametersNtB1j_10ProcessingNtNtB8_10conversion12IntoPyObject13into_pyobject0INtNtB8_8instance2PyB1Q_ENtNtB8_3err5PyErrE0B1l_, symObjAddr: 0x6E4, symBinAddr: 0x14BE8, symSize: 0x84 }
  - { offsetInCU: 0x2428, offset: 0x3B444, size: 0x8, addend: 0x0, symName: __RNCINvNtNtCsF7gmULBm3O_4pyo34sync9once_lock30try_init_once_cell_py_attachedNCNvXsg_NtCsaYfPqFfImBE_4dprs10parametersNtB1j_8TopologyNtNtB8_10conversion12IntoPyObject13into_pyobject0INtNtB8_8instance2PyB1Q_ENtNtB8_3err5PyErrE0B1l_, symObjAddr: 0x768, symBinAddr: 0x14C6C, symSize: 0x84 }
  - { offsetInCU: 0x2481, offset: 0x3B49D, size: 0x8, addend: 0x0, symName: __RNCINvNtNtCsF7gmULBm3O_4pyo34sync9once_lock30try_init_once_cell_py_attachedNCNvXss_NtCsaYfPqFfImBE_4dprs10parametersNtB1j_17BoundaryConditionNtNtB8_10conversion12IntoPyObject13into_pyobject0INtNtB8_8instance2PyB1Q_ENtNtB8_3err5PyErrE0B1l_, symObjAddr: 0x7EC, symBinAddr: 0x14CF0, symSize: 0x84 }
  - { offsetInCU: 0x30ED, offset: 0x3C109, size: 0x8, addend: 0x0, symName: __RINvMNtNtCsF7gmULBm3O_4pyo34sync9once_lockINtB3_10PyOnceLockINtNtB7_8instance2PyNtNtCsaYfPqFfImBE_4dprs10parameters10ProcessingEE15get_or_try_initNCNvXsE_B1i_B1g_NtNtB7_10conversion12IntoPyObject13into_pyobject0NtNtB7_3err5PyErrEB1k_, symObjAddr: 0x0, symBinAddr: 0x147F4, symSize: 0xB0 }
  - { offsetInCU: 0x316B, offset: 0x3C187, size: 0x8, addend: 0x0, symName: __RINvMNtNtCsF7gmULBm3O_4pyo34sync9once_lockINtB3_10PyOnceLockINtNtB7_8instance2PyNtNtCsaYfPqFfImBE_4dprs10parameters17BoundaryConditionEE15get_or_try_initNCNvXss_B1i_B1g_NtNtB7_10conversion12IntoPyObject13into_pyobject0NtNtB7_3err5PyErrEB1k_, symObjAddr: 0xB0, symBinAddr: 0x148A4, symSize: 0xB0 }
  - { offsetInCU: 0x31E9, offset: 0x3C205, size: 0x8, addend: 0x0, symName: __RINvMNtNtCsF7gmULBm3O_4pyo34sync9once_lockINtB3_10PyOnceLockINtNtB7_8instance2PyNtNtCsaYfPqFfImBE_4dprs10parameters8TopologyEE15get_or_try_initNCNvXsg_B1i_B1g_NtNtB7_10conversion12IntoPyObject13into_pyobject0NtNtB7_3err5PyErrEB1k_, symObjAddr: 0x160, symBinAddr: 0x14954, symSize: 0xB0 }
  - { offsetInCU: 0x3267, offset: 0x3C283, size: 0x8, addend: 0x0, symName: __RINvMNtNtCsF7gmULBm3O_4pyo34sync9once_lockINtB3_10PyOnceLockINtNtB7_8instance2PyNtNtCsaYfPqFfImBE_4dprs10parameters9DimensionEE15get_or_try_initNCNvXs4_B1i_B1g_NtNtB7_10conversion12IntoPyObject13into_pyobject0NtNtB7_3err5PyErrEB1k_, symObjAddr: 0x210, symBinAddr: 0x14A04, symSize: 0xB0 }
  - { offsetInCU: 0x1E, offset: 0x3C353, size: 0x8, addend: 0x0, symName: __RNvXs7_NtNtCs2tD97QJu26F_4core3cmp5implsReNtB7_9PartialEq2eqCsaYfPqFfImBE_4dprs, symObjAddr: 0x0, symBinAddr: 0x14D74, symSize: 0x44 }
  - { offsetInCU: 0x3F, offset: 0x3C374, size: 0x8, addend: 0x0, symName: __RNvXs7_NtNtCs2tD97QJu26F_4core3cmp5implsReNtB7_9PartialEq2eqCsaYfPqFfImBE_4dprs, symObjAddr: 0x0, symBinAddr: 0x14D74, symSize: 0x44 }
  - { offsetInCU: 0x1E, offset: 0x3C42E, size: 0x8, addend: 0x0, symName: __RNvXs_NtCslkboY0IC5z6_5rayon5sliceSbINtB4_16ParallelSliceMutbE21as_parallel_slice_mutCsaYfPqFfImBE_4dprs, symObjAddr: 0x0, symBinAddr: 0x14DB8, symSize: 0x18 }
  - { offsetInCU: 0x3A, offset: 0x3C44A, size: 0x8, addend: 0x0, symName: __RNvXs_NtCslkboY0IC5z6_5rayon5sliceSbINtB4_16ParallelSliceMutbE21as_parallel_slice_mutCsaYfPqFfImBE_4dprs, symObjAddr: 0x0, symBinAddr: 0x14DB8, symSize: 0x18 }
  - { offsetInCU: 0x77, offset: 0x3C487, size: 0x8, addend: 0x0, symName: __RNvYSbINtNtCslkboY0IC5z6_5rayon5slice16ParallelSliceMutbE14par_chunks_mutCsaYfPqFfImBE_4dprs, symObjAddr: 0x18, symBinAddr: 0x14DD0, symSize: 0x84 }
  - { offsetInCU: 0x1E, offset: 0x3C55C, size: 0x8, addend: 0x0, symName: __RINvXs0_NtCslkboY0IC5z6_5rayon5rangeINtB6_4IterjENtNtB8_4iter16ParallelIterator15drive_unindexedINtNtBN_3map11MapConsumerINtNtNtBN_7collect8consumer15CollectConsumerbENCNvMNtNtCsaYfPqFfImBE_4dprs4life8model_2dINtB2K_14LatticeModel2DNtNtB2M_10life_model9LifeModelE23next_iteration_parallel0EEB2O_, symObjAddr: 0x0, symBinAddr: 0x14E54, symSize: 0x3C }
  - { offsetInCU: 0x3A, offset: 0x3C578, size: 0x8, addend: 0x0, symName: __RINvXs0_NtCslkboY0IC5z6_5rayon5rangeINtB6_4IterjENtNtB8_4iter16ParallelIterator15drive_unindexedINtNtBN_3map11MapConsumerINtNtNtBN_7collect8consumer15CollectConsumerbENCNvMNtNtCsaYfPqFfImBE_4dprs4life8model_2dINtB2K_14LatticeModel2DNtNtB2M_10life_model9LifeModelE23next_iteration_parallel0EEB2O_, symObjAddr: 0x0, symBinAddr: 0x14E54, symSize: 0x3C }
  - { offsetInCU: 0x87, offset: 0x3C5C5, size: 0x8, addend: 0x0, symName: __RINvXs0_NtCslkboY0IC5z6_5rayon5rangeINtB6_4IterjENtNtB8_4iter16ParallelIterator15drive_unindexedINtNtBN_3map11MapConsumerNtNtBN_6extend15ListVecConsumerNCNvMNtNtCsaYfPqFfImBE_4dprs4life8model_2dINtB2v_14LatticeModel2DNtNtB2x_10life_model9LifeModelE23next_iteration_parallel0EEB2z_, symObjAddr: 0x3C, symBinAddr: 0x14E90, symSize: 0x2C }
  - { offsetInCU: 0xD9, offset: 0x3C617, size: 0x8, addend: 0x0, symName: __RINvXs1_NtCslkboY0IC5z6_5rayon5rangeINtB6_4IterjENtNtB8_4iter23IndexedParallelIterator13with_producerINtNvNtBN_8plumbing6bridge8CallbackINtNtBN_3map11MapConsumerINtNtNtBN_7collect8consumer15CollectConsumerbENCNvMNtNtCsaYfPqFfImBE_4dprs4life8model_2dINtB3o_14LatticeModel2DNtNtB3q_10life_model9LifeModelE23next_iteration_parallel0EEEB3s_, symObjAddr: 0x68, symBinAddr: 0x14EBC, symSize: 0x3C }
  - { offsetInCU: 0x126, offset: 0x3C664, size: 0x8, addend: 0x0, symName: __RINvXs1_NtCslkboY0IC5z6_5rayon5rangeINtB6_4IterjENtNtB8_4iter23IndexedParallelIterator13with_producerINtNvNtBN_8plumbing6bridge8CallbackINtNtBN_3map11MapConsumerNtNtBN_6extend15ListVecConsumerNCNvMNtNtCsaYfPqFfImBE_4dprs4life8model_2dINtB39_14LatticeModel2DNtNtB3b_10life_model9LifeModelE23next_iteration_parallel0EEEB3d_, symObjAddr: 0xA4, symBinAddr: 0x14EF8, symSize: 0x30 }
  - { offsetInCU: 0x172, offset: 0x3C6B0, size: 0x8, addend: 0x0, symName: __RNvXs1_NtCslkboY0IC5z6_5rayon5rangeINtB5_4IterjENtNtB7_4iter23IndexedParallelIterator3lenCsaYfPqFfImBE_4dprs, symObjAddr: 0x348, symBinAddr: 0x1519C, symSize: 0x24 }
  - { offsetInCU: 0x1AD, offset: 0x3C6EB, size: 0x8, addend: 0x0, symName: __RINvXsf_NtCslkboY0IC5z6_5rayon5rangejNtNtB6_7private12RangeInteger15drive_unindexedINtNtNtB8_4iter3map11MapConsumerINtNtNtB1o_7collect8consumer15CollectConsumerbENCNvMNtNtCsaYfPqFfImBE_4dprs4life8model_2dINtB2F_14LatticeModel2DNtNtB2H_10life_model9LifeModelE23next_iteration_parallel0EEB2J_, symObjAddr: 0xD4, symBinAddr: 0x14F28, symSize: 0x3C }
  - { offsetInCU: 0x1F1, offset: 0x3C72F, size: 0x8, addend: 0x0, symName: __RINvXsf_NtCslkboY0IC5z6_5rayon5rangejNtNtB6_7private12RangeInteger15drive_unindexedINtNtNtB8_4iter3map11MapConsumerNtNtB1o_6extend15ListVecConsumerNCNvMNtNtCsaYfPqFfImBE_4dprs4life8model_2dINtB2q_14LatticeModel2DNtNtB2s_10life_model9LifeModelE23next_iteration_parallel0EEB2u_, symObjAddr: 0x110, symBinAddr: 0x14F64, symSize: 0x2C }
  - { offsetInCU: 0x23A, offset: 0x3C778, size: 0x8, addend: 0x0, symName: __RINvXsg_NtCslkboY0IC5z6_5rayon5rangejNtNtB6_7private19IndexedRangeInteger13with_producerINtNvNtNtB8_4iter8plumbing6bridge8CallbackINtNtB1v_3map11MapConsumerINtNtNtB1v_7collect8consumer15CollectConsumerbENCNvMNtNtCsaYfPqFfImBE_4dprs4life8model_2dINtB3k_14LatticeModel2DNtNtB3m_10life_model9LifeModelE23next_iteration_parallel0EEEB3o_, symObjAddr: 0x13C, symBinAddr: 0x14F90, symSize: 0x50 }
  - { offsetInCU: 0x27E, offset: 0x3C7BC, size: 0x8, addend: 0x0, symName: __RINvXsg_NtCslkboY0IC5z6_5rayon5rangejNtNtB6_7private19IndexedRangeInteger13with_producerINtNvNtNtB8_4iter8plumbing6bridge8CallbackINtNtB1v_3map11MapConsumerNtNtB1v_6extend15ListVecConsumerNCNvMNtNtCsaYfPqFfImBE_4dprs4life8model_2dINtB35_14LatticeModel2DNtNtB37_10life_model9LifeModelE23next_iteration_parallel0EEEB39_, symObjAddr: 0x18C, symBinAddr: 0x14FE0, symSize: 0x48 }
  - { offsetInCU: 0x30E, offset: 0x3C84C, size: 0x8, addend: 0x0, symName: __RINvYINtNtCslkboY0IC5z6_5rayon5range12IterProducerjENtNtNtB8_4iter8plumbing8Producer9fold_withINtNtBS_3map9MapFolderINtNtBS_6extend13ListVecFolderbENCNvMNtNtCsaYfPqFfImBE_4dprs4life8model_2dINtB2r_14LatticeModel2DNtNtB2t_10life_model9LifeModelE23next_iteration_parallel0EEB2v_, symObjAddr: 0x1D4, symBinAddr: 0x15028, symSize: 0xA4 }
  - { offsetInCU: 0x35B, offset: 0x3C899, size: 0x8, addend: 0x0, symName: __RINvYINtNtCslkboY0IC5z6_5rayon5range12IterProducerjENtNtNtB8_4iter8plumbing8Producer9fold_withINtNtBS_3map9MapFolderINtNtNtBS_7collect8consumer13CollectResultbENCNvMNtNtCsaYfPqFfImBE_4dprs4life8model_2dINtB2D_14LatticeModel2DNtNtB2F_10life_model9LifeModelE23next_iteration_parallel0EEB2H_, symObjAddr: 0x278, symBinAddr: 0x150CC, symSize: 0xA4 }
  - { offsetInCU: 0x3A8, offset: 0x3C8E6, size: 0x8, addend: 0x0, symName: __RNvYINtNtCslkboY0IC5z6_5rayon5range12IterProducerjENtNtNtB7_4iter8plumbing8Producer7max_lenCsaYfPqFfImBE_4dprs, symObjAddr: 0x36C, symBinAddr: 0x151C0, symSize: 0x14 }
  - { offsetInCU: 0x3DD, offset: 0x3C91B, size: 0x8, addend: 0x0, symName: __RNvYINtNtCslkboY0IC5z6_5rayon5range12IterProducerjENtNtNtB7_4iter8plumbing8Producer7min_lenCsaYfPqFfImBE_4dprs, symObjAddr: 0x380, symBinAddr: 0x151D4, symSize: 0x18 }
  - { offsetInCU: 0x473, offset: 0x3C9B1, size: 0x8, addend: 0x0, symName: __RINvYINtNtCslkboY0IC5z6_5rayon5range4IterjENtNtB8_4iter16ParallelIterator3mapNCNvMNtNtCsaYfPqFfImBE_4dprs4life8model_2dINtB1i_14LatticeModel2DNtNtB1k_10life_model9LifeModelE23next_iteration_parallel0bEB1m_, symObjAddr: 0x31C, symBinAddr: 0x15170, symSize: 0x2C }
  - { offsetInCU: 0x1E, offset: 0x3D034, size: 0x8, addend: 0x0, symName: __RNCNvNtNtNtCsF7gmULBm3O_4pyo35impl_10trampoline8reprfunc5inner0CsaYfPqFfImBE_4dprs, symObjAddr: 0x0, symBinAddr: 0x151EC, symSize: 0x34 }
  - { offsetInCU: 0x14C8, offset: 0x3E4DE, size: 0x8, addend: 0x0, symName: __RNCNvNtNtNtCsF7gmULBm3O_4pyo35impl_10trampoline8reprfunc5inner0CsaYfPqFfImBE_4dprs, symObjAddr: 0x0, symBinAddr: 0x151EC, symSize: 0x34 }
  - { offsetInCU: 0x1E, offset: 0x3EDB6, size: 0x8, addend: 0x0, symName: __RNvMNtCsF7gmULBm3O_4pyo312pyclass_initINtB2_18PyClassInitializerNtNtCsaYfPqFfImBE_4dprs10parameters10ProcessingE19create_class_objectB14_, symObjAddr: 0x0, symBinAddr: 0x15220, symSize: 0x80 }
  - { offsetInCU: 0x20E6, offset: 0x40E7E, size: 0x8, addend: 0x0, symName: __RNvXs0_NtCsF7gmULBm3O_4pyo312pyclass_initINtB5_18PyClassInitializerNtNtCsaYfPqFfImBE_4dprs10parameters10ProcessingEINtNtCs2tD97QJu26F_4core7convert4FromB13_E4fromB17_, symObjAddr: 0xA10, symBinAddr: 0x15C30, symSize: 0x28 }
  - { offsetInCU: 0x211B, offset: 0x40EB3, size: 0x8, addend: 0x0, symName: __RNvXs0_NtCsF7gmULBm3O_4pyo312pyclass_initINtB5_18PyClassInitializerNtNtCsaYfPqFfImBE_4dprs10parameters17BoundaryConditionEINtNtCs2tD97QJu26F_4core7convert4FromB13_E4fromB17_, symObjAddr: 0xA38, symBinAddr: 0x15C58, symSize: 0x28 }
  - { offsetInCU: 0x2150, offset: 0x40EE8, size: 0x8, addend: 0x0, symName: __RNvXs0_NtCsF7gmULBm3O_4pyo312pyclass_initINtB5_18PyClassInitializerNtNtCsaYfPqFfImBE_4dprs10parameters8TopologyEINtNtCs2tD97QJu26F_4core7convert4FromB13_E4fromB17_, symObjAddr: 0xA60, symBinAddr: 0x15C80, symSize: 0x28 }
  - { offsetInCU: 0x2185, offset: 0x40F1D, size: 0x8, addend: 0x0, symName: __RNvXs0_NtCsF7gmULBm3O_4pyo312pyclass_initINtB5_18PyClassInitializerNtNtCsaYfPqFfImBE_4dprs10parameters9DimensionEINtNtCs2tD97QJu26F_4core7convert4FromB13_E4fromB17_, symObjAddr: 0xA88, symBinAddr: 0x15CA8, symSize: 0x28 }
  - { offsetInCU: 0x2CFA, offset: 0x41A92, size: 0x8, addend: 0x0, symName: __RNvMNtCsF7gmULBm3O_4pyo312pyclass_initINtB2_18PyClassInitializerNtNtCsaYfPqFfImBE_4dprs10parameters10ProcessingE19create_class_objectB14_, symObjAddr: 0x0, symBinAddr: 0x15220, symSize: 0x80 }
  - { offsetInCU: 0x2DBC, offset: 0x41B54, size: 0x8, addend: 0x0, symName: __RNvMNtCsF7gmULBm3O_4pyo312pyclass_initINtB2_18PyClassInitializerNtNtCsaYfPqFfImBE_4dprs10parameters10ProcessingE27create_class_object_of_typeB14_, symObjAddr: 0x80, symBinAddr: 0x152A0, symSize: 0x1F4 }
  - { offsetInCU: 0x2F2D, offset: 0x41CC5, size: 0x8, addend: 0x0, symName: __RNvMNtCsF7gmULBm3O_4pyo312pyclass_initINtB2_18PyClassInitializerNtNtCsaYfPqFfImBE_4dprs10parameters10ProcessingE3newB14_, symObjAddr: 0x274, symBinAddr: 0x15494, symSize: 0x10 }
  - { offsetInCU: 0x2F66, offset: 0x41CFE, size: 0x8, addend: 0x0, symName: __RNvMNtCsF7gmULBm3O_4pyo312pyclass_initINtB2_18PyClassInitializerNtNtCsaYfPqFfImBE_4dprs10parameters17BoundaryConditionE19create_class_objectB14_, symObjAddr: 0x284, symBinAddr: 0x154A4, symSize: 0x80 }
  - { offsetInCU: 0x3028, offset: 0x41DC0, size: 0x8, addend: 0x0, symName: __RNvMNtCsF7gmULBm3O_4pyo312pyclass_initINtB2_18PyClassInitializerNtNtCsaYfPqFfImBE_4dprs10parameters17BoundaryConditionE27create_class_object_of_typeB14_, symObjAddr: 0x304, symBinAddr: 0x15524, symSize: 0x1F4 }
  - { offsetInCU: 0x3147, offset: 0x41EDF, size: 0x8, addend: 0x0, symName: __RNvMNtCsF7gmULBm3O_4pyo312pyclass_initINtB2_18PyClassInitializerNtNtCsaYfPqFfImBE_4dprs10parameters17BoundaryConditionE3newB14_, symObjAddr: 0x4F8, symBinAddr: 0x15718, symSize: 0x10 }
  - { offsetInCU: 0x3180, offset: 0x41F18, size: 0x8, addend: 0x0, symName: __RNvMNtCsF7gmULBm3O_4pyo312pyclass_initINtB2_18PyClassInitializerNtNtCsaYfPqFfImBE_4dprs10parameters8TopologyE19create_class_objectB14_, symObjAddr: 0x508, symBinAddr: 0x15728, symSize: 0x80 }
  - { offsetInCU: 0x3242, offset: 0x41FDA, size: 0x8, addend: 0x0, symName: __RNvMNtCsF7gmULBm3O_4pyo312pyclass_initINtB2_18PyClassInitializerNtNtCsaYfPqFfImBE_4dprs10parameters8TopologyE27create_class_object_of_typeB14_, symObjAddr: 0x588, symBinAddr: 0x157A8, symSize: 0x1F4 }
  - { offsetInCU: 0x3361, offset: 0x420F9, size: 0x8, addend: 0x0, symName: __RNvMNtCsF7gmULBm3O_4pyo312pyclass_initINtB2_18PyClassInitializerNtNtCsaYfPqFfImBE_4dprs10parameters8TopologyE3newB14_, symObjAddr: 0x77C, symBinAddr: 0x1599C, symSize: 0x10 }
  - { offsetInCU: 0x339A, offset: 0x42132, size: 0x8, addend: 0x0, symName: __RNvMNtCsF7gmULBm3O_4pyo312pyclass_initINtB2_18PyClassInitializerNtNtCsaYfPqFfImBE_4dprs10parameters9DimensionE19create_class_objectB14_, symObjAddr: 0x78C, symBinAddr: 0x159AC, symSize: 0x80 }
  - { offsetInCU: 0x345C, offset: 0x421F4, size: 0x8, addend: 0x0, symName: __RNvMNtCsF7gmULBm3O_4pyo312pyclass_initINtB2_18PyClassInitializerNtNtCsaYfPqFfImBE_4dprs10parameters9DimensionE27create_class_object_of_typeB14_, symObjAddr: 0x80C, symBinAddr: 0x15A2C, symSize: 0x1F4 }
  - { offsetInCU: 0x357B, offset: 0x42313, size: 0x8, addend: 0x0, symName: __RNvMNtCsF7gmULBm3O_4pyo312pyclass_initINtB2_18PyClassInitializerNtNtCsaYfPqFfImBE_4dprs10parameters9DimensionE3newB14_, symObjAddr: 0xA00, symBinAddr: 0x15C20, symSize: 0x10 }
  - { offsetInCU: 0x1E, offset: 0x4239E, size: 0x8, addend: 0x0, symName: __RNvMs3_NtCs9xDkXAC1PNF_5alloc7raw_vecINtB5_6RawVecINtNtB7_3vec3VecbEE8grow_oneCsaYfPqFfImBE_4dprs, symObjAddr: 0x0, symBinAddr: 0x15CD0, symSize: 0x88 }
  - { offsetInCU: 0x652, offset: 0x429D2, size: 0x8, addend: 0x0, symName: __RNvMs3_NtCs9xDkXAC1PNF_5alloc7raw_vecINtB5_6RawVecINtNtB7_3vec3VecbEE8grow_oneCsaYfPqFfImBE_4dprs, symObjAddr: 0x0, symBinAddr: 0x15CD0, symSize: 0x88 }
  - { offsetInCU: 0x729, offset: 0x42AA9, size: 0x8, addend: 0x0, symName: __RNvMs3_NtCs9xDkXAC1PNF_5alloc7raw_vecINtB5_6RawVecReE8grow_oneCsaYfPqFfImBE_4dprs, symObjAddr: 0x88, symBinAddr: 0x15D58, symSize: 0x88 }
  - { offsetInCU: 0x1E, offset: 0x42B32, size: 0x8, addend: 0x0, symName: __RINvNtNtCslkboY0IC5z6_5rayon4iter13from_par_iter16collect_extendedINtNtCs9xDkXAC1PNF_5alloc3vec3VecbEINtNtB4_3map3MapINtNtB6_5range4IterjENCNvMNtNtCsaYfPqFfImBE_4dprs4life8model_2dINtB2h_14LatticeModel2DNtNtB2j_10life_model9LifeModelE23next_iteration_parallel0EEB2l_, symObjAddr: 0x0, symBinAddr: 0x15DE0, symSize: 0xBC }
  - { offsetInCU: 0x3A, offset: 0x42B4E, size: 0x8, addend: 0x0, symName: __RINvNtNtCslkboY0IC5z6_5rayon4iter13from_par_iter16collect_extendedINtNtCs9xDkXAC1PNF_5alloc3vec3VecbEINtNtB4_3map3MapINtNtB6_5range4IterjENCNvMNtNtCsaYfPqFfImBE_4dprs4life8model_2dINtB2h_14LatticeModel2DNtNtB2j_10life_model9LifeModelE23next_iteration_parallel0EEB2l_, symObjAddr: 0x0, symBinAddr: 0x15DE0, symSize: 0xBC }
  - { offsetInCU: 0x3A, offset: 0x42E89, size: 0x8, addend: 0x0, symName: __RNvXs1_NtCs2tD97QJu26F_4core3ptrFUPuEuNtNtB7_3cmp9PartialEq2eqCsaYfPqFfImBE_4dprs, symObjAddr: 0xC4, symBinAddr: 0x15E9C, symSize: 0x50 }
  - { offsetInCU: 0x1E, offset: 0x42F41, size: 0x8, addend: 0x0, symName: __RNvMs_NtCs9xDkXAC1PNF_5alloc5boxedINtB4_3BoxINtNtNtB6_11collections11linked_list4NodeINtNtB6_3vec3VecbEERNtNtB6_5alloc6GlobalE13new_uninit_inCsaYfPqFfImBE_4dprs, symObjAddr: 0x0, symBinAddr: 0x15EEC, symSize: 0x78 }
  - { offsetInCU: 0x9B2, offset: 0x438D5, size: 0x8, addend: 0x0, symName: __RNvMs_NtCs9xDkXAC1PNF_5alloc5boxedINtB4_3BoxINtNtNtB6_11collections11linked_list4NodeINtNtB6_3vec3VecbEERNtNtB6_5alloc6GlobalE13new_uninit_inCsaYfPqFfImBE_4dprs, symObjAddr: 0x0, symBinAddr: 0x15EEC, symSize: 0x78 }
  - { offsetInCU: 0xA10, offset: 0x43933, size: 0x8, addend: 0x0, symName: __RNvMs_NtCs9xDkXAC1PNF_5alloc5boxedINtB4_3BoxINtNtNtB6_11collections11linked_list4NodeINtNtB6_3vec3VecbEERNtNtB6_5alloc6GlobalE17try_new_uninit_inCsaYfPqFfImBE_4dprs, symObjAddr: 0x78, symBinAddr: 0x15F64, symSize: 0x114 }
  - { offsetInCU: 0xBAD, offset: 0x43AD0, size: 0x8, addend: 0x0, symName: __RNvMs_NtCs9xDkXAC1PNF_5alloc5boxedINtB4_3BoxINtNtNtB6_11collections11linked_list4NodeINtNtB6_3vec3VecbEERNtNtB6_5alloc6GlobalE6new_inCsaYfPqFfImBE_4dprs, symObjAddr: 0x18C, symBinAddr: 0x16078, symSize: 0xF0 }
  - { offsetInCU: 0x1E, offset: 0x43F38, size: 0x8, addend: 0x0, symName: __RNvNtNtCsqz1hv0UmID_8pyo3_ffi7cpython10listobject15PyList_SET_ITEMCsaYfPqFfImBE_4dprs, symObjAddr: 0x0, symBinAddr: 0x16168, symSize: 0x110 }
  - { offsetInCU: 0x638, offset: 0x44552, size: 0x8, addend: 0x0, symName: __RNvNtNtCsqz1hv0UmID_8pyo3_ffi7cpython10listobject15PyList_SET_ITEMCsaYfPqFfImBE_4dprs, symObjAddr: 0x0, symBinAddr: 0x16168, symSize: 0x110 }
  - { offsetInCU: 0x1E, offset: 0x45524, size: 0x8, addend: 0x0, symName: __RINvNtNtCslkboY0IC5z6_5rayon4iter7collect14special_extendINtNtB4_3map3MapINtNtB6_5range4IterjENCNvMNtNtCsaYfPqFfImBE_4dprs4life8model_2dINtB1z_14LatticeModel2DNtNtB1B_10life_model9LifeModelE23next_iteration_parallel0EbEB1D_, symObjAddr: 0x0, symBinAddr: 0x16278, symSize: 0x44 }
  - { offsetInCU: 0x3A, offset: 0x45540, size: 0x8, addend: 0x0, symName: __RINvNtNtCslkboY0IC5z6_5rayon4iter7collect14special_extendINtNtB4_3map3MapINtNtB6_5range4IterjENCNvMNtNtCsaYfPqFfImBE_4dprs4life8model_2dINtB1z_14LatticeModel2DNtNtB1B_10life_model9LifeModelE23next_iteration_parallel0EbEB1D_, symObjAddr: 0x0, symBinAddr: 0x16278, symSize: 0x44 }
  - { offsetInCU: 0x91, offset: 0x45597, size: 0x8, addend: 0x0, symName: __RINvNtNtCslkboY0IC5z6_5rayon4iter7collect21collect_with_consumerbNCINvB2_14special_extendINtNtB4_3map3MapINtNtB6_5range4IterjENCNvMNtNtCsaYfPqFfImBE_4dprs4life8model_2dINtB25_14LatticeModel2DNtNtB27_10life_model9LifeModelE23next_iteration_parallel0EbE0EB29_, symObjAddr: 0x44, symBinAddr: 0x162BC, symSize: 0x240 }
  - { offsetInCU: 0x172, offset: 0x45678, size: 0x8, addend: 0x0, symName: __RNCINvNtNtCslkboY0IC5z6_5rayon4iter7collect14special_extendINtNtB6_3map3MapINtNtB8_5range4IterjENCNvMNtNtCsaYfPqFfImBE_4dprs4life8model_2dINtB1B_14LatticeModel2DNtNtB1D_10life_model9LifeModelE23next_iteration_parallel0EbE0B1F_, symObjAddr: 0x284, symBinAddr: 0x164FC, symSize: 0x40 }
  - { offsetInCU: 0x1E, offset: 0x45D47, size: 0x8, addend: 0x0, symName: __RINvMNtCs2tD97QJu26F_4core6optionINtB3_6OptionINtNtCsF7gmULBm3O_4pyo38instance8BorrowedNtNtNtBN_5types3any5PyAnyEE3mapIBJ_NtNtB1r_5tuple7PyTupleENCINvMs5_NtNtBN_5impl_16extract_argumentNtB2s_19FunctionDescription26extract_arguments_fastcallNtB2s_9NoVarargsNtB2s_13NoVarkeywordsE0ECsaYfPqFfImBE_4dprs, symObjAddr: 0x0, symBinAddr: 0x1653C, symSize: 0x50 }
  - { offsetInCU: 0x2DB7, offset: 0x48AE0, size: 0x8, addend: 0x0, symName: __RNvMNtNtCs2tD97QJu26F_4core3ptr9const_ptrPINtNtB6_6option6OptionINtNtCsF7gmULBm3O_4pyo38instance8BorrowedNtNtNtB15_5types3any5PyAnyEE7is_nullCsaYfPqFfImBE_4dprs, symObjAddr: 0x14E8, symBinAddr: 0x17A24, symSize: 0x18 }
  - { offsetInCU: 0x343C, offset: 0x49165, size: 0x8, addend: 0x0, symName: __RNvMNtCs2tD97QJu26F_4core5sliceSINtNtB4_6option6OptionINtNtCsF7gmULBm3O_4pyo38instance8BorrowedNtNtNtBV_5types3any5PyAnyEE15copy_from_sliceCsaYfPqFfImBE_4dprs, symObjAddr: 0x5BC, symBinAddr: 0x16AF8, symSize: 0x34 }
  - { offsetInCU: 0x34A5, offset: 0x491CE, size: 0x8, addend: 0x0, symName: __RNvMNtCs2tD97QJu26F_4core5sliceSINtNtB4_6option6OptionINtNtCsF7gmULBm3O_4pyo38instance8BorrowedNtNtNtBV_5types3any5PyAnyEE18split_at_uncheckedCsaYfPqFfImBE_4dprs, symObjAddr: 0x5F0, symBinAddr: 0x16B2C, symSize: 0xE8 }
  - { offsetInCU: 0x35EA, offset: 0x49313, size: 0x8, addend: 0x0, symName: __RNvMNtCs2tD97QJu26F_4core5sliceSINtNtB4_6option6OptionINtNtCsF7gmULBm3O_4pyo38instance8BorrowedNtNtNtBV_5types3any5PyAnyEE8split_atCsaYfPqFfImBE_4dprs, symObjAddr: 0x6D8, symBinAddr: 0x16C14, symSize: 0xAC }
  - { offsetInCU: 0x49DA, offset: 0x4A703, size: 0x8, addend: 0x0, symName: __RINvMNtCs2tD97QJu26F_4core6optionINtB3_6OptionINtNtCsF7gmULBm3O_4pyo38instance8BorrowedNtNtNtBN_5types3any5PyAnyEE3mapIBJ_NtNtB1r_5tuple7PyTupleENCINvMs5_NtNtBN_5impl_16extract_argumentNtB2s_19FunctionDescription26extract_arguments_fastcallNtB2s_9NoVarargsNtB2s_13NoVarkeywordsE0ECsaYfPqFfImBE_4dprs, symObjAddr: 0x0, symBinAddr: 0x1653C, symSize: 0x50 }
  - { offsetInCU: 0x4A52, offset: 0x4A77B, size: 0x8, addend: 0x0, symName: __RINvMNtCs2tD97QJu26F_4core6optionINtB3_6OptionINtNtNtB5_3ptr8non_null7NonNullNtNtCsqz1hv0UmID_8pyo3_ffi6object8PyObjectEE3mapINtNtCsF7gmULBm3O_4pyo38instance8BorrowedNtNtNtB24_5types3any5PyAnyENCNvMsd_B22_B1Z_15from_ptr_or_opt0ECsaYfPqFfImBE_4dprs, symObjAddr: 0x50, symBinAddr: 0x1658C, symSize: 0x5C }
  - { offsetInCU: 0x4D68, offset: 0x4AA91, size: 0x8, addend: 0x0, symName: __RINvMNtCs2tD97QJu26F_4core6optionINtB3_6OptionNtNtCsF7gmULBm3O_4pyo37pyclass9CompareOpE10ok_or_elseNtNtBM_3err5PyErrNCNvMs7_NtCsaYfPqFfImBE_4dprs10parametersNtB1Y_9Dimension24___pymethod___richcmp____0EB20_, symObjAddr: 0xAC, symBinAddr: 0x165E8, symSize: 0x80 }
  - { offsetInCU: 0x4DD3, offset: 0x4AAFC, size: 0x8, addend: 0x0, symName: __RINvMNtCs2tD97QJu26F_4core6optionINtB3_6OptionNtNtCsF7gmULBm3O_4pyo37pyclass9CompareOpE10ok_or_elseNtNtBM_3err5PyErrNCNvMsH_NtCsaYfPqFfImBE_4dprs10parametersNtB1Y_10Processing24___pymethod___richcmp____0EB20_, symObjAddr: 0x12C, symBinAddr: 0x16668, symSize: 0x80 }
  - { offsetInCU: 0x4E3E, offset: 0x4AB67, size: 0x8, addend: 0x0, symName: __RINvMNtCs2tD97QJu26F_4core6optionINtB3_6OptionNtNtCsF7gmULBm3O_4pyo37pyclass9CompareOpE10ok_or_elseNtNtBM_3err5PyErrNCNvMsj_NtCsaYfPqFfImBE_4dprs10parametersNtB1Y_8Topology24___pymethod___richcmp____0EB20_, symObjAddr: 0x1AC, symBinAddr: 0x166E8, symSize: 0x80 }
  - { offsetInCU: 0x4EA9, offset: 0x4ABD2, size: 0x8, addend: 0x0, symName: __RINvMNtCs2tD97QJu26F_4core6optionINtB3_6OptionNtNtCsF7gmULBm3O_4pyo37pyclass9CompareOpE10ok_or_elseNtNtBM_3err5PyErrNCNvMsv_NtCsaYfPqFfImBE_4dprs10parametersNtB1Y_17BoundaryCondition24___pymethod___richcmp____0EB20_, symObjAddr: 0x22C, symBinAddr: 0x16768, symSize: 0x80 }
  - { offsetInCU: 0x523E, offset: 0x4AF67, size: 0x8, addend: 0x0, symName: __RINvMNtCs2tD97QJu26F_4core6optionINtB3_6OptionRINtNtCsF7gmULBm3O_4pyo38instance2PyNtNtCsaYfPqFfImBE_4dprs10parameters10ProcessingEE11map_or_elseINtNtB5_6result6ResultBI_NtNtBO_3err5PyErrENCINvMNtNtBO_4sync9once_lockINtB35_10PyOnceLockBJ_E15get_or_try_initNCNvXsE_B1k_B1i_NtNtBO_10conversion12IntoPyObject13into_pyobject0B2H_E0NcNtB2i_2Ok0EB1m_, symObjAddr: 0x2AC, symBinAddr: 0x167E8, symSize: 0xC4 }
  - { offsetInCU: 0x52F4, offset: 0x4B01D, size: 0x8, addend: 0x0, symName: __RINvMNtCs2tD97QJu26F_4core6optionINtB3_6OptionRINtNtCsF7gmULBm3O_4pyo38instance2PyNtNtCsaYfPqFfImBE_4dprs10parameters17BoundaryConditionEE11map_or_elseINtNtB5_6result6ResultBI_NtNtBO_3err5PyErrENCINvMNtNtBO_4sync9once_lockINtB3c_10PyOnceLockBJ_E15get_or_try_initNCNvXss_B1k_B1i_NtNtBO_10conversion12IntoPyObject13into_pyobject0B2O_E0NcNtB2p_2Ok0EB1m_, symObjAddr: 0x370, symBinAddr: 0x168AC, symSize: 0xC4 }
  - { offsetInCU: 0x53AA, offset: 0x4B0D3, size: 0x8, addend: 0x0, symName: __RINvMNtCs2tD97QJu26F_4core6optionINtB3_6OptionRINtNtCsF7gmULBm3O_4pyo38instance2PyNtNtCsaYfPqFfImBE_4dprs10parameters8TopologyEE11map_or_elseINtNtB5_6result6ResultBI_NtNtBO_3err5PyErrENCINvMNtNtBO_4sync9once_lockINtB32_10PyOnceLockBJ_E15get_or_try_initNCNvXsg_B1k_B1i_NtNtBO_10conversion12IntoPyObject13into_pyobject0B2E_E0NcNtB2f_2Ok0EB1m_, symObjAddr: 0x434, symBinAddr: 0x16970, symSize: 0xC4 }
  - { offsetInCU: 0x5460, offset: 0x4B189, size: 0x8, addend: 0x0, symName: __RINvMNtCs2tD97QJu26F_4core6optionINtB3_6OptionRINtNtCsF7gmULBm3O_4pyo38instance2PyNtNtCsaYfPqFfImBE_4dprs10parameters9DimensionEE11map_or_elseINtNtB5_6result6ResultBI_NtNtBO_3err5PyErrENCINvMNtNtBO_4sync9once_lockINtB33_10PyOnceLockBJ_E15get_or_try_initNCNvXs4_B1k_B1i_NtNtBO_10conversion12IntoPyObject13into_pyobject0B2F_E0NcNtB2g_2Ok0EB1m_, symObjAddr: 0x4F8, symBinAddr: 0x16A34, symSize: 0xC4 }
  - { offsetInCU: 0x5543, offset: 0x4B26C, size: 0x8, addend: 0x0, symName: __RNvMNtCs2tD97QJu26F_4core6optionINtB2_6OptionINtNtCsF7gmULBm3O_4pyo38instance2PyNtNtCsaYfPqFfImBE_4dprs10parameters10ProcessingEE6as_refB1k_, symObjAddr: 0x784, symBinAddr: 0x16CC0, symSize: 0x4C }
  - { offsetInCU: 0x559A, offset: 0x4B2C3, size: 0x8, addend: 0x0, symName: __RNvMNtCs2tD97QJu26F_4core6optionINtB2_6OptionINtNtCsF7gmULBm3O_4pyo38instance2PyNtNtCsaYfPqFfImBE_4dprs10parameters17BoundaryConditionEE6as_refB1k_, symObjAddr: 0x7D0, symBinAddr: 0x16D0C, symSize: 0x4C }
  - { offsetInCU: 0x55F1, offset: 0x4B31A, size: 0x8, addend: 0x0, symName: __RNvMNtCs2tD97QJu26F_4core6optionINtB2_6OptionINtNtCsF7gmULBm3O_4pyo38instance2PyNtNtCsaYfPqFfImBE_4dprs10parameters8TopologyEE6as_refB1k_, symObjAddr: 0x81C, symBinAddr: 0x16D58, symSize: 0x4C }
  - { offsetInCU: 0x5648, offset: 0x4B371, size: 0x8, addend: 0x0, symName: __RNvMNtCs2tD97QJu26F_4core6optionINtB2_6OptionINtNtCsF7gmULBm3O_4pyo38instance2PyNtNtCsaYfPqFfImBE_4dprs10parameters9DimensionEE6as_refB1k_, symObjAddr: 0x868, symBinAddr: 0x16DA4, symSize: 0x4C }
  - { offsetInCU: 0x574B, offset: 0x4B474, size: 0x8, addend: 0x0, symName: __RNvMNtCs2tD97QJu26F_4core6optionINtB2_6OptionINtNtCsF7gmULBm3O_4pyo38instance8BorrowedNtNtNtBM_5types3any5PyAnyEE6insertCsaYfPqFfImBE_4dprs, symObjAddr: 0x8B4, symBinAddr: 0x16DF0, symSize: 0x7C }
  - { offsetInCU: 0x57EE, offset: 0x4B517, size: 0x8, addend: 0x0, symName: __RNvMNtCs2tD97QJu26F_4core6optionINtB2_6OptionINtNtCsF7gmULBm3O_4pyo38instance8BorrowedNtNtNtBM_5types3any5PyAnyEE7is_someCsaYfPqFfImBE_4dprs, symObjAddr: 0x930, symBinAddr: 0x16E6C, symSize: 0x28 }
  - { offsetInCU: 0x581A, offset: 0x4B543, size: 0x8, addend: 0x0, symName: __RNvMNtCs2tD97QJu26F_4core6optionINtB2_6OptionINtNtCsF7gmULBm3O_4pyo38instance8BorrowedNtNtNtBM_5types3any5PyAnyEE7replaceCsaYfPqFfImBE_4dprs, symObjAddr: 0x958, symBinAddr: 0x16E94, symSize: 0x28 }
  - { offsetInCU: 0x592D, offset: 0x4B656, size: 0x8, addend: 0x0, symName: __RNvMNtCs2tD97QJu26F_4core6optionINtB2_6OptionINtNtCsF7gmULBm3O_4pyo38instance8BorrowedNtNtNtBM_5types3any5PyAnyEE8as_derefCsaYfPqFfImBE_4dprs, symObjAddr: 0x980, symBinAddr: 0x16EBC, symSize: 0x6C }
  - { offsetInCU: 0x5A46, offset: 0x4B76F, size: 0x8, addend: 0x0, symName: __RNvMNtCs2tD97QJu26F_4core6optionINtB2_6OptionINtNtNtCsF7gmULBm3O_4pyo37pyclass5guard12PyClassGuardNtNtCsaYfPqFfImBE_4dprs10parameters10ProcessingEE6insertB1C_, symObjAddr: 0x9EC, symBinAddr: 0x16F28, symSize: 0xA8 }
  - { offsetInCU: 0x5B4C, offset: 0x4B875, size: 0x8, addend: 0x0, symName: __RNvMNtCs2tD97QJu26F_4core6optionINtB2_6OptionINtNtNtCsF7gmULBm3O_4pyo37pyclass5guard12PyClassGuardNtNtCsaYfPqFfImBE_4dprs10parameters17BoundaryConditionEE6insertB1C_, symObjAddr: 0xA94, symBinAddr: 0x16FD0, symSize: 0xA8 }
  - { offsetInCU: 0x5C52, offset: 0x4B97B, size: 0x8, addend: 0x0, symName: __RNvMNtCs2tD97QJu26F_4core6optionINtB2_6OptionINtNtNtCsF7gmULBm3O_4pyo37pyclass5guard12PyClassGuardNtNtCsaYfPqFfImBE_4dprs10parameters8TopologyEE6insertB1C_, symObjAddr: 0xB3C, symBinAddr: 0x17078, symSize: 0xA8 }
  - { offsetInCU: 0x5D58, offset: 0x4BA81, size: 0x8, addend: 0x0, symName: __RNvMNtCs2tD97QJu26F_4core6optionINtB2_6OptionINtNtNtCsF7gmULBm3O_4pyo37pyclass5guard12PyClassGuardNtNtCsaYfPqFfImBE_4dprs10parameters9DimensionEE6insertB1C_, symObjAddr: 0xBE4, symBinAddr: 0x17120, symSize: 0xA8 }
  - { offsetInCU: 0x603E, offset: 0x4BD67, size: 0x8, addend: 0x0, symName: __RNvMNtCs2tD97QJu26F_4core6optionINtB2_6OptionNCINvMs4_NtCs9PXnr41oVbh_10rayon_core8registryNtBQ_8Registry15in_worker_crossNCINvMNtBS_11thread_poolNtB22_10ThreadPool7installNCNvNtCsaYfPqFfImBE_4dprs2dp14run_simulation0TjINtNtCs9xDkXAC1PNF_5alloc3vec3VecIB3w_bEEEE0B3t_E0E4takeB2Q_, symObjAddr: 0xC8C, symBinAddr: 0x171C8, symSize: 0x60 }
  - { offsetInCU: 0x6095, offset: 0x4BDBE, size: 0x8, addend: 0x0, symName: __RNvMNtCs2tD97QJu26F_4core6optionINtB2_6OptionNCINvMs4_NtCs9PXnr41oVbh_10rayon_core8registryNtBQ_8Registry15in_worker_crossNCINvMNtBS_11thread_poolNtB22_10ThreadPool7installNCNvNtCsaYfPqFfImBE_4dprs4life14run_simulation0TjINtNtCs9xDkXAC1PNF_5alloc3vec3VecIB3y_bEEEE0B3v_E0E4takeB2Q_, symObjAddr: 0xCEC, symBinAddr: 0x17228, symSize: 0x60 }
  - { offsetInCU: 0x6462, offset: 0x4C18B, size: 0x8, addend: 0x0, symName: __RNvMNtCs2tD97QJu26F_4core6optionINtB2_6OptionNCINvMs4_NtCs9PXnr41oVbh_10rayon_core8registryNtBQ_8Registry15in_worker_crossNCINvNtBS_4join12join_contextNCINvNvNtNtCslkboY0IC5z6_5rayon4iter8plumbing24bridge_producer_consumer6helperINtNtB2A_5range12IterProducerjEINtNtB2y_3map11MapConsumerINtNtNtB2y_7collect8consumer15CollectConsumerbENCNvMNtNtCsaYfPqFfImBE_4dprs4life8model_2dINtB5q_14LatticeModel2DNtNtB5s_10life_model9LifeModelE23next_iteration_parallel0EE0NCB2r_s_0INtB4D_13CollectResultbEB7v_E0TB7v_B7v_EE0E4takeB5u_, symObjAddr: 0xD4C, symBinAddr: 0x17288, symSize: 0x5C }
  - { offsetInCU: 0x64B9, offset: 0x4C1E2, size: 0x8, addend: 0x0, symName: __RNvMNtCs2tD97QJu26F_4core6optionINtB2_6OptionNCINvMs4_NtCs9PXnr41oVbh_10rayon_core8registryNtBQ_8Registry15in_worker_crossNCINvNtBS_4join12join_contextNCINvNvNtNtCslkboY0IC5z6_5rayon4iter8plumbing24bridge_producer_consumer6helperINtNtB2A_5range12IterProducerjEINtNtB2y_3map11MapConsumerNtNtB2y_6extend15ListVecConsumerNCNvMNtNtCsaYfPqFfImBE_4dprs4life8model_2dINtB5b_14LatticeModel2DNtNtB5d_10life_model9LifeModelE23next_iteration_parallel0EE0NCB2r_s_0INtNtNtCs9xDkXAC1PNF_5alloc11collections11linked_list10LinkedListINtNtB7n_3vec3VecbEEB7g_E0TB7g_B7g_EE0E4takeB5f_, symObjAddr: 0xDA8, symBinAddr: 0x172E4, symSize: 0x5C }
  - { offsetInCU: 0x6544, offset: 0x4C26D, size: 0x8, addend: 0x0, symName: __RNvMNtCs2tD97QJu26F_4core6optionINtB2_6OptionNCINvMs4_NtCs9PXnr41oVbh_10rayon_core8registryNtBQ_8Registry15in_worker_crossNCINvNtBS_4join12join_contextNCINvNvNtNtCslkboY0IC5z6_5rayon4iter8plumbing24bridge_producer_consumer6helperINtNtB2y_9enumerate17EnumerateProducerINtNtNtB2A_5slice6chunks17ChunksMutProducerbEEINtNtB2y_8for_each15ForEachConsumerNCNvMNtNtCsaYfPqFfImBE_4dprs4life8model_2dINtB5F_14LatticeModel2DNtNtB5H_10life_model9LifeModelE31next_iteration_parallel_chunked0EE0NCB2r_s_0uuE0TuuEE0E4takeB5J_, symObjAddr: 0xE04, symBinAddr: 0x17340, symSize: 0x5C }
  - { offsetInCU: 0x65A8, offset: 0x4C2D1, size: 0x8, addend: 0x0, symName: __RNvMNtCs2tD97QJu26F_4core6optionINtB2_6OptionNCINvNtNtCsF7gmULBm3O_4pyo34sync9once_lock30try_init_once_cell_py_attachedNCNvXs4_NtCsaYfPqFfImBE_4dprs10parametersNtB21_9DimensionNtNtBQ_10conversion12IntoPyObject13into_pyobject0INtNtBQ_8instance2PyB2y_ENtNtBQ_3err5PyErrE0E16unwrap_uncheckedB23_, symObjAddr: 0xE60, symBinAddr: 0x1739C, symSize: 0x60 }
  - { offsetInCU: 0x65F7, offset: 0x4C320, size: 0x8, addend: 0x0, symName: __RNvMNtCs2tD97QJu26F_4core6optionINtB2_6OptionNCINvNtNtCsF7gmULBm3O_4pyo34sync9once_lock30try_init_once_cell_py_attachedNCNvXs4_NtCsaYfPqFfImBE_4dprs10parametersNtB21_9DimensionNtNtBQ_10conversion12IntoPyObject13into_pyobject0INtNtBQ_8instance2PyB2y_ENtNtBQ_3err5PyErrE0E4takeB23_, symObjAddr: 0xEC0, symBinAddr: 0x173FC, symSize: 0x3C }
  - { offsetInCU: 0x6641, offset: 0x4C36A, size: 0x8, addend: 0x0, symName: __RNvMNtCs2tD97QJu26F_4core6optionINtB2_6OptionNCINvNtNtCsF7gmULBm3O_4pyo34sync9once_lock30try_init_once_cell_py_attachedNCNvXsE_NtCsaYfPqFfImBE_4dprs10parametersNtB21_10ProcessingNtNtBQ_10conversion12IntoPyObject13into_pyobject0INtNtBQ_8instance2PyB2y_ENtNtBQ_3err5PyErrE0E16unwrap_uncheckedB23_, symObjAddr: 0xEFC, symBinAddr: 0x17438, symSize: 0x60 }
  - { offsetInCU: 0x6690, offset: 0x4C3B9, size: 0x8, addend: 0x0, symName: __RNvMNtCs2tD97QJu26F_4core6optionINtB2_6OptionNCINvNtNtCsF7gmULBm3O_4pyo34sync9once_lock30try_init_once_cell_py_attachedNCNvXsE_NtCsaYfPqFfImBE_4dprs10parametersNtB21_10ProcessingNtNtBQ_10conversion12IntoPyObject13into_pyobject0INtNtBQ_8instance2PyB2y_ENtNtBQ_3err5PyErrE0E4takeB23_, symObjAddr: 0xF5C, symBinAddr: 0x17498, symSize: 0x3C }
  - { offsetInCU: 0x66DA, offset: 0x4C403, size: 0x8, addend: 0x0, symName: __RNvMNtCs2tD97QJu26F_4core6optionINtB2_6OptionNCINvNtNtCsF7gmULBm3O_4pyo34sync9once_lock30try_init_once_cell_py_attachedNCNvXsg_NtCsaYfPqFfImBE_4dprs10parametersNtB21_8TopologyNtNtBQ_10conversion12IntoPyObject13into_pyobject0INtNtBQ_8instance2PyB2y_ENtNtBQ_3err5PyErrE0E16unwrap_uncheckedB23_, symObjAddr: 0xF98, symBinAddr: 0x174D4, symSize: 0x60 }
  - { offsetInCU: 0x6729, offset: 0x4C452, size: 0x8, addend: 0x0, symName: __RNvMNtCs2tD97QJu26F_4core6optionINtB2_6OptionNCINvNtNtCsF7gmULBm3O_4pyo34sync9once_lock30try_init_once_cell_py_attachedNCNvXsg_NtCsaYfPqFfImBE_4dprs10parametersNtB21_8TopologyNtNtBQ_10conversion12IntoPyObject13into_pyobject0INtNtBQ_8instance2PyB2y_ENtNtBQ_3err5PyErrE0E4takeB23_, symObjAddr: 0xFF8, symBinAddr: 0x17534, symSize: 0x3C }
  - { offsetInCU: 0x6773, offset: 0x4C49C, size: 0x8, addend: 0x0, symName: __RNvMNtCs2tD97QJu26F_4core6optionINtB2_6OptionNCINvNtNtCsF7gmULBm3O_4pyo34sync9once_lock30try_init_once_cell_py_attachedNCNvXss_NtCsaYfPqFfImBE_4dprs10parametersNtB21_17BoundaryConditionNtNtBQ_10conversion12IntoPyObject13into_pyobject0INtNtBQ_8instance2PyB2y_ENtNtBQ_3err5PyErrE0E16unwrap_uncheckedB23_, symObjAddr: 0x1034, symBinAddr: 0x17570, symSize: 0x60 }
  - { offsetInCU: 0x67C2, offset: 0x4C4EB, size: 0x8, addend: 0x0, symName: __RNvMNtCs2tD97QJu26F_4core6optionINtB2_6OptionNCINvNtNtCsF7gmULBm3O_4pyo34sync9once_lock30try_init_once_cell_py_attachedNCNvXss_NtCsaYfPqFfImBE_4dprs10parametersNtB21_17BoundaryConditionNtNtBQ_10conversion12IntoPyObject13into_pyobject0INtNtBQ_8instance2PyB2y_ENtNtBQ_3err5PyErrE0E4takeB23_, symObjAddr: 0x1094, symBinAddr: 0x175D0, symSize: 0x3C }
  - { offsetInCU: 0x6819, offset: 0x4C542, size: 0x8, addend: 0x0, symName: __RNvMNtCs2tD97QJu26F_4core6optionINtB2_6OptionNCINvNvNtCs9PXnr41oVbh_10rayon_core4join12join_context6call_bINtNtNtCs9xDkXAC1PNF_5alloc11collections11linked_list10LinkedListINtNtB1N_3vec3VecbEENCINvNvNtNtCslkboY0IC5z6_5rayon4iter8plumbing24bridge_producer_consumer6helperINtNtB3e_5range12IterProducerjEINtNtB3c_3map11MapConsumerNtNtB3c_6extend15ListVecConsumerNCNvMNtNtCsaYfPqFfImBE_4dprs4life8model_2dINtB5P_14LatticeModel2DNtNtB5R_10life_model9LifeModelE23next_iteration_parallel0EEs_0E0E4takeB5T_, symObjAddr: 0x10D0, symBinAddr: 0x1760C, symSize: 0x5C }
  - { offsetInCU: 0x6870, offset: 0x4C599, size: 0x8, addend: 0x0, symName: __RNvMNtCs2tD97QJu26F_4core6optionINtB2_6OptionNCINvNvNtCs9PXnr41oVbh_10rayon_core4join12join_context6call_bINtNtNtNtCslkboY0IC5z6_5rayon4iter7collect8consumer13CollectResultbENCINvNvNtB1N_8plumbing24bridge_producer_consumer6helperINtNtB1P_5range12IterProducerjEINtNtB1N_3map11MapConsumerINtB1J_15CollectConsumerbENCNvMNtNtCsaYfPqFfImBE_4dprs4life8model_2dINtB55_14LatticeModel2DNtNtB57_10life_model9LifeModelE23next_iteration_parallel0EEs_0E0E4takeB59_, symObjAddr: 0x112C, symBinAddr: 0x17668, symSize: 0x5C }
  - { offsetInCU: 0x68C7, offset: 0x4C5F0, size: 0x8, addend: 0x0, symName: __RNvMNtCs2tD97QJu26F_4core6optionINtB2_6OptionNCINvNvNtCs9PXnr41oVbh_10rayon_core4join12join_context6call_buNCINvNvNtNtCslkboY0IC5z6_5rayon4iter8plumbing24bridge_producer_consumer6helperINtNtB1Q_9enumerate17EnumerateProducerINtNtNtB1S_5slice6chunks17ChunksMutProducerbEEINtNtB1Q_8for_each15ForEachConsumerNCNvMNtNtCsaYfPqFfImBE_4dprs4life8model_2dINtB4X_14LatticeModel2DNtNtB4Z_10life_model9LifeModelE31next_iteration_parallel_chunked0EEs_0E0E4takeB51_, symObjAddr: 0x1188, symBinAddr: 0x176C4, symSize: 0x5C }
  - { offsetInCU: 0x691E, offset: 0x4C647, size: 0x8, addend: 0x0, symName: __RNvMNtCs2tD97QJu26F_4core6optionINtB2_6OptionNCNCINvMs4_NtCs9PXnr41oVbh_10rayon_core8registryNtBS_8Registry14in_worker_coldNCINvMNtBU_11thread_poolNtB23_10ThreadPool7installNCNvNtCsaYfPqFfImBE_4dprs2dp14run_simulation0TjINtNtCs9xDkXAC1PNF_5alloc3vec3VecIB3x_bEEEE0B3u_E00E4takeB2R_, symObjAddr: 0x11E4, symBinAddr: 0x17720, symSize: 0x60 }
  - { offsetInCU: 0x6975, offset: 0x4C69E, size: 0x8, addend: 0x0, symName: __RNvMNtCs2tD97QJu26F_4core6optionINtB2_6OptionNCNCINvMs4_NtCs9PXnr41oVbh_10rayon_core8registryNtBS_8Registry14in_worker_coldNCINvMNtBU_11thread_poolNtB23_10ThreadPool7installNCNvNtCsaYfPqFfImBE_4dprs4life14run_simulation0TjINtNtCs9xDkXAC1PNF_5alloc3vec3VecIB3z_bEEEE0B3w_E00E4takeB2R_, symObjAddr: 0x1244, symBinAddr: 0x17780, symSize: 0x60 }
  - { offsetInCU: 0x69CC, offset: 0x4C6F5, size: 0x8, addend: 0x0, symName: __RNvMNtCs2tD97QJu26F_4core6optionINtB2_6OptionNCNCINvMs4_NtCs9PXnr41oVbh_10rayon_core8registryNtBS_8Registry14in_worker_coldNCINvNtBU_4join12join_contextNCINvNvNtNtCslkboY0IC5z6_5rayon4iter8plumbing24bridge_producer_consumer6helperINtNtB2B_5range12IterProducerjEINtNtB2z_3map11MapConsumerINtNtNtB2z_7collect8consumer15CollectConsumerbENCNvMNtNtCsaYfPqFfImBE_4dprs4life8model_2dINtB5r_14LatticeModel2DNtNtB5t_10life_model9LifeModelE23next_iteration_parallel0EE0NCB2s_s_0INtB4E_13CollectResultbEB7w_E0TB7w_B7w_EE00E4takeB5v_, symObjAddr: 0x12A4, symBinAddr: 0x177E0, symSize: 0x5C }
  - { offsetInCU: 0x6A23, offset: 0x4C74C, size: 0x8, addend: 0x0, symName: __RNvMNtCs2tD97QJu26F_4core6optionINtB2_6OptionNCNCINvMs4_NtCs9PXnr41oVbh_10rayon_core8registryNtBS_8Registry14in_worker_coldNCINvNtBU_4join12join_contextNCINvNvNtNtCslkboY0IC5z6_5rayon4iter8plumbing24bridge_producer_consumer6helperINtNtB2B_5range12IterProducerjEINtNtB2z_3map11MapConsumerNtNtB2z_6extend15ListVecConsumerNCNvMNtNtCsaYfPqFfImBE_4dprs4life8model_2dINtB5c_14LatticeModel2DNtNtB5e_10life_model9LifeModelE23next_iteration_parallel0EE0NCB2s_s_0INtNtNtCs9xDkXAC1PNF_5alloc11collections11linked_list10LinkedListINtNtB7o_3vec3VecbEEB7h_E0TB7h_B7h_EE00E4takeB5g_, symObjAddr: 0x1300, symBinAddr: 0x1783C, symSize: 0x5C }
  - { offsetInCU: 0x6A7A, offset: 0x4C7A3, size: 0x8, addend: 0x0, symName: __RNvMNtCs2tD97QJu26F_4core6optionINtB2_6OptionNCNCINvMs4_NtCs9PXnr41oVbh_10rayon_core8registryNtBS_8Registry14in_worker_coldNCINvNtBU_4join12join_contextNCINvNvNtNtCslkboY0IC5z6_5rayon4iter8plumbing24bridge_producer_consumer6helperINtNtB2z_9enumerate17EnumerateProducerINtNtNtB2B_5slice6chunks17ChunksMutProducerbEEINtNtB2z_8for_each15ForEachConsumerNCNvMNtNtCsaYfPqFfImBE_4dprs4life8model_2dINtB5G_14LatticeModel2DNtNtB5I_10life_model9LifeModelE31next_iteration_parallel_chunked0EE0NCB2s_s_0uuE0TuuEE00E4takeB5K_, symObjAddr: 0x135C, symBinAddr: 0x17898, symSize: 0x5C }
  - { offsetInCU: 0x6AC4, offset: 0x4C7ED, size: 0x8, addend: 0x0, symName: __RNvMNtCs2tD97QJu26F_4core6optionINtB2_6OptionRINtNtCsF7gmULBm3O_4pyo38instance2PyNtNtCsaYfPqFfImBE_4dprs10parameters10ProcessingEE16unwrap_uncheckedB1l_, symObjAddr: 0x13B8, symBinAddr: 0x178F4, symSize: 0x4C }
  - { offsetInCU: 0x6B05, offset: 0x4C82E, size: 0x8, addend: 0x0, symName: __RNvMNtCs2tD97QJu26F_4core6optionINtB2_6OptionRINtNtCsF7gmULBm3O_4pyo38instance2PyNtNtCsaYfPqFfImBE_4dprs10parameters17BoundaryConditionEE16unwrap_uncheckedB1l_, symObjAddr: 0x1404, symBinAddr: 0x17940, symSize: 0x4C }
  - { offsetInCU: 0x6B46, offset: 0x4C86F, size: 0x8, addend: 0x0, symName: __RNvMNtCs2tD97QJu26F_4core6optionINtB2_6OptionRINtNtCsF7gmULBm3O_4pyo38instance2PyNtNtCsaYfPqFfImBE_4dprs10parameters8TopologyEE16unwrap_uncheckedB1l_, symObjAddr: 0x1450, symBinAddr: 0x1798C, symSize: 0x4C }
  - { offsetInCU: 0x6B87, offset: 0x4C8B0, size: 0x8, addend: 0x0, symName: __RNvMNtCs2tD97QJu26F_4core6optionINtB2_6OptionRINtNtCsF7gmULBm3O_4pyo38instance2PyNtNtCsaYfPqFfImBE_4dprs10parameters9DimensionEE16unwrap_uncheckedB1l_, symObjAddr: 0x149C, symBinAddr: 0x179D8, symSize: 0x4C }
  - { offsetInCU: 0x1E, offset: 0x4C92D, size: 0x8, addend: 0x0, symName: __RNCNvNtNtNtCsF7gmULBm3O_4pyo35impl_10trampoline32fastcall_cfunction_with_keywords5inner0CsaYfPqFfImBE_4dprs, symObjAddr: 0x0, symBinAddr: 0x17A3C, symSize: 0x48 }
  - { offsetInCU: 0x14C8, offset: 0x4DDD7, size: 0x8, addend: 0x0, symName: __RNCNvNtNtNtCsF7gmULBm3O_4pyo35impl_10trampoline32fastcall_cfunction_with_keywords5inner0CsaYfPqFfImBE_4dprs, symObjAddr: 0x0, symBinAddr: 0x17A3C, symSize: 0x48 }
  - { offsetInCU: 0x1E, offset: 0x4E6EC, size: 0x8, addend: 0x0, symName: __RINvYbNtNtCsF7gmULBm3O_4pyo310conversion12IntoPyObject28owned_sequence_into_pyobjectINtNtCs9xDkXAC1PNF_5alloc3vec3VecbEECsaYfPqFfImBE_4dprs, symObjAddr: 0x0, symBinAddr: 0x17A84, symSize: 0xDC }
  - { offsetInCU: 0x1816, offset: 0x4FEE4, size: 0x8, addend: 0x0, symName: __RINvYbNtNtCsF7gmULBm3O_4pyo310conversion12IntoPyObject28owned_sequence_into_pyobjectINtNtCs9xDkXAC1PNF_5alloc3vec3VecbEECsaYfPqFfImBE_4dprs, symObjAddr: 0x0, symBinAddr: 0x17A84, symSize: 0xDC }
  - { offsetInCU: 0x18B2, offset: 0x4FF80, size: 0x8, addend: 0x0, symName: __RNCINvYINtNtCs9xDkXAC1PNF_5alloc3vec3VecbENtNtCsF7gmULBm3O_4pyo310conversion12IntoPyObject28owned_sequence_into_pyobjectIB6_B5_EE0CsaYfPqFfImBE_4dprs, symObjAddr: 0xDC, symBinAddr: 0x17B60, symSize: 0x34 }
  - { offsetInCU: 0x190A, offset: 0x4FFD8, size: 0x8, addend: 0x0, symName: __RNCINvYbNtNtCsF7gmULBm3O_4pyo310conversion12IntoPyObject28owned_sequence_into_pyobjectINtNtCs9xDkXAC1PNF_5alloc3vec3VecbEE0CsaYfPqFfImBE_4dprs, symObjAddr: 0x110, symBinAddr: 0x17B94, symSize: 0x2C }
  - { offsetInCU: 0x198E, offset: 0x5005C, size: 0x8, addend: 0x0, symName: __RNvYbNtNtCsF7gmULBm3O_4pyo310conversion15IntoPyObjectExt11into_py_anyCsaYfPqFfImBE_4dprs, symObjAddr: 0x13C, symBinAddr: 0x17BC0, symSize: 0x4C }
  - { offsetInCU: 0x19FA, offset: 0x500C8, size: 0x8, addend: 0x0, symName: __RNvYbNtNtCsF7gmULBm3O_4pyo310conversion15IntoPyObjectExt17into_bound_py_anyCsaYfPqFfImBE_4dprs, symObjAddr: 0x188, symBinAddr: 0x17C0C, symSize: 0x4C }
  - { offsetInCU: 0x1A65, offset: 0x50133, size: 0x8, addend: 0x0, symName: __RNvYjNtNtCsF7gmULBm3O_4pyo310conversion15IntoPyObjectExt17into_bound_py_anyCsaYfPqFfImBE_4dprs, symObjAddr: 0x1D4, symBinAddr: 0x17C58, symSize: 0x4C }
  - { offsetInCU: 0x1E, offset: 0x50D92, size: 0x8, addend: 0x0, symName: __RINvNtNtCsF7gmULBm3O_4pyo35impl_7pyclass10tp_deallocNtNtCsaYfPqFfImBE_4dprs10parameters10ProcessingEBS_, symObjAddr: 0x0, symBinAddr: 0x17CA4, symSize: 0x34 }
  - { offsetInCU: 0x171E, offset: 0x52492, size: 0x8, addend: 0x0, symName: __RINvNtNtCsF7gmULBm3O_4pyo35impl_7pyclass10tp_deallocNtNtCsaYfPqFfImBE_4dprs10parameters10ProcessingEBS_, symObjAddr: 0x0, symBinAddr: 0x17CA4, symSize: 0x34 }
  - { offsetInCU: 0x1751, offset: 0x524C5, size: 0x8, addend: 0x0, symName: __RINvNtNtCsF7gmULBm3O_4pyo35impl_7pyclass10tp_deallocNtNtCsaYfPqFfImBE_4dprs10parameters17BoundaryConditionEBS_, symObjAddr: 0x34, symBinAddr: 0x17CD8, symSize: 0x34 }
  - { offsetInCU: 0x1784, offset: 0x524F8, size: 0x8, addend: 0x0, symName: __RINvNtNtCsF7gmULBm3O_4pyo35impl_7pyclass10tp_deallocNtNtCsaYfPqFfImBE_4dprs10parameters8TopologyEBS_, symObjAddr: 0x68, symBinAddr: 0x17D0C, symSize: 0x34 }
  - { offsetInCU: 0x17B7, offset: 0x5252B, size: 0x8, addend: 0x0, symName: __RINvNtNtCsF7gmULBm3O_4pyo35impl_7pyclass10tp_deallocNtNtCsaYfPqFfImBE_4dprs10parameters9DimensionEBS_, symObjAddr: 0x9C, symBinAddr: 0x17D40, symSize: 0x34 }
  - { offsetInCU: 0x17EA, offset: 0x5255E, size: 0x8, addend: 0x0, symName: __RINvNtNtCsF7gmULBm3O_4pyo35impl_7pyclass18tp_dealloc_with_gcNtNtCsaYfPqFfImBE_4dprs10parameters10ProcessingEB10_, symObjAddr: 0xD0, symBinAddr: 0x17D74, symSize: 0x4C }
  - { offsetInCU: 0x183B, offset: 0x525AF, size: 0x8, addend: 0x0, symName: __RINvNtNtCsF7gmULBm3O_4pyo35impl_7pyclass18tp_dealloc_with_gcNtNtCsaYfPqFfImBE_4dprs10parameters17BoundaryConditionEB10_, symObjAddr: 0x11C, symBinAddr: 0x17DC0, symSize: 0x4C }
  - { offsetInCU: 0x188C, offset: 0x52600, size: 0x8, addend: 0x0, symName: __RINvNtNtCsF7gmULBm3O_4pyo35impl_7pyclass18tp_dealloc_with_gcNtNtCsaYfPqFfImBE_4dprs10parameters8TopologyEB10_, symObjAddr: 0x168, symBinAddr: 0x17E0C, symSize: 0x4C }
  - { offsetInCU: 0x18DD, offset: 0x52651, size: 0x8, addend: 0x0, symName: __RINvNtNtCsF7gmULBm3O_4pyo35impl_7pyclass18tp_dealloc_with_gcNtNtCsaYfPqFfImBE_4dprs10parameters9DimensionEB10_, symObjAddr: 0x1B4, symBinAddr: 0x17E58, symSize: 0x4C }
  - { offsetInCU: 0x19FF, offset: 0x52773, size: 0x8, addend: 0x0, symName: __RNvXs9_NtNtCsF7gmULBm3O_4pyo35impl_7pyclassRINtB5_20PyClassImplCollectorNtNtCsaYfPqFfImBE_4dprs10parameters10ProcessingEINtB5_9PyMethodsB18_E10py_methodsB1c_, symObjAddr: 0x210, symBinAddr: 0x17EB4, symSize: 0x18 }
  - { offsetInCU: 0x1A36, offset: 0x527AA, size: 0x8, addend: 0x0, symName: __RNvXs9_NtNtCsF7gmULBm3O_4pyo35impl_7pyclassRINtB5_20PyClassImplCollectorNtNtCsaYfPqFfImBE_4dprs10parameters17BoundaryConditionEINtB5_9PyMethodsB18_E10py_methodsB1c_, symObjAddr: 0x228, symBinAddr: 0x17ECC, symSize: 0x18 }
  - { offsetInCU: 0x1A6D, offset: 0x527E1, size: 0x8, addend: 0x0, symName: __RNvXs9_NtNtCsF7gmULBm3O_4pyo35impl_7pyclassRINtB5_20PyClassImplCollectorNtNtCsaYfPqFfImBE_4dprs10parameters8TopologyEINtB5_9PyMethodsB18_E10py_methodsB1c_, symObjAddr: 0x240, symBinAddr: 0x17EE4, symSize: 0x18 }
  - { offsetInCU: 0x1AA4, offset: 0x52818, size: 0x8, addend: 0x0, symName: __RNvXs9_NtNtCsF7gmULBm3O_4pyo35impl_7pyclassRINtB5_20PyClassImplCollectorNtNtCsaYfPqFfImBE_4dprs10parameters9DimensionEINtB5_9PyMethodsB18_E10py_methodsB1c_, symObjAddr: 0x258, symBinAddr: 0x17EFC, symSize: 0x18 }
  - { offsetInCU: 0x1AE1, offset: 0x52855, size: 0x8, addend: 0x0, symName: __RNvXsa_NtNtCsF7gmULBm3O_4pyo35impl_7pyclassNtB5_17NoopThreadCheckerINtB5_20PyClassThreadCheckerNtNtCsaYfPqFfImBE_4dprs10parameters10ProcessingE3newB1z_, symObjAddr: 0x270, symBinAddr: 0x17F14, symSize: 0x4 }
  - { offsetInCU: 0x1B05, offset: 0x52879, size: 0x8, addend: 0x0, symName: __RNvXsa_NtNtCsF7gmULBm3O_4pyo35impl_7pyclassNtB5_17NoopThreadCheckerINtB5_20PyClassThreadCheckerNtNtCsaYfPqFfImBE_4dprs10parameters10ProcessingE6ensureB1z_, symObjAddr: 0x274, symBinAddr: 0x17F18, symSize: 0x10 }
  - { offsetInCU: 0x1B38, offset: 0x528AC, size: 0x8, addend: 0x0, symName: __RNvXsa_NtNtCsF7gmULBm3O_4pyo35impl_7pyclassNtB5_17NoopThreadCheckerINtB5_20PyClassThreadCheckerNtNtCsaYfPqFfImBE_4dprs10parameters10ProcessingE8can_dropB1z_, symObjAddr: 0x284, symBinAddr: 0x17F28, symSize: 0x18 }
  - { offsetInCU: 0x1B8A, offset: 0x528FE, size: 0x8, addend: 0x0, symName: __RNvXsa_NtNtCsF7gmULBm3O_4pyo35impl_7pyclassNtB5_17NoopThreadCheckerINtB5_20PyClassThreadCheckerNtNtCsaYfPqFfImBE_4dprs10parameters17BoundaryConditionE3newB1z_, symObjAddr: 0x29C, symBinAddr: 0x17F40, symSize: 0x4 }
  - { offsetInCU: 0x1BAE, offset: 0x52922, size: 0x8, addend: 0x0, symName: __RNvXsa_NtNtCsF7gmULBm3O_4pyo35impl_7pyclassNtB5_17NoopThreadCheckerINtB5_20PyClassThreadCheckerNtNtCsaYfPqFfImBE_4dprs10parameters17BoundaryConditionE6ensureB1z_, symObjAddr: 0x2A0, symBinAddr: 0x17F44, symSize: 0x10 }
  - { offsetInCU: 0x1BE1, offset: 0x52955, size: 0x8, addend: 0x0, symName: __RNvXsa_NtNtCsF7gmULBm3O_4pyo35impl_7pyclassNtB5_17NoopThreadCheckerINtB5_20PyClassThreadCheckerNtNtCsaYfPqFfImBE_4dprs10parameters17BoundaryConditionE8can_dropB1z_, symObjAddr: 0x2B0, symBinAddr: 0x17F54, symSize: 0x18 }
  - { offsetInCU: 0x1C33, offset: 0x529A7, size: 0x8, addend: 0x0, symName: __RNvXsa_NtNtCsF7gmULBm3O_4pyo35impl_7pyclassNtB5_17NoopThreadCheckerINtB5_20PyClassThreadCheckerNtNtCsaYfPqFfImBE_4dprs10parameters8TopologyE3newB1z_, symObjAddr: 0x2C8, symBinAddr: 0x17F6C, symSize: 0x4 }
  - { offsetInCU: 0x1C57, offset: 0x529CB, size: 0x8, addend: 0x0, symName: __RNvXsa_NtNtCsF7gmULBm3O_4pyo35impl_7pyclassNtB5_17NoopThreadCheckerINtB5_20PyClassThreadCheckerNtNtCsaYfPqFfImBE_4dprs10parameters8TopologyE6ensureB1z_, symObjAddr: 0x2CC, symBinAddr: 0x17F70, symSize: 0x10 }
  - { offsetInCU: 0x1C8A, offset: 0x529FE, size: 0x8, addend: 0x0, symName: __RNvXsa_NtNtCsF7gmULBm3O_4pyo35impl_7pyclassNtB5_17NoopThreadCheckerINtB5_20PyClassThreadCheckerNtNtCsaYfPqFfImBE_4dprs10parameters8TopologyE8can_dropB1z_, symObjAddr: 0x2DC, symBinAddr: 0x17F80, symSize: 0x18 }
  - { offsetInCU: 0x1CDC, offset: 0x52A50, size: 0x8, addend: 0x0, symName: __RNvXsa_NtNtCsF7gmULBm3O_4pyo35impl_7pyclassNtB5_17NoopThreadCheckerINtB5_20PyClassThreadCheckerNtNtCsaYfPqFfImBE_4dprs10parameters9DimensionE3newB1z_, symObjAddr: 0x2F4, symBinAddr: 0x17F98, symSize: 0x4 }
  - { offsetInCU: 0x1D00, offset: 0x52A74, size: 0x8, addend: 0x0, symName: __RNvXsa_NtNtCsF7gmULBm3O_4pyo35impl_7pyclassNtB5_17NoopThreadCheckerINtB5_20PyClassThreadCheckerNtNtCsaYfPqFfImBE_4dprs10parameters9DimensionE6ensureB1z_, symObjAddr: 0x2F8, symBinAddr: 0x17F9C, symSize: 0x10 }
  - { offsetInCU: 0x1D33, offset: 0x52AA7, size: 0x8, addend: 0x0, symName: __RNvXsa_NtNtCsF7gmULBm3O_4pyo35impl_7pyclassNtB5_17NoopThreadCheckerINtB5_20PyClassThreadCheckerNtNtCsaYfPqFfImBE_4dprs10parameters9DimensionE8can_dropB1z_, symObjAddr: 0x308, symBinAddr: 0x17FAC, symSize: 0x18 }
  - { offsetInCU: 0x1D8B, offset: 0x52AFF, size: 0x8, addend: 0x0, symName: __RNvYNtNtNtCsF7gmULBm3O_4pyo35impl_7pyclass16PyClassDummySlotNtB4_11PyClassDict10clear_dictCsaYfPqFfImBE_4dprs, symObjAddr: 0x320, symBinAddr: 0x17FC4, symSize: 0x10 }
  - { offsetInCU: 0x1DDB, offset: 0x52B4F, size: 0x8, addend: 0x0, symName: __RNvYNtNtNtCsF7gmULBm3O_4pyo35impl_7pyclass16PyClassDummySlotNtB4_14PyClassWeakRef14clear_weakrefsCsaYfPqFfImBE_4dprs, symObjAddr: 0x330, symBinAddr: 0x17FD4, symSize: 0x14 }
  - { offsetInCU: 0x26EA, offset: 0x5345E, size: 0x8, addend: 0x0, symName: __RNvMs2_NtNtCsF7gmULBm3O_4pyo35impl_7pyclassINtB5_20PyClassImplCollectorNtNtCsaYfPqFfImBE_4dprs10parameters10ProcessingE3newB1b_, symObjAddr: 0x200, symBinAddr: 0x17EA4, symSize: 0x4 }
  - { offsetInCU: 0x2707, offset: 0x5347B, size: 0x8, addend: 0x0, symName: __RNvMs2_NtNtCsF7gmULBm3O_4pyo35impl_7pyclassINtB5_20PyClassImplCollectorNtNtCsaYfPqFfImBE_4dprs10parameters17BoundaryConditionE3newB1b_, symObjAddr: 0x204, symBinAddr: 0x17EA8, symSize: 0x4 }
  - { offsetInCU: 0x2724, offset: 0x53498, size: 0x8, addend: 0x0, symName: __RNvMs2_NtNtCsF7gmULBm3O_4pyo35impl_7pyclassINtB5_20PyClassImplCollectorNtNtCsaYfPqFfImBE_4dprs10parameters8TopologyE3newB1b_, symObjAddr: 0x208, symBinAddr: 0x17EAC, symSize: 0x4 }
  - { offsetInCU: 0x2741, offset: 0x534B5, size: 0x8, addend: 0x0, symName: __RNvMs2_NtNtCsF7gmULBm3O_4pyo35impl_7pyclassINtB5_20PyClassImplCollectorNtNtCsaYfPqFfImBE_4dprs10parameters9DimensionE3newB1b_, symObjAddr: 0x20C, symBinAddr: 0x17EB0, symSize: 0x4 }
  - { offsetInCU: 0x1E, offset: 0x53868, size: 0x8, addend: 0x0, symName: __RNvNtNtNtCsF7gmULBm3O_4pyo35impl_10trampoline11richcmpfunc5innerCsaYfPqFfImBE_4dprs, symObjAddr: 0x0, symBinAddr: 0x17FE8, symSize: 0x50 }
  - { offsetInCU: 0x14C3, offset: 0x54D0D, size: 0x8, addend: 0x0, symName: __RNvNtNtNtCsF7gmULBm3O_4pyo35impl_10trampoline11richcmpfunc5innerCsaYfPqFfImBE_4dprs, symObjAddr: 0x0, symBinAddr: 0x17FE8, symSize: 0x50 }
  - { offsetInCU: 0x1E, offset: 0x555EB, size: 0x8, addend: 0x0, symName: __RINvNvNtCsbHbxnPY57xw_3std9panicking12catch_unwind7do_callINtNtNtCs2tD97QJu26F_4core5panic11unwind_safe16AssertUnwindSafeNCINvMs7_NtCs9PXnr41oVbh_10rayon_core3jobINtB24_9JobResultINtNtNtCs9xDkXAC1PNF_5alloc11collections11linked_list10LinkedListINtNtB2Y_3vec3VecbEEE4callNCINvNvNtB26_4join12join_context6call_bB2R_NCINvNvNtNtCslkboY0IC5z6_5rayon4iter8plumbing24bridge_producer_consumer6helperINtNtB5c_5range12IterProducerjEINtNtB5a_3map11MapConsumerNtNtB5a_6extend15ListVecConsumerNCNvMNtNtCsaYfPqFfImBE_4dprs4life8model_2dINtB7N_14LatticeModel2DNtNtB7P_10life_model9LifeModelE23next_iteration_parallel0EEs_0E0E0EB2R_EB7R_, symObjAddr: 0x0, symBinAddr: 0x18038, symSize: 0x84 }
  - { offsetInCU: 0x3432, offset: 0x589FF, size: 0x8, addend: 0x0, symName: __RINvNvNtCsbHbxnPY57xw_3std9panicking12catch_unwind7do_callINtNtNtCs2tD97QJu26F_4core5panic11unwind_safe16AssertUnwindSafeNCINvMs7_NtCs9PXnr41oVbh_10rayon_core3jobINtB24_9JobResultINtNtNtCs9xDkXAC1PNF_5alloc11collections11linked_list10LinkedListINtNtB2Y_3vec3VecbEEE4callNCINvNvNtB26_4join12join_context6call_bB2R_NCINvNvNtNtCslkboY0IC5z6_5rayon4iter8plumbing24bridge_producer_consumer6helperINtNtB5c_5range12IterProducerjEINtNtB5a_3map11MapConsumerNtNtB5a_6extend15ListVecConsumerNCNvMNtNtCsaYfPqFfImBE_4dprs4life8model_2dINtB7N_14LatticeModel2DNtNtB7P_10life_model9LifeModelE23next_iteration_parallel0EEs_0E0E0EB2R_EB7R_, symObjAddr: 0x0, symBinAddr: 0x18038, symSize: 0x84 }
  - { offsetInCU: 0x352D, offset: 0x58AFA, size: 0x8, addend: 0x0, symName: __RINvNvNtCsbHbxnPY57xw_3std9panicking12catch_unwind7do_callINtNtNtCs2tD97QJu26F_4core5panic11unwind_safe16AssertUnwindSafeNCINvMs7_NtCs9PXnr41oVbh_10rayon_core3jobINtB24_9JobResultINtNtNtNtCslkboY0IC5z6_5rayon4iter7collect8consumer13CollectResultbEE4callNCINvNvNtB26_4join12join_context6call_bB2R_NCINvNvNtB2Y_8plumbing24bridge_producer_consumer6helperINtNtB30_5range12IterProducerjEINtNtB2Y_3map11MapConsumerINtB2U_15CollectConsumerbENCNvMNtNtCsaYfPqFfImBE_4dprs4life8model_2dINtB73_14LatticeModel2DNtNtB75_10life_model9LifeModelE23next_iteration_parallel0EEs_0E0E0EB2R_EB77_, symObjAddr: 0x84, symBinAddr: 0x180BC, symSize: 0x84 }
  - { offsetInCU: 0x3628, offset: 0x58BF5, size: 0x8, addend: 0x0, symName: __RINvNvNtCsbHbxnPY57xw_3std9panicking12catch_unwind7do_callINtNtNtCs2tD97QJu26F_4core5panic11unwind_safe16AssertUnwindSafeNCINvMs7_NtCs9PXnr41oVbh_10rayon_core3jobINtB24_9JobResultTINtNtNtCs9xDkXAC1PNF_5alloc11collections11linked_list10LinkedListINtNtB2Z_3vec3VecbEEB2S_EE4callNCINvMs4_NtB26_8registryNtB4z_8Registry15in_worker_crossNCINvNtB26_4join12join_contextNCINvNvNtNtCslkboY0IC5z6_5rayon4iter8plumbing24bridge_producer_consumer6helperINtNtB5Z_5range12IterProducerjEINtNtB5X_3map11MapConsumerNtNtB5X_6extend15ListVecConsumerNCNvMNtNtCsaYfPqFfImBE_4dprs4life8model_2dINtB8A_14LatticeModel2DNtNtB8C_10life_model9LifeModelE23next_iteration_parallel0EE0NCB5Q_s_0B2S_B2S_E0B2R_E0E0EB2R_EB8E_, symObjAddr: 0x108, symBinAddr: 0x18140, symSize: 0x94 }
  - { offsetInCU: 0x3723, offset: 0x58CF0, size: 0x8, addend: 0x0, symName: __RINvNvNtCsbHbxnPY57xw_3std9panicking12catch_unwind7do_callINtNtNtCs2tD97QJu26F_4core5panic11unwind_safe16AssertUnwindSafeNCINvMs7_NtCs9PXnr41oVbh_10rayon_core3jobINtB24_9JobResultTINtNtNtCs9xDkXAC1PNF_5alloc11collections11linked_list10LinkedListINtNtB2Z_3vec3VecbEEB2S_EE4callNCNCINvMs4_NtB26_8registryNtB4B_8Registry14in_worker_coldNCINvNtB26_4join12join_contextNCINvNvNtNtCslkboY0IC5z6_5rayon4iter8plumbing24bridge_producer_consumer6helperINtNtB60_5range12IterProducerjEINtNtB5Y_3map11MapConsumerNtNtB5Y_6extend15ListVecConsumerNCNvMNtNtCsaYfPqFfImBE_4dprs4life8model_2dINtB8B_14LatticeModel2DNtNtB8D_10life_model9LifeModelE23next_iteration_parallel0EE0NCB5R_s_0B2S_B2S_E0B2R_E00E0EB2R_EB8F_, symObjAddr: 0x19C, symBinAddr: 0x181D4, symSize: 0x94 }
  - { offsetInCU: 0x381E, offset: 0x58DEB, size: 0x8, addend: 0x0, symName: __RINvNvNtCsbHbxnPY57xw_3std9panicking12catch_unwind7do_callINtNtNtCs2tD97QJu26F_4core5panic11unwind_safe16AssertUnwindSafeNCINvMs7_NtCs9PXnr41oVbh_10rayon_core3jobINtB24_9JobResultTINtNtNtNtCslkboY0IC5z6_5rayon4iter7collect8consumer13CollectResultbEB2S_EE4callNCINvMs4_NtB26_8registryNtB4i_8Registry15in_worker_crossNCINvNtB26_4join12join_contextNCINvNvNtB2Z_8plumbing24bridge_producer_consumer6helperINtNtB31_5range12IterProducerjEINtNtB2Z_3map11MapConsumerINtB2V_15CollectConsumerbENCNvMNtNtCsaYfPqFfImBE_4dprs4life8model_2dINtB7Q_14LatticeModel2DNtNtB7S_10life_model9LifeModelE23next_iteration_parallel0EE0NCB5z_s_0B2S_B2S_E0B2R_E0E0EB2R_EB7U_, symObjAddr: 0x230, symBinAddr: 0x18268, symSize: 0x94 }
  - { offsetInCU: 0x3919, offset: 0x58EE6, size: 0x8, addend: 0x0, symName: __RINvNvNtCsbHbxnPY57xw_3std9panicking12catch_unwind7do_callINtNtNtCs2tD97QJu26F_4core5panic11unwind_safe16AssertUnwindSafeNCINvMs7_NtCs9PXnr41oVbh_10rayon_core3jobINtB24_9JobResultTINtNtNtNtCslkboY0IC5z6_5rayon4iter7collect8consumer13CollectResultbEB2S_EE4callNCNCINvMs4_NtB26_8registryNtB4k_8Registry14in_worker_coldNCINvNtB26_4join12join_contextNCINvNvNtB2Z_8plumbing24bridge_producer_consumer6helperINtNtB31_5range12IterProducerjEINtNtB2Z_3map11MapConsumerINtB2V_15CollectConsumerbENCNvMNtNtCsaYfPqFfImBE_4dprs4life8model_2dINtB7R_14LatticeModel2DNtNtB7T_10life_model9LifeModelE23next_iteration_parallel0EE0NCB5A_s_0B2S_B2S_E0B2R_E00E0EB2R_EB7V_, symObjAddr: 0x2C4, symBinAddr: 0x182FC, symSize: 0x94 }
  - { offsetInCU: 0x3A14, offset: 0x58FE1, size: 0x8, addend: 0x0, symName: __RINvNvNtCsbHbxnPY57xw_3std9panicking12catch_unwind7do_callINtNtNtCs2tD97QJu26F_4core5panic11unwind_safe16AssertUnwindSafeNCINvMs7_NtCs9PXnr41oVbh_10rayon_core3jobINtB24_9JobResultTjINtNtCs9xDkXAC1PNF_5alloc3vec3VecIB2U_bEEEE4callNCINvMs4_NtB26_8registryNtB3O_8Registry15in_worker_crossNCINvMNtB26_11thread_poolNtB4F_10ThreadPool7installNCNvNtCsaYfPqFfImBE_4dprs2dp14run_simulation0B2R_E0B2R_E0E0EB2R_EB5u_, symObjAddr: 0x358, symBinAddr: 0x18390, symSize: 0x90 }
  - { offsetInCU: 0x3B0F, offset: 0x590DC, size: 0x8, addend: 0x0, symName: __RINvNvNtCsbHbxnPY57xw_3std9panicking12catch_unwind7do_callINtNtNtCs2tD97QJu26F_4core5panic11unwind_safe16AssertUnwindSafeNCINvMs7_NtCs9PXnr41oVbh_10rayon_core3jobINtB24_9JobResultTjINtNtCs9xDkXAC1PNF_5alloc3vec3VecIB2U_bEEEE4callNCINvMs4_NtB26_8registryNtB3O_8Registry15in_worker_crossNCINvMNtB26_11thread_poolNtB4F_10ThreadPool7installNCNvNtCsaYfPqFfImBE_4dprs4life14run_simulation0B2R_E0B2R_E0E0EB2R_EB5u_, symObjAddr: 0x3E8, symBinAddr: 0x18420, symSize: 0x84 }
  - { offsetInCU: 0x3C0A, offset: 0x591D7, size: 0x8, addend: 0x0, symName: __RINvNvNtCsbHbxnPY57xw_3std9panicking12catch_unwind7do_callINtNtNtCs2tD97QJu26F_4core5panic11unwind_safe16AssertUnwindSafeNCINvMs7_NtCs9PXnr41oVbh_10rayon_core3jobINtB24_9JobResultTjINtNtCs9xDkXAC1PNF_5alloc3vec3VecIB2U_bEEEE4callNCNCINvMs4_NtB26_8registryNtB3Q_8Registry14in_worker_coldNCINvMNtB26_11thread_poolNtB4G_10ThreadPool7installNCNvNtCsaYfPqFfImBE_4dprs2dp14run_simulation0B2R_E0B2R_E00E0EB2R_EB5v_, symObjAddr: 0x46C, symBinAddr: 0x184A4, symSize: 0x90 }
  - { offsetInCU: 0x3D05, offset: 0x592D2, size: 0x8, addend: 0x0, symName: __RINvNvNtCsbHbxnPY57xw_3std9panicking12catch_unwind7do_callINtNtNtCs2tD97QJu26F_4core5panic11unwind_safe16AssertUnwindSafeNCINvMs7_NtCs9PXnr41oVbh_10rayon_core3jobINtB24_9JobResultTjINtNtCs9xDkXAC1PNF_5alloc3vec3VecIB2U_bEEEE4callNCNCINvMs4_NtB26_8registryNtB3Q_8Registry14in_worker_coldNCINvMNtB26_11thread_poolNtB4G_10ThreadPool7installNCNvNtCsaYfPqFfImBE_4dprs4life14run_simulation0B2R_E0B2R_E00E0EB2R_EB5v_, symObjAddr: 0x4FC, symBinAddr: 0x18534, symSize: 0x84 }
  - { offsetInCU: 0x3E00, offset: 0x593CD, size: 0x8, addend: 0x0, symName: __RINvNvNtCsbHbxnPY57xw_3std9panicking12catch_unwind7do_callINtNtNtCs2tD97QJu26F_4core5panic11unwind_safe16AssertUnwindSafeNCINvMs7_NtCs9PXnr41oVbh_10rayon_core3jobINtB24_9JobResultTuuEE4callNCINvMs4_NtB26_8registryNtB3a_8Registry15in_worker_crossNCINvNtB26_4join12join_contextNCINvNvNtNtCslkboY0IC5z6_5rayon4iter8plumbing24bridge_producer_consumer6helperINtNtB4y_9enumerate17EnumerateProducerINtNtNtB4A_5slice6chunks17ChunksMutProducerbEEINtNtB4y_8for_each15ForEachConsumerNCNvMNtNtCsaYfPqFfImBE_4dprs4life8model_2dINtB7F_14LatticeModel2DNtNtB7H_10life_model9LifeModelE31next_iteration_parallel_chunked0EE0NCB4r_s_0uuE0B2R_E0E0EB2R_EB7J_, symObjAddr: 0x580, symBinAddr: 0x185B8, symSize: 0x40 }
  - { offsetInCU: 0x3EC9, offset: 0x59496, size: 0x8, addend: 0x0, symName: __RINvNvNtCsbHbxnPY57xw_3std9panicking12catch_unwind7do_callINtNtNtCs2tD97QJu26F_4core5panic11unwind_safe16AssertUnwindSafeNCINvMs7_NtCs9PXnr41oVbh_10rayon_core3jobINtB24_9JobResultTuuEE4callNCNCINvMs4_NtB26_8registryNtB3c_8Registry14in_worker_coldNCINvNtB26_4join12join_contextNCINvNvNtNtCslkboY0IC5z6_5rayon4iter8plumbing24bridge_producer_consumer6helperINtNtB4z_9enumerate17EnumerateProducerINtNtNtB4B_5slice6chunks17ChunksMutProducerbEEINtNtB4z_8for_each15ForEachConsumerNCNvMNtNtCsaYfPqFfImBE_4dprs4life8model_2dINtB7G_14LatticeModel2DNtNtB7I_10life_model9LifeModelE31next_iteration_parallel_chunked0EE0NCB4s_s_0uuE0B2R_E00E0EB2R_EB7K_, symObjAddr: 0x5C0, symBinAddr: 0x185F8, symSize: 0x40 }
  - { offsetInCU: 0x3F92, offset: 0x5955F, size: 0x8, addend: 0x0, symName: __RINvNvNtCsbHbxnPY57xw_3std9panicking12catch_unwind7do_callINtNtNtCs2tD97QJu26F_4core5panic11unwind_safe16AssertUnwindSafeNCINvMs7_NtCs9PXnr41oVbh_10rayon_core3jobINtB24_9JobResultuE4callNCINvNvNtB26_4join12join_context6call_buNCINvNvNtNtCslkboY0IC5z6_5rayon4iter8plumbing24bridge_producer_consumer6helperINtNtB3L_9enumerate17EnumerateProducerINtNtNtB3N_5slice6chunks17ChunksMutProducerbEEINtNtB3L_8for_each15ForEachConsumerNCNvMNtNtCsaYfPqFfImBE_4dprs4life8model_2dINtB6S_14LatticeModel2DNtNtB6U_10life_model9LifeModelE31next_iteration_parallel_chunked0EEs_0E0E0EuEB6W_, symObjAddr: 0x600, symBinAddr: 0x18638, symSize: 0x40 }
  - { offsetInCU: 0x405B, offset: 0x59628, size: 0x8, addend: 0x0, symName: __RINvNvNtCsbHbxnPY57xw_3std9panicking12catch_unwind7do_callINtNtNtCs2tD97QJu26F_4core5panic11unwind_safe16AssertUnwindSafeNCINvNvNtCs9PXnr41oVbh_10rayon_core4join12join_context6call_aINtNtNtCs9xDkXAC1PNF_5alloc11collections11linked_list10LinkedListINtNtB31_3vec3VecbEENCINvNvNtNtCslkboY0IC5z6_5rayon4iter8plumbing24bridge_producer_consumer6helperINtNtB4s_5range12IterProducerjEINtNtB4q_3map11MapConsumerNtNtB4q_6extend15ListVecConsumerNCNvMNtNtCsaYfPqFfImBE_4dprs4life8model_2dINtB73_14LatticeModel2DNtNtB75_10life_model9LifeModelE23next_iteration_parallel0EE0E0EB2U_EB77_, symObjAddr: 0x640, symBinAddr: 0x18678, symSize: 0x84 }
  - { offsetInCU: 0x4156, offset: 0x59723, size: 0x8, addend: 0x0, symName: __RINvNvNtCsbHbxnPY57xw_3std9panicking12catch_unwind7do_callINtNtNtCs2tD97QJu26F_4core5panic11unwind_safe16AssertUnwindSafeNCINvNvNtCs9PXnr41oVbh_10rayon_core4join12join_context6call_aINtNtNtNtCslkboY0IC5z6_5rayon4iter7collect8consumer13CollectResultbENCINvNvNtB31_8plumbing24bridge_producer_consumer6helperINtNtB33_5range12IterProducerjEINtNtB31_3map11MapConsumerINtB2X_15CollectConsumerbENCNvMNtNtCsaYfPqFfImBE_4dprs4life8model_2dINtB6j_14LatticeModel2DNtNtB6l_10life_model9LifeModelE23next_iteration_parallel0EE0E0EB2U_EB6n_, symObjAddr: 0x6C4, symBinAddr: 0x186FC, symSize: 0x84 }
  - { offsetInCU: 0x4251, offset: 0x5981E, size: 0x8, addend: 0x0, symName: __RINvNvNtCsbHbxnPY57xw_3std9panicking12catch_unwind7do_callINtNtNtCs2tD97QJu26F_4core5panic11unwind_safe16AssertUnwindSafeNCINvNvNtCs9PXnr41oVbh_10rayon_core4join12join_context6call_auNCINvNvNtNtCslkboY0IC5z6_5rayon4iter8plumbing24bridge_producer_consumer6helperINtNtB34_9enumerate17EnumerateProducerINtNtNtB36_5slice6chunks17ChunksMutProducerbEEINtNtB34_8for_each15ForEachConsumerNCNvMNtNtCsaYfPqFfImBE_4dprs4life8model_2dINtB6b_14LatticeModel2DNtNtB6d_10life_model9LifeModelE31next_iteration_parallel_chunked0EE0E0EuEB6f_, symObjAddr: 0x748, symBinAddr: 0x18780, symSize: 0x40 }
  - { offsetInCU: 0x431A, offset: 0x598E7, size: 0x8, addend: 0x0, symName: __RINvNvNtCsbHbxnPY57xw_3std9panicking12catch_unwind7do_callNCINvNtNtCsF7gmULBm3O_4pyo35impl_10trampoline10trampolineNCNvBZ_11module_exec0lE0INtNtCs2tD97QJu26F_4core6result6ResultlNtNtB13_3err5PyErrEECsaYfPqFfImBE_4dprs, symObjAddr: 0x788, symBinAddr: 0x187C0, symSize: 0x94 }
  - { offsetInCU: 0x4415, offset: 0x599E2, size: 0x8, addend: 0x0, symName: __RINvNvNtCsbHbxnPY57xw_3std9panicking12catch_unwind7do_callNCINvNtNtCsF7gmULBm3O_4pyo35impl_10trampoline10trampolineNCNvNtBZ_11richcmpfunc5inner0ONtNtCsqz1hv0UmID_8pyo3_ffi6object8PyObjectE0INtNtCs2tD97QJu26F_4core6result6ResultB2i_NtNtB13_3err5PyErrEECsaYfPqFfImBE_4dprs, symObjAddr: 0x81C, symBinAddr: 0x18854, symSize: 0x98 }
  - { offsetInCU: 0x4510, offset: 0x59ADD, size: 0x8, addend: 0x0, symName: __RINvNvNtCsbHbxnPY57xw_3std9panicking12catch_unwind7do_callNCINvNtNtCsF7gmULBm3O_4pyo35impl_10trampoline10trampolineNCNvNtBZ_32fastcall_cfunction_with_keywords5inner0ONtNtCsqz1hv0UmID_8pyo3_ffi6object8PyObjectE0INtNtCs2tD97QJu26F_4core6result6ResultB2D_NtNtB13_3err5PyErrEECsaYfPqFfImBE_4dprs, symObjAddr: 0x8B4, symBinAddr: 0x188EC, symSize: 0x94 }
  - { offsetInCU: 0x460B, offset: 0x59BD8, size: 0x8, addend: 0x0, symName: __RINvNvNtCsbHbxnPY57xw_3std9panicking12catch_unwind7do_callNCINvNtNtCsF7gmULBm3O_4pyo35impl_10trampoline10trampolineNCNvNtBZ_8reprfunc5inner0ONtNtCsqz1hv0UmID_8pyo3_ffi6object8PyObjectE0INtNtCs2tD97QJu26F_4core6result6ResultB2e_NtNtB13_3err5PyErrEECsaYfPqFfImBE_4dprs, symObjAddr: 0x948, symBinAddr: 0x18980, symSize: 0x94 }
  - { offsetInCU: 0x4706, offset: 0x59CD3, size: 0x8, addend: 0x0, symName: __RINvNvNtCsbHbxnPY57xw_3std9panicking12catch_unwind7do_callNCINvNtNtCsF7gmULBm3O_4pyo35impl_10trampoline10trampolineNCNvNtBZ_9unaryfunc5inner0ONtNtCsqz1hv0UmID_8pyo3_ffi6object8PyObjectE0INtNtCs2tD97QJu26F_4core6result6ResultB2f_NtNtB13_3err5PyErrEECsaYfPqFfImBE_4dprs, symObjAddr: 0x9DC, symBinAddr: 0x18A14, symSize: 0x94 }
  - { offsetInCU: 0x4801, offset: 0x59DCE, size: 0x8, addend: 0x0, symName: __RINvNvNtCsbHbxnPY57xw_3std9panicking12catch_unwind7do_callNCINvNtNtCsF7gmULBm3O_4pyo35impl_10trampoline21trampoline_unraisableNCNvBZ_7dealloc0E0INtNtCs2tD97QJu26F_4core6result6ResultuNtNtB13_3err5PyErrEECsaYfPqFfImBE_4dprs, symObjAddr: 0xA70, symBinAddr: 0x18AA8, symSize: 0x94 }
  - { offsetInCU: 0x48FC, offset: 0x59EC9, size: 0x8, addend: 0x0, symName: __RINvNvNtCsbHbxnPY57xw_3std9panicking12catch_unwind8do_catchINtNtNtCs2tD97QJu26F_4core5panic11unwind_safe16AssertUnwindSafeNCINvMs7_NtCs9PXnr41oVbh_10rayon_core3jobINtB25_9JobResultINtNtNtCs9xDkXAC1PNF_5alloc11collections11linked_list10LinkedListINtNtB2Z_3vec3VecbEEE4callNCINvNvNtB27_4join12join_context6call_bB2S_NCINvNvNtNtCslkboY0IC5z6_5rayon4iter8plumbing24bridge_producer_consumer6helperINtNtB5d_5range12IterProducerjEINtNtB5b_3map11MapConsumerNtNtB5b_6extend15ListVecConsumerNCNvMNtNtCsaYfPqFfImBE_4dprs4life8model_2dINtB7O_14LatticeModel2DNtNtB7Q_10life_model9LifeModelE23next_iteration_parallel0EEs_0E0E0EB2S_EB7S_, symObjAddr: 0xB04, symBinAddr: 0x18B3C, symSize: 0x70 }
  - { offsetInCU: 0x4991, offset: 0x59F5E, size: 0x8, addend: 0x0, symName: __RINvNvNtCsbHbxnPY57xw_3std9panicking12catch_unwind8do_catchINtNtNtCs2tD97QJu26F_4core5panic11unwind_safe16AssertUnwindSafeNCINvMs7_NtCs9PXnr41oVbh_10rayon_core3jobINtB25_9JobResultINtNtNtNtCslkboY0IC5z6_5rayon4iter7collect8consumer13CollectResultbEE4callNCINvNvNtB27_4join12join_context6call_bB2S_NCINvNvNtB2Z_8plumbing24bridge_producer_consumer6helperINtNtB31_5range12IterProducerjEINtNtB2Z_3map11MapConsumerINtB2V_15CollectConsumerbENCNvMNtNtCsaYfPqFfImBE_4dprs4life8model_2dINtB74_14LatticeModel2DNtNtB76_10life_model9LifeModelE23next_iteration_parallel0EEs_0E0E0EB2S_EB78_, symObjAddr: 0xB74, symBinAddr: 0x18BAC, symSize: 0x70 }
  - { offsetInCU: 0x4A26, offset: 0x59FF3, size: 0x8, addend: 0x0, symName: __RINvNvNtCsbHbxnPY57xw_3std9panicking12catch_unwind8do_catchINtNtNtCs2tD97QJu26F_4core5panic11unwind_safe16AssertUnwindSafeNCINvMs7_NtCs9PXnr41oVbh_10rayon_core3jobINtB25_9JobResultTINtNtNtCs9xDkXAC1PNF_5alloc11collections11linked_list10LinkedListINtNtB30_3vec3VecbEEB2T_EE4callNCINvMs4_NtB27_8registryNtB4A_8Registry15in_worker_crossNCINvNtB27_4join12join_contextNCINvNvNtNtCslkboY0IC5z6_5rayon4iter8plumbing24bridge_producer_consumer6helperINtNtB60_5range12IterProducerjEINtNtB5Y_3map11MapConsumerNtNtB5Y_6extend15ListVecConsumerNCNvMNtNtCsaYfPqFfImBE_4dprs4life8model_2dINtB8B_14LatticeModel2DNtNtB8D_10life_model9LifeModelE23next_iteration_parallel0EE0NCB5R_s_0B2T_B2T_E0B2S_E0E0EB2S_EB8F_, symObjAddr: 0xBE4, symBinAddr: 0x18C1C, symSize: 0x70 }
  - { offsetInCU: 0x4ABB, offset: 0x5A088, size: 0x8, addend: 0x0, symName: __RINvNvNtCsbHbxnPY57xw_3std9panicking12catch_unwind8do_catchINtNtNtCs2tD97QJu26F_4core5panic11unwind_safe16AssertUnwindSafeNCINvMs7_NtCs9PXnr41oVbh_10rayon_core3jobINtB25_9JobResultTINtNtNtCs9xDkXAC1PNF_5alloc11collections11linked_list10LinkedListINtNtB30_3vec3VecbEEB2T_EE4callNCNCINvMs4_NtB27_8registryNtB4C_8Registry14in_worker_coldNCINvNtB27_4join12join_contextNCINvNvNtNtCslkboY0IC5z6_5rayon4iter8plumbing24bridge_producer_consumer6helperINtNtB61_5range12IterProducerjEINtNtB5Z_3map11MapConsumerNtNtB5Z_6extend15ListVecConsumerNCNvMNtNtCsaYfPqFfImBE_4dprs4life8model_2dINtB8C_14LatticeModel2DNtNtB8E_10life_model9LifeModelE23next_iteration_parallel0EE0NCB5S_s_0B2T_B2T_E0B2S_E00E0EB2S_EB8G_, symObjAddr: 0xC54, symBinAddr: 0x18C8C, symSize: 0x70 }
  - { offsetInCU: 0x4B50, offset: 0x5A11D, size: 0x8, addend: 0x0, symName: __RINvNvNtCsbHbxnPY57xw_3std9panicking12catch_unwind8do_catchINtNtNtCs2tD97QJu26F_4core5panic11unwind_safe16AssertUnwindSafeNCINvMs7_NtCs9PXnr41oVbh_10rayon_core3jobINtB25_9JobResultTINtNtNtNtCslkboY0IC5z6_5rayon4iter7collect8consumer13CollectResultbEB2T_EE4callNCINvMs4_NtB27_8registryNtB4j_8Registry15in_worker_crossNCINvNtB27_4join12join_contextNCINvNvNtB30_8plumbing24bridge_producer_consumer6helperINtNtB32_5range12IterProducerjEINtNtB30_3map11MapConsumerINtB2W_15CollectConsumerbENCNvMNtNtCsaYfPqFfImBE_4dprs4life8model_2dINtB7R_14LatticeModel2DNtNtB7T_10life_model9LifeModelE23next_iteration_parallel0EE0NCB5A_s_0B2T_B2T_E0B2S_E0E0EB2S_EB7V_, symObjAddr: 0xCC4, symBinAddr: 0x18CFC, symSize: 0x70 }
  - { offsetInCU: 0x4BE5, offset: 0x5A1B2, size: 0x8, addend: 0x0, symName: __RINvNvNtCsbHbxnPY57xw_3std9panicking12catch_unwind8do_catchINtNtNtCs2tD97QJu26F_4core5panic11unwind_safe16AssertUnwindSafeNCINvMs7_NtCs9PXnr41oVbh_10rayon_core3jobINtB25_9JobResultTINtNtNtNtCslkboY0IC5z6_5rayon4iter7collect8consumer13CollectResultbEB2T_EE4callNCNCINvMs4_NtB27_8registryNtB4l_8Registry14in_worker_coldNCINvNtB27_4join12join_contextNCINvNvNtB30_8plumbing24bridge_producer_consumer6helperINtNtB32_5range12IterProducerjEINtNtB30_3map11MapConsumerINtB2W_15CollectConsumerbENCNvMNtNtCsaYfPqFfImBE_4dprs4life8model_2dINtB7S_14LatticeModel2DNtNtB7U_10life_model9LifeModelE23next_iteration_parallel0EE0NCB5B_s_0B2T_B2T_E0B2S_E00E0EB2S_EB7W_, symObjAddr: 0xD34, symBinAddr: 0x18D6C, symSize: 0x70 }
  - { offsetInCU: 0x4C7A, offset: 0x5A247, size: 0x8, addend: 0x0, symName: __RINvNvNtCsbHbxnPY57xw_3std9panicking12catch_unwind8do_catchINtNtNtCs2tD97QJu26F_4core5panic11unwind_safe16AssertUnwindSafeNCINvMs7_NtCs9PXnr41oVbh_10rayon_core3jobINtB25_9JobResultTjINtNtCs9xDkXAC1PNF_5alloc3vec3VecIB2V_bEEEE4callNCINvMs4_NtB27_8registryNtB3P_8Registry15in_worker_crossNCINvMNtB27_11thread_poolNtB4G_10ThreadPool7installNCNvNtCsaYfPqFfImBE_4dprs2dp14run_simulation0B2S_E0B2S_E0E0EB2S_EB5v_, symObjAddr: 0xDA4, symBinAddr: 0x18DDC, symSize: 0x70 }
  - { offsetInCU: 0x4D0F, offset: 0x5A2DC, size: 0x8, addend: 0x0, symName: __RINvNvNtCsbHbxnPY57xw_3std9panicking12catch_unwind8do_catchINtNtNtCs2tD97QJu26F_4core5panic11unwind_safe16AssertUnwindSafeNCINvMs7_NtCs9PXnr41oVbh_10rayon_core3jobINtB25_9JobResultTjINtNtCs9xDkXAC1PNF_5alloc3vec3VecIB2V_bEEEE4callNCINvMs4_NtB27_8registryNtB3P_8Registry15in_worker_crossNCINvMNtB27_11thread_poolNtB4G_10ThreadPool7installNCNvNtCsaYfPqFfImBE_4dprs4life14run_simulation0B2S_E0B2S_E0E0EB2S_EB5v_, symObjAddr: 0xE14, symBinAddr: 0x18E4C, symSize: 0x70 }
  - { offsetInCU: 0x4DA4, offset: 0x5A371, size: 0x8, addend: 0x0, symName: __RINvNvNtCsbHbxnPY57xw_3std9panicking12catch_unwind8do_catchINtNtNtCs2tD97QJu26F_4core5panic11unwind_safe16AssertUnwindSafeNCINvMs7_NtCs9PXnr41oVbh_10rayon_core3jobINtB25_9JobResultTjINtNtCs9xDkXAC1PNF_5alloc3vec3VecIB2V_bEEEE4callNCNCINvMs4_NtB27_8registryNtB3R_8Registry14in_worker_coldNCINvMNtB27_11thread_poolNtB4H_10ThreadPool7installNCNvNtCsaYfPqFfImBE_4dprs2dp14run_simulation0B2S_E0B2S_E00E0EB2S_EB5w_, symObjAddr: 0xE84, symBinAddr: 0x18EBC, symSize: 0x70 }
  - { offsetInCU: 0x4E39, offset: 0x5A406, size: 0x8, addend: 0x0, symName: __RINvNvNtCsbHbxnPY57xw_3std9panicking12catch_unwind8do_catchINtNtNtCs2tD97QJu26F_4core5panic11unwind_safe16AssertUnwindSafeNCINvMs7_NtCs9PXnr41oVbh_10rayon_core3jobINtB25_9JobResultTjINtNtCs9xDkXAC1PNF_5alloc3vec3VecIB2V_bEEEE4callNCNCINvMs4_NtB27_8registryNtB3R_8Registry14in_worker_coldNCINvMNtB27_11thread_poolNtB4H_10ThreadPool7installNCNvNtCsaYfPqFfImBE_4dprs4life14run_simulation0B2S_E0B2S_E00E0EB2S_EB5w_, symObjAddr: 0xEF4, symBinAddr: 0x18F2C, symSize: 0x70 }
  - { offsetInCU: 0x4ECE, offset: 0x5A49B, size: 0x8, addend: 0x0, symName: __RINvNvNtCsbHbxnPY57xw_3std9panicking12catch_unwind8do_catchINtNtNtCs2tD97QJu26F_4core5panic11unwind_safe16AssertUnwindSafeNCINvMs7_NtCs9PXnr41oVbh_10rayon_core3jobINtB25_9JobResultTuuEE4callNCINvMs4_NtB27_8registryNtB3b_8Registry15in_worker_crossNCINvNtB27_4join12join_contextNCINvNvNtNtCslkboY0IC5z6_5rayon4iter8plumbing24bridge_producer_consumer6helperINtNtB4z_9enumerate17EnumerateProducerINtNtNtB4B_5slice6chunks17ChunksMutProducerbEEINtNtB4z_8for_each15ForEachConsumerNCNvMNtNtCsaYfPqFfImBE_4dprs4life8model_2dINtB7G_14LatticeModel2DNtNtB7I_10life_model9LifeModelE31next_iteration_parallel_chunked0EE0NCB4s_s_0uuE0B2S_E0E0EB2S_EB7K_, symObjAddr: 0xF64, symBinAddr: 0x18F9C, symSize: 0x70 }
  - { offsetInCU: 0x4F63, offset: 0x5A530, size: 0x8, addend: 0x0, symName: __RINvNvNtCsbHbxnPY57xw_3std9panicking12catch_unwind8do_catchINtNtNtCs2tD97QJu26F_4core5panic11unwind_safe16AssertUnwindSafeNCINvMs7_NtCs9PXnr41oVbh_10rayon_core3jobINtB25_9JobResultTuuEE4callNCNCINvMs4_NtB27_8registryNtB3d_8Registry14in_worker_coldNCINvNtB27_4join12join_contextNCINvNvNtNtCslkboY0IC5z6_5rayon4iter8plumbing24bridge_producer_consumer6helperINtNtB4A_9enumerate17EnumerateProducerINtNtNtB4C_5slice6chunks17ChunksMutProducerbEEINtNtB4A_8for_each15ForEachConsumerNCNvMNtNtCsaYfPqFfImBE_4dprs4life8model_2dINtB7H_14LatticeModel2DNtNtB7J_10life_model9LifeModelE31next_iteration_parallel_chunked0EE0NCB4t_s_0uuE0B2S_E00E0EB2S_EB7L_, symObjAddr: 0xFD4, symBinAddr: 0x1900C, symSize: 0x70 }
  - { offsetInCU: 0x4FF8, offset: 0x5A5C5, size: 0x8, addend: 0x0, symName: __RINvNvNtCsbHbxnPY57xw_3std9panicking12catch_unwind8do_catchINtNtNtCs2tD97QJu26F_4core5panic11unwind_safe16AssertUnwindSafeNCINvMs7_NtCs9PXnr41oVbh_10rayon_core3jobINtB25_9JobResultuE4callNCINvNvNtB27_4join12join_context6call_buNCINvNvNtNtCslkboY0IC5z6_5rayon4iter8plumbing24bridge_producer_consumer6helperINtNtB3M_9enumerate17EnumerateProducerINtNtNtB3O_5slice6chunks17ChunksMutProducerbEEINtNtB3M_8for_each15ForEachConsumerNCNvMNtNtCsaYfPqFfImBE_4dprs4life8model_2dINtB6T_14LatticeModel2DNtNtB6V_10life_model9LifeModelE31next_iteration_parallel_chunked0EEs_0E0E0EuEB6X_, symObjAddr: 0x1044, symBinAddr: 0x1907C, symSize: 0x70 }
  - { offsetInCU: 0x508D, offset: 0x5A65A, size: 0x8, addend: 0x0, symName: __RINvNvNtCsbHbxnPY57xw_3std9panicking12catch_unwind8do_catchINtNtNtCs2tD97QJu26F_4core5panic11unwind_safe16AssertUnwindSafeNCINvNvNtCs9PXnr41oVbh_10rayon_core4join12join_context6call_aINtNtNtCs9xDkXAC1PNF_5alloc11collections11linked_list10LinkedListINtNtB32_3vec3VecbEENCINvNvNtNtCslkboY0IC5z6_5rayon4iter8plumbing24bridge_producer_consumer6helperINtNtB4t_5range12IterProducerjEINtNtB4r_3map11MapConsumerNtNtB4r_6extend15ListVecConsumerNCNvMNtNtCsaYfPqFfImBE_4dprs4life8model_2dINtB74_14LatticeModel2DNtNtB76_10life_model9LifeModelE23next_iteration_parallel0EE0E0EB2V_EB78_, symObjAddr: 0x10B4, symBinAddr: 0x190EC, symSize: 0x70 }
  - { offsetInCU: 0x5122, offset: 0x5A6EF, size: 0x8, addend: 0x0, symName: __RINvNvNtCsbHbxnPY57xw_3std9panicking12catch_unwind8do_catchINtNtNtCs2tD97QJu26F_4core5panic11unwind_safe16AssertUnwindSafeNCINvNvNtCs9PXnr41oVbh_10rayon_core4join12join_context6call_aINtNtNtNtCslkboY0IC5z6_5rayon4iter7collect8consumer13CollectResultbENCINvNvNtB32_8plumbing24bridge_producer_consumer6helperINtNtB34_5range12IterProducerjEINtNtB32_3map11MapConsumerINtB2Y_15CollectConsumerbENCNvMNtNtCsaYfPqFfImBE_4dprs4life8model_2dINtB6k_14LatticeModel2DNtNtB6m_10life_model9LifeModelE23next_iteration_parallel0EE0E0EB2V_EB6o_, symObjAddr: 0x1124, symBinAddr: 0x1915C, symSize: 0x70 }
  - { offsetInCU: 0x51B7, offset: 0x5A784, size: 0x8, addend: 0x0, symName: __RINvNvNtCsbHbxnPY57xw_3std9panicking12catch_unwind8do_catchINtNtNtCs2tD97QJu26F_4core5panic11unwind_safe16AssertUnwindSafeNCINvNvNtCs9PXnr41oVbh_10rayon_core4join12join_context6call_auNCINvNvNtNtCslkboY0IC5z6_5rayon4iter8plumbing24bridge_producer_consumer6helperINtNtB35_9enumerate17EnumerateProducerINtNtNtB37_5slice6chunks17ChunksMutProducerbEEINtNtB35_8for_each15ForEachConsumerNCNvMNtNtCsaYfPqFfImBE_4dprs4life8model_2dINtB6c_14LatticeModel2DNtNtB6e_10life_model9LifeModelE31next_iteration_parallel_chunked0EE0E0EuEB6g_, symObjAddr: 0x1194, symBinAddr: 0x191CC, symSize: 0x70 }
  - { offsetInCU: 0x524C, offset: 0x5A819, size: 0x8, addend: 0x0, symName: __RINvNvNtCsbHbxnPY57xw_3std9panicking12catch_unwind8do_catchNCINvNtNtCsF7gmULBm3O_4pyo35impl_10trampoline10trampolineNCNvB10_11module_exec0lE0INtNtCs2tD97QJu26F_4core6result6ResultlNtNtB14_3err5PyErrEECsaYfPqFfImBE_4dprs, symObjAddr: 0x1204, symBinAddr: 0x1923C, symSize: 0x70 }
  - { offsetInCU: 0x52E1, offset: 0x5A8AE, size: 0x8, addend: 0x0, symName: __RINvNvNtCsbHbxnPY57xw_3std9panicking12catch_unwind8do_catchNCINvNtNtCsF7gmULBm3O_4pyo35impl_10trampoline10trampolineNCNvNtB10_11richcmpfunc5inner0ONtNtCsqz1hv0UmID_8pyo3_ffi6object8PyObjectE0INtNtCs2tD97QJu26F_4core6result6ResultB2k_NtNtB14_3err5PyErrEECsaYfPqFfImBE_4dprs, symObjAddr: 0x1274, symBinAddr: 0x192AC, symSize: 0x70 }
  - { offsetInCU: 0x5376, offset: 0x5A943, size: 0x8, addend: 0x0, symName: __RINvNvNtCsbHbxnPY57xw_3std9panicking12catch_unwind8do_catchNCINvNtNtCsF7gmULBm3O_4pyo35impl_10trampoline10trampolineNCNvNtB10_32fastcall_cfunction_with_keywords5inner0ONtNtCsqz1hv0UmID_8pyo3_ffi6object8PyObjectE0INtNtCs2tD97QJu26F_4core6result6ResultB2F_NtNtB14_3err5PyErrEECsaYfPqFfImBE_4dprs, symObjAddr: 0x12E4, symBinAddr: 0x1931C, symSize: 0x70 }
  - { offsetInCU: 0x540B, offset: 0x5A9D8, size: 0x8, addend: 0x0, symName: __RINvNvNtCsbHbxnPY57xw_3std9panicking12catch_unwind8do_catchNCINvNtNtCsF7gmULBm3O_4pyo35impl_10trampoline10trampolineNCNvNtB10_8reprfunc5inner0ONtNtCsqz1hv0UmID_8pyo3_ffi6object8PyObjectE0INtNtCs2tD97QJu26F_4core6result6ResultB2g_NtNtB14_3err5PyErrEECsaYfPqFfImBE_4dprs, symObjAddr: 0x1354, symBinAddr: 0x1938C, symSize: 0x70 }
  - { offsetInCU: 0x54A0, offset: 0x5AA6D, size: 0x8, addend: 0x0, symName: __RINvNvNtCsbHbxnPY57xw_3std9panicking12catch_unwind8do_catchNCINvNtNtCsF7gmULBm3O_4pyo35impl_10trampoline10trampolineNCNvNtB10_9unaryfunc5inner0ONtNtCsqz1hv0UmID_8pyo3_ffi6object8PyObjectE0INtNtCs2tD97QJu26F_4core6result6ResultB2h_NtNtB14_3err5PyErrEECsaYfPqFfImBE_4dprs, symObjAddr: 0x13C4, symBinAddr: 0x193FC, symSize: 0x70 }
  - { offsetInCU: 0x5535, offset: 0x5AB02, size: 0x8, addend: 0x0, symName: __RINvNvNtCsbHbxnPY57xw_3std9panicking12catch_unwind8do_catchNCINvNtNtCsF7gmULBm3O_4pyo35impl_10trampoline21trampoline_unraisableNCNvB10_7dealloc0E0INtNtCs2tD97QJu26F_4core6result6ResultuNtNtB14_3err5PyErrEECsaYfPqFfImBE_4dprs, symObjAddr: 0x1434, symBinAddr: 0x1946C, symSize: 0x70 }
  - { offsetInCU: 0x1E, offset: 0x5C532, size: 0x8, addend: 0x0, symName: __RINvMNtCsF7gmULBm3O_4pyo38instanceINtB3_5BoundNtNtCsaYfPqFfImBE_4dprs10parameters10ProcessingE3newBI_EBM_, symObjAddr: 0x0, symBinAddr: 0x194DC, symSize: 0x34 }
  - { offsetInCU: 0x2FBF, offset: 0x5F4D3, size: 0x8, addend: 0x0, symName: __RNvMNtCs2tD97QJu26F_4core5sliceSINtNtCsF7gmULBm3O_4pyo38instance8BorrowedNtNtNtBz_5types3any5PyAnyE4iterCsaYfPqFfImBE_4dprs, symObjAddr: 0x136C, symBinAddr: 0x1A848, symSize: 0x28 }
  - { offsetInCU: 0x4360, offset: 0x60874, size: 0x8, addend: 0x0, symName: __RINvNvMs_NtCsF7gmULBm3O_4pyo38instanceINtB7_5BoundpE4cast5innerNtNtCsaYfPqFfImBE_4dprs10parameters10ProcessingEB13_, symObjAddr: 0x6DC, symBinAddr: 0x19BB8, symSize: 0x84 }
  - { offsetInCU: 0x4395, offset: 0x608A9, size: 0x8, addend: 0x0, symName: __RINvNvMs_NtCsF7gmULBm3O_4pyo38instanceINtB7_5BoundpE4cast5innerNtNtCsaYfPqFfImBE_4dprs10parameters17BoundaryConditionEB13_, symObjAddr: 0x760, symBinAddr: 0x19C3C, symSize: 0x84 }
  - { offsetInCU: 0x43CA, offset: 0x608DE, size: 0x8, addend: 0x0, symName: __RINvNvMs_NtCsF7gmULBm3O_4pyo38instanceINtB7_5BoundpE4cast5innerNtNtCsaYfPqFfImBE_4dprs10parameters8TopologyEB13_, symObjAddr: 0x7E4, symBinAddr: 0x19CC0, symSize: 0x84 }
  - { offsetInCU: 0x43FF, offset: 0x60913, size: 0x8, addend: 0x0, symName: __RINvNvMs_NtCsF7gmULBm3O_4pyo38instanceINtB7_5BoundpE4cast5innerNtNtCsaYfPqFfImBE_4dprs10parameters9DimensionEB13_, symObjAddr: 0x868, symBinAddr: 0x19D44, symSize: 0x84 }
  - { offsetInCU: 0x4440, offset: 0x60954, size: 0x8, addend: 0x0, symName: __RINvNvMsb_NtCsF7gmULBm3O_4pyo38instanceINtB8_8BorrowedpE4cast5innerNtNtCsaYfPqFfImBE_4dprs10parameters10ProcessingEB17_, symObjAddr: 0x8EC, symBinAddr: 0x19DC8, symSize: 0x7C }
  - { offsetInCU: 0x4477, offset: 0x6098B, size: 0x8, addend: 0x0, symName: __RINvNvMsb_NtCsF7gmULBm3O_4pyo38instanceINtB8_8BorrowedpE4cast5innerNtNtCsaYfPqFfImBE_4dprs10parameters17BoundaryConditionEB17_, symObjAddr: 0x968, symBinAddr: 0x19E44, symSize: 0x7C }
  - { offsetInCU: 0x44AE, offset: 0x609C2, size: 0x8, addend: 0x0, symName: __RINvNvMsb_NtCsF7gmULBm3O_4pyo38instanceINtB8_8BorrowedpE4cast5innerNtNtCsaYfPqFfImBE_4dprs10parameters8TopologyEB17_, symObjAddr: 0x9E4, symBinAddr: 0x19EC0, symSize: 0x7C }
  - { offsetInCU: 0x44E5, offset: 0x609F9, size: 0x8, addend: 0x0, symName: __RINvNvMsb_NtCsF7gmULBm3O_4pyo38instanceINtB8_8BorrowedpE4cast5innerNtNtCsaYfPqFfImBE_4dprs10parameters9DimensionEB17_, symObjAddr: 0xA60, symBinAddr: 0x19F3C, symSize: 0x7C }
  - { offsetInCU: 0x451C, offset: 0x60A30, size: 0x8, addend: 0x0, symName: __RINvNvMsb_NtCsF7gmULBm3O_4pyo38instanceINtB8_8BorrowedpE4cast5innerNtNtNtBa_5types3any5PyAnyECsaYfPqFfImBE_4dprs, symObjAddr: 0xADC, symBinAddr: 0x19FB8, symSize: 0x7C }
  - { offsetInCU: 0x4553, offset: 0x60A67, size: 0x8, addend: 0x0, symName: __RINvNvMsb_NtCsF7gmULBm3O_4pyo38instanceINtB8_8BorrowedpE4cast5innerNtNtNtBa_5types5tuple7PyTupleECsaYfPqFfImBE_4dprs, symObjAddr: 0xB58, symBinAddr: 0x1A034, symSize: 0x7C }
  - { offsetInCU: 0x458A, offset: 0x60A9E, size: 0x8, addend: 0x0, symName: __RINvNvMsb_NtCsF7gmULBm3O_4pyo38instanceINtB8_8BorrowedpE4cast5innerNtNtNtBa_5types6module8PyModuleECsaYfPqFfImBE_4dprs, symObjAddr: 0xBD4, symBinAddr: 0x1A0B0, symSize: 0x7C }
  - { offsetInCU: 0x45CD, offset: 0x60AE1, size: 0x8, addend: 0x0, symName: __RNCNvMsd_NtCsF7gmULBm3O_4pyo38instanceINtB7_8BorrowedNtNtNtB9_5types3any5PyAnyE15from_ptr_or_opt0CsaYfPqFfImBE_4dprs, symObjAddr: 0x133C, symBinAddr: 0x1A818, symSize: 0x30 }
  - { offsetInCU: 0x4846, offset: 0x60D5A, size: 0x8, addend: 0x0, symName: __RNvXs7_NtCsF7gmULBm3O_4pyo38instanceINtB5_5BoundNtNtCsaYfPqFfImBE_4dprs10parameters10ProcessingENtNtCs2tD97QJu26F_4core5clone5Clone5cloneBO_, symObjAddr: 0x24CC, symBinAddr: 0x1B9A8, symSize: 0x34 }
  - { offsetInCU: 0x487D, offset: 0x60D91, size: 0x8, addend: 0x0, symName: __RNvXs7_NtCsF7gmULBm3O_4pyo38instanceINtB5_5BoundNtNtCsaYfPqFfImBE_4dprs10parameters17BoundaryConditionENtNtCs2tD97QJu26F_4core5clone5Clone5cloneBO_, symObjAddr: 0x2500, symBinAddr: 0x1B9DC, symSize: 0x34 }
  - { offsetInCU: 0x48B4, offset: 0x60DC8, size: 0x8, addend: 0x0, symName: __RNvXs7_NtCsF7gmULBm3O_4pyo38instanceINtB5_5BoundNtNtCsaYfPqFfImBE_4dprs10parameters8TopologyENtNtCs2tD97QJu26F_4core5clone5Clone5cloneBO_, symObjAddr: 0x2534, symBinAddr: 0x1BA10, symSize: 0x34 }
  - { offsetInCU: 0x48EB, offset: 0x60DFF, size: 0x8, addend: 0x0, symName: __RNvXs7_NtCsF7gmULBm3O_4pyo38instanceINtB5_5BoundNtNtCsaYfPqFfImBE_4dprs10parameters9DimensionENtNtCs2tD97QJu26F_4core5clone5Clone5cloneBO_, symObjAddr: 0x2568, symBinAddr: 0x1BA44, symSize: 0x34 }
  - { offsetInCU: 0x4922, offset: 0x60E36, size: 0x8, addend: 0x0, symName: __RNvXs7_NtCsF7gmULBm3O_4pyo38instanceINtB5_5BoundNtNtNtB7_5types14notimplemented16PyNotImplementedENtNtCs2tD97QJu26F_4core5clone5Clone5cloneCsaYfPqFfImBE_4dprs, symObjAddr: 0x259C, symBinAddr: 0x1BA78, symSize: 0x34 }
  - { offsetInCU: 0x495F, offset: 0x60E73, size: 0x8, addend: 0x0, symName: __RNvXsa_NtCsF7gmULBm3O_4pyo38instanceINtB5_5BoundNtNtCsaYfPqFfImBE_4dprs10parameters10ProcessingEINtB5_11BoundObjectBK_E8into_anyBO_, symObjAddr: 0x2670, symBinAddr: 0x1BB4C, symSize: 0x24 }
  - { offsetInCU: 0x4996, offset: 0x60EAA, size: 0x8, addend: 0x0, symName: __RNvXsa_NtCsF7gmULBm3O_4pyo38instanceINtB5_5BoundNtNtCsaYfPqFfImBE_4dprs10parameters17BoundaryConditionEINtB5_11BoundObjectBK_E8into_anyBO_, symObjAddr: 0x2694, symBinAddr: 0x1BB70, symSize: 0x24 }
  - { offsetInCU: 0x49CD, offset: 0x60EE1, size: 0x8, addend: 0x0, symName: __RNvXsa_NtCsF7gmULBm3O_4pyo38instanceINtB5_5BoundNtNtCsaYfPqFfImBE_4dprs10parameters8TopologyEINtB5_11BoundObjectBK_E8into_anyBO_, symObjAddr: 0x26B8, symBinAddr: 0x1BB94, symSize: 0x24 }
  - { offsetInCU: 0x4A04, offset: 0x60F18, size: 0x8, addend: 0x0, symName: __RNvXsa_NtCsF7gmULBm3O_4pyo38instanceINtB5_5BoundNtNtCsaYfPqFfImBE_4dprs10parameters9DimensionEINtB5_11BoundObjectBK_E8into_anyBO_, symObjAddr: 0x26DC, symBinAddr: 0x1BBB8, symSize: 0x24 }
  - { offsetInCU: 0x4A3B, offset: 0x60F4F, size: 0x8, addend: 0x0, symName: __RNvXsa_NtCsF7gmULBm3O_4pyo38instanceINtB5_5BoundNtNtNtB7_5types3any5PyAnyEINtB5_11BoundObjectBK_E8into_ptrCsaYfPqFfImBE_4dprs, symObjAddr: 0x2700, symBinAddr: 0x1BBDC, symSize: 0x24 }
  - { offsetInCU: 0x4A72, offset: 0x60F86, size: 0x8, addend: 0x0, symName: __RNvXsa_NtCsF7gmULBm3O_4pyo38instanceINtB5_5BoundNtNtNtB7_5types3num5PyIntEINtB5_11BoundObjectBK_E8into_ptrCsaYfPqFfImBE_4dprs, symObjAddr: 0x2724, symBinAddr: 0x1BC00, symSize: 0x24 }
  - { offsetInCU: 0x4AA9, offset: 0x60FBD, size: 0x8, addend: 0x0, symName: __RNvXsa_NtCsF7gmULBm3O_4pyo38instanceINtB5_5BoundNtNtNtB7_5types6string8PyStringEINtB5_11BoundObjectBK_E8into_ptrCsaYfPqFfImBE_4dprs, symObjAddr: 0x2748, symBinAddr: 0x1BC24, symSize: 0x24 }
  - { offsetInCU: 0x4AE6, offset: 0x60FFA, size: 0x8, addend: 0x0, symName: __RNvXsh_NtCsF7gmULBm3O_4pyo38instanceINtB5_8BorrowedNtNtNtB7_5types14notimplemented16PyNotImplementedENtNtNtCs2tD97QJu26F_4core3ops5deref5Deref5derefCsaYfPqFfImBE_4dprs, symObjAddr: 0x276C, symBinAddr: 0x1BC48, symSize: 0x28 }
  - { offsetInCU: 0x4B23, offset: 0x61037, size: 0x8, addend: 0x0, symName: __RNvXsk_NtCsF7gmULBm3O_4pyo38instanceINtB5_8BorrowedNtNtNtB7_5types10boolobject6PyBoolEINtB5_11BoundObjectBN_E8into_anyCsaYfPqFfImBE_4dprs, symObjAddr: 0x2794, symBinAddr: 0x1BC70, symSize: 0x24 }
  - { offsetInCU: 0x4B5A, offset: 0x6106E, size: 0x8, addend: 0x0, symName: __RNvXsk_NtCsF7gmULBm3O_4pyo38instanceINtB5_8BorrowedNtNtNtB7_5types3any5PyAnyEINtB5_11BoundObjectBN_E6unbindCsaYfPqFfImBE_4dprs, symObjAddr: 0x27B8, symBinAddr: 0x1BC94, symSize: 0x30 }
  - { offsetInCU: 0x4E01, offset: 0x61315, size: 0x8, addend: 0x0, symName: __RINvXs_NtNtCsF7gmULBm3O_4pyo35types3anyINtNtB9_8instance5BoundNtB5_5PyAnyENtB5_12PyAnyMethods7extractNtNtCsaYfPqFfImBE_4dprs10parameters10ProcessingEB1F_, symObjAddr: 0xC50, symBinAddr: 0x1A12C, symSize: 0x30 }
  - { offsetInCU: 0x4E38, offset: 0x6134C, size: 0x8, addend: 0x0, symName: __RINvXs_NtNtCsF7gmULBm3O_4pyo35types3anyINtNtB9_8instance5BoundNtB5_5PyAnyENtB5_12PyAnyMethods7extractNtNtCsaYfPqFfImBE_4dprs10parameters8TopologyEB1F_, symObjAddr: 0xC80, symBinAddr: 0x1A15C, symSize: 0x30 }
  - { offsetInCU: 0x4E6F, offset: 0x61383, size: 0x8, addend: 0x0, symName: __RINvXs_NtNtCsF7gmULBm3O_4pyo35types3anyINtNtB9_8instance5BoundNtB5_5PyAnyENtB5_12PyAnyMethods7extractNtNtCsaYfPqFfImBE_4dprs10parameters9DimensionEB1F_, symObjAddr: 0xCB0, symBinAddr: 0x1A18C, symSize: 0x30 }
  - { offsetInCU: 0x4EA6, offset: 0x613BA, size: 0x8, addend: 0x0, symName: __RINvXs_NtNtCsF7gmULBm3O_4pyo35types3anyINtNtB9_8instance5BoundNtB5_5PyAnyENtB5_12PyAnyMethods7extractTNtNtCsaYfPqFfImBE_4dprs10parameters17BoundaryConditionB1C_EEB1G_, symObjAddr: 0xCE0, symBinAddr: 0x1A1BC, symSize: 0x30 }
  - { offsetInCU: 0x4EDD, offset: 0x613F1, size: 0x8, addend: 0x0, symName: __RINvXs_NtNtCsF7gmULBm3O_4pyo35types3anyINtNtB9_8instance5BoundNtB5_5PyAnyENtB5_12PyAnyMethods7extractTbbEECsaYfPqFfImBE_4dprs, symObjAddr: 0xD10, symBinAddr: 0x1A1EC, symSize: 0x30 }
  - { offsetInCU: 0x4F14, offset: 0x61428, size: 0x8, addend: 0x0, symName: __RINvXs_NtNtCsF7gmULBm3O_4pyo35types3anyINtNtB9_8instance5BoundNtB5_5PyAnyENtB5_12PyAnyMethods7extractbECsaYfPqFfImBE_4dprs, symObjAddr: 0xD40, symBinAddr: 0x1A21C, symSize: 0x30 }
  - { offsetInCU: 0x4F4B, offset: 0x6145F, size: 0x8, addend: 0x0, symName: __RINvXs_NtNtCsF7gmULBm3O_4pyo35types3anyINtNtB9_8instance5BoundNtB5_5PyAnyENtB5_12PyAnyMethods7extractjECsaYfPqFfImBE_4dprs, symObjAddr: 0xD70, symBinAddr: 0x1A24C, symSize: 0x30 }
  - { offsetInCU: 0x4FD9, offset: 0x614ED, size: 0x8, addend: 0x0, symName: __RINvXs_NtNtCsF7gmULBm3O_4pyo35types6moduleINtNtB9_8instance5BoundNtB5_8PyModuleENtB5_15PyModuleMethods3addReRIBF_NtNtB7_10typeobject6PyTypeEECsaYfPqFfImBE_4dprs, symObjAddr: 0xDA0, symBinAddr: 0x1A27C, symSize: 0x25C }
  - { offsetInCU: 0x50A6, offset: 0x615BA, size: 0x8, addend: 0x0, symName: __RINvXs_NtNtCsF7gmULBm3O_4pyo35types6moduleINtNtB9_8instance5BoundNtB5_8PyModuleENtB5_15PyModuleMethods9add_classNtNtCsaYfPqFfImBE_4dprs10parameters10ProcessingEB1Q_, symObjAddr: 0xFFC, symBinAddr: 0x1A4D8, symSize: 0xD0 }
  - { offsetInCU: 0x511C, offset: 0x61630, size: 0x8, addend: 0x0, symName: __RINvXs_NtNtCsF7gmULBm3O_4pyo35types6moduleINtNtB9_8instance5BoundNtB5_8PyModuleENtB5_15PyModuleMethods9add_classNtNtCsaYfPqFfImBE_4dprs10parameters17BoundaryConditionEB1Q_, symObjAddr: 0x10CC, symBinAddr: 0x1A5A8, symSize: 0xD0 }
  - { offsetInCU: 0x5192, offset: 0x616A6, size: 0x8, addend: 0x0, symName: __RINvXs_NtNtCsF7gmULBm3O_4pyo35types6moduleINtNtB9_8instance5BoundNtB5_8PyModuleENtB5_15PyModuleMethods9add_classNtNtCsaYfPqFfImBE_4dprs10parameters8TopologyEB1Q_, symObjAddr: 0x119C, symBinAddr: 0x1A678, symSize: 0xD0 }
  - { offsetInCU: 0x5208, offset: 0x6171C, size: 0x8, addend: 0x0, symName: __RINvXs_NtNtCsF7gmULBm3O_4pyo35types6moduleINtNtB9_8instance5BoundNtB5_8PyModuleENtB5_15PyModuleMethods9add_classNtNtCsaYfPqFfImBE_4dprs10parameters9DimensionEB1Q_, symObjAddr: 0x126C, symBinAddr: 0x1A748, symSize: 0xD0 }
  - { offsetInCU: 0x56A2, offset: 0x61BB6, size: 0x8, addend: 0x0, symName: __RNvXs2_NtNtCsF7gmULBm3O_4pyo35impl_8callbackINtNtB9_8instance2PyNtNtNtB9_5types3any5PyAnyEINtB5_20IntoPyCallbackOutputONtNtCsqz1hv0UmID_8pyo3_ffi6object8PyObjectE7convertCsaYfPqFfImBE_4dprs, symObjAddr: 0x2498, symBinAddr: 0x1B974, symSize: 0x34 }
  - { offsetInCU: 0x56FC, offset: 0x61C10, size: 0x8, addend: 0x0, symName: __RNvXs_NtNtCsF7gmULBm3O_4pyo35impl_16extract_argumentRINtNtB8_8instance5BoundNtNtNtB8_5types3any5PyAnyEINtB4_18PyFunctionArgumentKb0_E7extractCsaYfPqFfImBE_4dprs, symObjAddr: 0x25D0, symBinAddr: 0x1BAAC, symSize: 0xA0 }
  - { offsetInCU: 0x5769, offset: 0x61C7D, size: 0x8, addend: 0x0, symName: __RNvYRINtNtCsF7gmULBm3O_4pyo38instance5BoundNtNtNtB8_5types10typeobject6PyTypeENtNtB8_10conversion15IntoPyObjectExt22into_pyobject_or_pyerrCsaYfPqFfImBE_4dprs, symObjAddr: 0x27E8, symBinAddr: 0x1BCC4, symSize: 0x48 }
  - { offsetInCU: 0x5E5B, offset: 0x6236F, size: 0x8, addend: 0x0, symName: __RINvMNtCsF7gmULBm3O_4pyo38instanceINtB3_5BoundNtNtCsaYfPqFfImBE_4dprs10parameters10ProcessingE3newBI_EBM_, symObjAddr: 0x0, symBinAddr: 0x194DC, symSize: 0x34 }
  - { offsetInCU: 0x5EA8, offset: 0x623BC, size: 0x8, addend: 0x0, symName: __RINvMNtCsF7gmULBm3O_4pyo38instanceINtB3_5BoundNtNtCsaYfPqFfImBE_4dprs10parameters17BoundaryConditionE3newBI_EBM_, symObjAddr: 0x34, symBinAddr: 0x19510, symSize: 0x34 }
  - { offsetInCU: 0x5EF5, offset: 0x62409, size: 0x8, addend: 0x0, symName: __RINvMNtCsF7gmULBm3O_4pyo38instanceINtB3_5BoundNtNtCsaYfPqFfImBE_4dprs10parameters8TopologyE3newBI_EBM_, symObjAddr: 0x68, symBinAddr: 0x19544, symSize: 0x34 }
  - { offsetInCU: 0x5F42, offset: 0x62456, size: 0x8, addend: 0x0, symName: __RINvMNtCsF7gmULBm3O_4pyo38instanceINtB3_5BoundNtNtCsaYfPqFfImBE_4dprs10parameters9DimensionE3newBI_EBM_, symObjAddr: 0x9C, symBinAddr: 0x19578, symSize: 0x34 }
  - { offsetInCU: 0x5FDF, offset: 0x624F3, size: 0x8, addend: 0x0, symName: __RINvMs_NtCsF7gmULBm3O_4pyo38instanceINtB5_5BoundNtNtNtB7_5types3any5PyAnyE14cast_uncheckedNtNtBO_14notimplemented16PyNotImplementedECsaYfPqFfImBE_4dprs, symObjAddr: 0xD0, symBinAddr: 0x195AC, symSize: 0x38 }
  - { offsetInCU: 0x6075, offset: 0x62589, size: 0x8, addend: 0x0, symName: __RINvMs_NtCsF7gmULBm3O_4pyo38instanceINtB5_5BoundNtNtNtB7_5types3any5PyAnyE14cast_uncheckedNtNtCsaYfPqFfImBE_4dprs10parameters10ProcessingEB1u_, symObjAddr: 0x108, symBinAddr: 0x195E4, symSize: 0x38 }
  - { offsetInCU: 0x610B, offset: 0x6261F, size: 0x8, addend: 0x0, symName: __RINvMs_NtCsF7gmULBm3O_4pyo38instanceINtB5_5BoundNtNtNtB7_5types3any5PyAnyE14cast_uncheckedNtNtCsaYfPqFfImBE_4dprs10parameters17BoundaryConditionEB1u_, symObjAddr: 0x140, symBinAddr: 0x1961C, symSize: 0x38 }
  - { offsetInCU: 0x61A1, offset: 0x626B5, size: 0x8, addend: 0x0, symName: __RINvMs_NtCsF7gmULBm3O_4pyo38instanceINtB5_5BoundNtNtNtB7_5types3any5PyAnyE14cast_uncheckedNtNtCsaYfPqFfImBE_4dprs10parameters8TopologyEB1u_, symObjAddr: 0x178, symBinAddr: 0x19654, symSize: 0x38 }
  - { offsetInCU: 0x6237, offset: 0x6274B, size: 0x8, addend: 0x0, symName: __RINvMs_NtCsF7gmULBm3O_4pyo38instanceINtB5_5BoundNtNtNtB7_5types3any5PyAnyE14cast_uncheckedNtNtCsaYfPqFfImBE_4dprs10parameters9DimensionEB1u_, symObjAddr: 0x1B0, symBinAddr: 0x1968C, symSize: 0x38 }
  - { offsetInCU: 0x628A, offset: 0x6279E, size: 0x8, addend: 0x0, symName: __RINvMs_NtCsF7gmULBm3O_4pyo38instanceINtB5_5BoundNtNtNtB7_5types3any5PyAnyE19cast_into_uncheckedNtNtCsaYfPqFfImBE_4dprs10parameters10ProcessingEB1z_, symObjAddr: 0x1E8, symBinAddr: 0x196C4, symSize: 0x14 }
  - { offsetInCU: 0x62BF, offset: 0x627D3, size: 0x8, addend: 0x0, symName: __RINvMs_NtCsF7gmULBm3O_4pyo38instanceINtB5_5BoundNtNtNtB7_5types3any5PyAnyE19cast_into_uncheckedNtNtCsaYfPqFfImBE_4dprs10parameters17BoundaryConditionEB1z_, symObjAddr: 0x1FC, symBinAddr: 0x196D8, symSize: 0x14 }
  - { offsetInCU: 0x62F4, offset: 0x62808, size: 0x8, addend: 0x0, symName: __RINvMs_NtCsF7gmULBm3O_4pyo38instanceINtB5_5BoundNtNtNtB7_5types3any5PyAnyE19cast_into_uncheckedNtNtCsaYfPqFfImBE_4dprs10parameters8TopologyEB1z_, symObjAddr: 0x210, symBinAddr: 0x196EC, symSize: 0x14 }
  - { offsetInCU: 0x6329, offset: 0x6283D, size: 0x8, addend: 0x0, symName: __RINvMs_NtCsF7gmULBm3O_4pyo38instanceINtB5_5BoundNtNtNtB7_5types3any5PyAnyE19cast_into_uncheckedNtNtCsaYfPqFfImBE_4dprs10parameters9DimensionEB1z_, symObjAddr: 0x224, symBinAddr: 0x19700, symSize: 0x14 }
  - { offsetInCU: 0x636B, offset: 0x6287F, size: 0x8, addend: 0x0, symName: __RINvMs_NtCsF7gmULBm3O_4pyo38instanceINtB5_5BoundNtNtNtB7_5types3any5PyAnyE4castNtNtCsaYfPqFfImBE_4dprs10parameters10ProcessingEB1j_, symObjAddr: 0x238, symBinAddr: 0x19714, symSize: 0x30 }
  - { offsetInCU: 0x639F, offset: 0x628B3, size: 0x8, addend: 0x0, symName: __RINvMs_NtCsF7gmULBm3O_4pyo38instanceINtB5_5BoundNtNtNtB7_5types3any5PyAnyE4castNtNtCsaYfPqFfImBE_4dprs10parameters17BoundaryConditionEB1j_, symObjAddr: 0x268, symBinAddr: 0x19744, symSize: 0x30 }
  - { offsetInCU: 0x63D3, offset: 0x628E7, size: 0x8, addend: 0x0, symName: __RINvMs_NtCsF7gmULBm3O_4pyo38instanceINtB5_5BoundNtNtNtB7_5types3any5PyAnyE4castNtNtCsaYfPqFfImBE_4dprs10parameters8TopologyEB1j_, symObjAddr: 0x298, symBinAddr: 0x19774, symSize: 0x30 }
  - { offsetInCU: 0x6407, offset: 0x6291B, size: 0x8, addend: 0x0, symName: __RINvMs_NtCsF7gmULBm3O_4pyo38instanceINtB5_5BoundNtNtNtB7_5types3any5PyAnyE4castNtNtCsaYfPqFfImBE_4dprs10parameters9DimensionEB1j_, symObjAddr: 0x2C8, symBinAddr: 0x197A4, symSize: 0x30 }
  - { offsetInCU: 0x6448, offset: 0x6295C, size: 0x8, addend: 0x0, symName: __RINvMsb_NtCsF7gmULBm3O_4pyo38instanceINtB6_8BorrowedNtNtNtB8_5types3any5PyAnyE14cast_uncheckedNtNtBS_14notimplemented16PyNotImplementedECsaYfPqFfImBE_4dprs, symObjAddr: 0x2F8, symBinAddr: 0x197D4, symSize: 0x14 }
  - { offsetInCU: 0x648A, offset: 0x6299E, size: 0x8, addend: 0x0, symName: __RINvMsb_NtCsF7gmULBm3O_4pyo38instanceINtB6_8BorrowedNtNtNtB8_5types3any5PyAnyE14cast_uncheckedNtNtCsaYfPqFfImBE_4dprs10parameters10ProcessingEB1y_, symObjAddr: 0x30C, symBinAddr: 0x197E8, symSize: 0x14 }
  - { offsetInCU: 0x64CC, offset: 0x629E0, size: 0x8, addend: 0x0, symName: __RINvMsb_NtCsF7gmULBm3O_4pyo38instanceINtB6_8BorrowedNtNtNtB8_5types3any5PyAnyE14cast_uncheckedNtNtCsaYfPqFfImBE_4dprs10parameters17BoundaryConditionEB1y_, symObjAddr: 0x320, symBinAddr: 0x197FC, symSize: 0x14 }
  - { offsetInCU: 0x650E, offset: 0x62A22, size: 0x8, addend: 0x0, symName: __RINvMsb_NtCsF7gmULBm3O_4pyo38instanceINtB6_8BorrowedNtNtNtB8_5types3any5PyAnyE14cast_uncheckedNtNtCsaYfPqFfImBE_4dprs10parameters8TopologyEB1y_, symObjAddr: 0x334, symBinAddr: 0x19810, symSize: 0x14 }
  - { offsetInCU: 0x6550, offset: 0x62A64, size: 0x8, addend: 0x0, symName: __RINvMsb_NtCsF7gmULBm3O_4pyo38instanceINtB6_8BorrowedNtNtNtB8_5types3any5PyAnyE14cast_uncheckedNtNtCsaYfPqFfImBE_4dprs10parameters9DimensionEB1y_, symObjAddr: 0x348, symBinAddr: 0x19824, symSize: 0x14 }
  - { offsetInCU: 0x6585, offset: 0x62A99, size: 0x8, addend: 0x0, symName: __RINvMsb_NtCsF7gmULBm3O_4pyo38instanceINtB6_8BorrowedNtNtNtB8_5types3any5PyAnyE4castBO_ECsaYfPqFfImBE_4dprs, symObjAddr: 0x35C, symBinAddr: 0x19838, symSize: 0x30 }
  - { offsetInCU: 0x65C7, offset: 0x62ADB, size: 0x8, addend: 0x0, symName: __RINvMsb_NtCsF7gmULBm3O_4pyo38instanceINtB6_8BorrowedNtNtNtB8_5types3any5PyAnyE4castNtNtBS_5tuple7PyTupleECsaYfPqFfImBE_4dprs, symObjAddr: 0x38C, symBinAddr: 0x19868, symSize: 0x30 }
  - { offsetInCU: 0x6609, offset: 0x62B1D, size: 0x8, addend: 0x0, symName: __RINvMsb_NtCsF7gmULBm3O_4pyo38instanceINtB6_8BorrowedNtNtNtB8_5types3any5PyAnyE4castNtNtBS_6module8PyModuleECsaYfPqFfImBE_4dprs, symObjAddr: 0x3BC, symBinAddr: 0x19898, symSize: 0x30 }
  - { offsetInCU: 0x663E, offset: 0x62B52, size: 0x8, addend: 0x0, symName: __RINvMsb_NtCsF7gmULBm3O_4pyo38instanceINtB6_8BorrowedNtNtNtB8_5types3any5PyAnyE4castNtNtCsaYfPqFfImBE_4dprs10parameters10ProcessingEB1n_, symObjAddr: 0x3EC, symBinAddr: 0x198C8, symSize: 0x30 }
  - { offsetInCU: 0x6673, offset: 0x62B87, size: 0x8, addend: 0x0, symName: __RINvMsb_NtCsF7gmULBm3O_4pyo38instanceINtB6_8BorrowedNtNtNtB8_5types3any5PyAnyE4castNtNtCsaYfPqFfImBE_4dprs10parameters17BoundaryConditionEB1n_, symObjAddr: 0x41C, symBinAddr: 0x198F8, symSize: 0x30 }
  - { offsetInCU: 0x66A8, offset: 0x62BBC, size: 0x8, addend: 0x0, symName: __RINvMsb_NtCsF7gmULBm3O_4pyo38instanceINtB6_8BorrowedNtNtNtB8_5types3any5PyAnyE4castNtNtCsaYfPqFfImBE_4dprs10parameters8TopologyEB1n_, symObjAddr: 0x44C, symBinAddr: 0x19928, symSize: 0x30 }
  - { offsetInCU: 0x66DD, offset: 0x62BF1, size: 0x8, addend: 0x0, symName: __RINvMsb_NtCsF7gmULBm3O_4pyo38instanceINtB6_8BorrowedNtNtNtB8_5types3any5PyAnyE4castNtNtCsaYfPqFfImBE_4dprs10parameters9DimensionEB1n_, symObjAddr: 0x47C, symBinAddr: 0x19958, symSize: 0x30 }
  - { offsetInCU: 0x6712, offset: 0x62C26, size: 0x8, addend: 0x0, symName: __RINvMsb_NtCsF7gmULBm3O_4pyo38instanceINtB6_8BorrowedNtNtNtB8_5types3any5PyAnyE7extractINtNtNtB8_7pyclass5guard12PyClassGuardNtNtCsaYfPqFfImBE_4dprs10parameters10ProcessingEEB22_, symObjAddr: 0x4AC, symBinAddr: 0x19988, symSize: 0x30 }
  - { offsetInCU: 0x6747, offset: 0x62C5B, size: 0x8, addend: 0x0, symName: __RINvMsb_NtCsF7gmULBm3O_4pyo38instanceINtB6_8BorrowedNtNtNtB8_5types3any5PyAnyE7extractINtNtNtB8_7pyclass5guard12PyClassGuardNtNtCsaYfPqFfImBE_4dprs10parameters17BoundaryConditionEEB22_, symObjAddr: 0x4DC, symBinAddr: 0x199B8, symSize: 0x30 }
  - { offsetInCU: 0x677C, offset: 0x62C90, size: 0x8, addend: 0x0, symName: __RINvMsb_NtCsF7gmULBm3O_4pyo38instanceINtB6_8BorrowedNtNtNtB8_5types3any5PyAnyE7extractINtNtNtB8_7pyclass5guard12PyClassGuardNtNtCsaYfPqFfImBE_4dprs10parameters8TopologyEEB22_, symObjAddr: 0x50C, symBinAddr: 0x199E8, symSize: 0x30 }
  - { offsetInCU: 0x67B1, offset: 0x62CC5, size: 0x8, addend: 0x0, symName: __RINvMsb_NtCsF7gmULBm3O_4pyo38instanceINtB6_8BorrowedNtNtNtB8_5types3any5PyAnyE7extractINtNtNtB8_7pyclass5guard12PyClassGuardNtNtCsaYfPqFfImBE_4dprs10parameters9DimensionEEB22_, symObjAddr: 0x53C, symBinAddr: 0x19A18, symSize: 0x30 }
  - { offsetInCU: 0x6829, offset: 0x62D3D, size: 0x8, addend: 0x0, symName: __RINvMsb_NtCsF7gmULBm3O_4pyo38instanceINtB6_8BorrowedNtNtNtB8_5types3any5PyAnyE7extractNtNtCsaYfPqFfImBE_4dprs10parameters10ParametersEB1q_, symObjAddr: 0x56C, symBinAddr: 0x19A48, symSize: 0x30 }
  - { offsetInCU: 0x685E, offset: 0x62D72, size: 0x8, addend: 0x0, symName: __RINvMsb_NtCsF7gmULBm3O_4pyo38instanceINtB6_8BorrowedNtNtNtB8_5types3any5PyAnyE7extractNtNtCsaYfPqFfImBE_4dprs10parameters17BoundaryConditionEB1q_, symObjAddr: 0x59C, symBinAddr: 0x19A78, symSize: 0x30 }
  - { offsetInCU: 0x6893, offset: 0x62DA7, size: 0x8, addend: 0x0, symName: __RINvMsb_NtCsF7gmULBm3O_4pyo38instanceINtB6_8BorrowedNtNtNtB8_5types3any5PyAnyE7extractbECsaYfPqFfImBE_4dprs, symObjAddr: 0x5CC, symBinAddr: 0x19AA8, symSize: 0x30 }
  - { offsetInCU: 0x68C8, offset: 0x62DDC, size: 0x8, addend: 0x0, symName: __RINvMsn_NtCsF7gmULBm3O_4pyo38instanceINtB6_2PyNtNtCsaYfPqFfImBE_4dprs10parameters10ProcessingE3newBI_EBM_, symObjAddr: 0x5FC, symBinAddr: 0x19AD8, symSize: 0x38 }
  - { offsetInCU: 0x6918, offset: 0x62E2C, size: 0x8, addend: 0x0, symName: __RINvMsn_NtCsF7gmULBm3O_4pyo38instanceINtB6_2PyNtNtCsaYfPqFfImBE_4dprs10parameters17BoundaryConditionE3newBI_EBM_, symObjAddr: 0x634, symBinAddr: 0x19B10, symSize: 0x38 }
  - { offsetInCU: 0x6968, offset: 0x62E7C, size: 0x8, addend: 0x0, symName: __RINvMsn_NtCsF7gmULBm3O_4pyo38instanceINtB6_2PyNtNtCsaYfPqFfImBE_4dprs10parameters8TopologyE3newBI_EBM_, symObjAddr: 0x66C, symBinAddr: 0x19B48, symSize: 0x38 }
  - { offsetInCU: 0x69B8, offset: 0x62ECC, size: 0x8, addend: 0x0, symName: __RINvMsn_NtCsF7gmULBm3O_4pyo38instanceINtB6_2PyNtNtCsaYfPqFfImBE_4dprs10parameters9DimensionE3newBI_EBM_, symObjAddr: 0x6A4, symBinAddr: 0x19B80, symSize: 0x38 }
  - { offsetInCU: 0x6A15, offset: 0x62F29, size: 0x8, addend: 0x0, symName: __RNvMs1_NtCsF7gmULBm3O_4pyo38instanceINtB5_5BoundNtNtCsaYfPqFfImBE_4dprs10parameters10ProcessingE16get_class_objectBO_, symObjAddr: 0x1394, symBinAddr: 0x1A870, symSize: 0x2C }
  - { offsetInCU: 0x6A93, offset: 0x62FA7, size: 0x8, addend: 0x0, symName: __RNvMs1_NtCsF7gmULBm3O_4pyo38instanceINtB5_5BoundNtNtCsaYfPqFfImBE_4dprs10parameters10ProcessingE6borrowBO_, symObjAddr: 0x13C0, symBinAddr: 0x1A89C, symSize: 0x24 }
  - { offsetInCU: 0x6ACC, offset: 0x62FE0, size: 0x8, addend: 0x0, symName: __RNvMs1_NtCsF7gmULBm3O_4pyo38instanceINtB5_5BoundNtNtCsaYfPqFfImBE_4dprs10parameters17BoundaryConditionE16get_class_objectBO_, symObjAddr: 0x13E4, symBinAddr: 0x1A8C0, symSize: 0x2C }
  - { offsetInCU: 0x6AF8, offset: 0x6300C, size: 0x8, addend: 0x0, symName: __RNvMs1_NtCsF7gmULBm3O_4pyo38instanceINtB5_5BoundNtNtCsaYfPqFfImBE_4dprs10parameters17BoundaryConditionE6borrowBO_, symObjAddr: 0x1410, symBinAddr: 0x1A8EC, symSize: 0x24 }
  - { offsetInCU: 0x6B31, offset: 0x63045, size: 0x8, addend: 0x0, symName: __RNvMs1_NtCsF7gmULBm3O_4pyo38instanceINtB5_5BoundNtNtCsaYfPqFfImBE_4dprs10parameters8TopologyE16get_class_objectBO_, symObjAddr: 0x1434, symBinAddr: 0x1A910, symSize: 0x2C }
  - { offsetInCU: 0x6B5D, offset: 0x63071, size: 0x8, addend: 0x0, symName: __RNvMs1_NtCsF7gmULBm3O_4pyo38instanceINtB5_5BoundNtNtCsaYfPqFfImBE_4dprs10parameters8TopologyE6borrowBO_, symObjAddr: 0x1460, symBinAddr: 0x1A93C, symSize: 0x24 }
  - { offsetInCU: 0x6B96, offset: 0x630AA, size: 0x8, addend: 0x0, symName: __RNvMs1_NtCsF7gmULBm3O_4pyo38instanceINtB5_5BoundNtNtCsaYfPqFfImBE_4dprs10parameters9DimensionE16get_class_objectBO_, symObjAddr: 0x1484, symBinAddr: 0x1A960, symSize: 0x2C }
  - { offsetInCU: 0x6BC2, offset: 0x630D6, size: 0x8, addend: 0x0, symName: __RNvMs1_NtCsF7gmULBm3O_4pyo38instanceINtB5_5BoundNtNtCsaYfPqFfImBE_4dprs10parameters9DimensionE6borrowBO_, symObjAddr: 0x14B0, symBinAddr: 0x1A98C, symSize: 0x24 }
  - { offsetInCU: 0x6BEE, offset: 0x63102, size: 0x8, addend: 0x0, symName: __RNvMs9_NtCsF7gmULBm3O_4pyo38instanceINtB5_5BoundNtNtCsaYfPqFfImBE_4dprs10parameters10ProcessingE6as_ptrBO_, symObjAddr: 0x14D4, symBinAddr: 0x1A9B0, symSize: 0x2C }
  - { offsetInCU: 0x6C1A, offset: 0x6312E, size: 0x8, addend: 0x0, symName: __RNvMs9_NtCsF7gmULBm3O_4pyo38instanceINtB5_5BoundNtNtCsaYfPqFfImBE_4dprs10parameters10ProcessingE6unbindBO_, symObjAddr: 0x1500, symBinAddr: 0x1A9DC, symSize: 0x3C }
  - { offsetInCU: 0x6C46, offset: 0x6315A, size: 0x8, addend: 0x0, symName: __RNvMs9_NtCsF7gmULBm3O_4pyo38instanceINtB5_5BoundNtNtCsaYfPqFfImBE_4dprs10parameters10ProcessingE8into_anyBO_, symObjAddr: 0x153C, symBinAddr: 0x1AA18, symSize: 0x30 }
  - { offsetInCU: 0x6C72, offset: 0x63186, size: 0x8, addend: 0x0, symName: __RNvMs9_NtCsF7gmULBm3O_4pyo38instanceINtB5_5BoundNtNtCsaYfPqFfImBE_4dprs10parameters17BoundaryConditionE6as_ptrBO_, symObjAddr: 0x156C, symBinAddr: 0x1AA48, symSize: 0x2C }
  - { offsetInCU: 0x6C9E, offset: 0x631B2, size: 0x8, addend: 0x0, symName: __RNvMs9_NtCsF7gmULBm3O_4pyo38instanceINtB5_5BoundNtNtCsaYfPqFfImBE_4dprs10parameters17BoundaryConditionE6unbindBO_, symObjAddr: 0x1598, symBinAddr: 0x1AA74, symSize: 0x3C }
  - { offsetInCU: 0x6CCA, offset: 0x631DE, size: 0x8, addend: 0x0, symName: __RNvMs9_NtCsF7gmULBm3O_4pyo38instanceINtB5_5BoundNtNtCsaYfPqFfImBE_4dprs10parameters17BoundaryConditionE8into_anyBO_, symObjAddr: 0x15D4, symBinAddr: 0x1AAB0, symSize: 0x30 }
  - { offsetInCU: 0x6CF6, offset: 0x6320A, size: 0x8, addend: 0x0, symName: __RNvMs9_NtCsF7gmULBm3O_4pyo38instanceINtB5_5BoundNtNtCsaYfPqFfImBE_4dprs10parameters8TopologyE6as_ptrBO_, symObjAddr: 0x1604, symBinAddr: 0x1AAE0, symSize: 0x2C }
  - { offsetInCU: 0x6D22, offset: 0x63236, size: 0x8, addend: 0x0, symName: __RNvMs9_NtCsF7gmULBm3O_4pyo38instanceINtB5_5BoundNtNtCsaYfPqFfImBE_4dprs10parameters8TopologyE6unbindBO_, symObjAddr: 0x1630, symBinAddr: 0x1AB0C, symSize: 0x3C }
  - { offsetInCU: 0x6D4E, offset: 0x63262, size: 0x8, addend: 0x0, symName: __RNvMs9_NtCsF7gmULBm3O_4pyo38instanceINtB5_5BoundNtNtCsaYfPqFfImBE_4dprs10parameters8TopologyE8into_anyBO_, symObjAddr: 0x166C, symBinAddr: 0x1AB48, symSize: 0x30 }
  - { offsetInCU: 0x6D7A, offset: 0x6328E, size: 0x8, addend: 0x0, symName: __RNvMs9_NtCsF7gmULBm3O_4pyo38instanceINtB5_5BoundNtNtCsaYfPqFfImBE_4dprs10parameters9DimensionE6as_ptrBO_, symObjAddr: 0x169C, symBinAddr: 0x1AB78, symSize: 0x2C }
  - { offsetInCU: 0x6DA6, offset: 0x632BA, size: 0x8, addend: 0x0, symName: __RNvMs9_NtCsF7gmULBm3O_4pyo38instanceINtB5_5BoundNtNtCsaYfPqFfImBE_4dprs10parameters9DimensionE6unbindBO_, symObjAddr: 0x16C8, symBinAddr: 0x1ABA4, symSize: 0x3C }
  - { offsetInCU: 0x6DD2, offset: 0x632E6, size: 0x8, addend: 0x0, symName: __RNvMs9_NtCsF7gmULBm3O_4pyo38instanceINtB5_5BoundNtNtCsaYfPqFfImBE_4dprs10parameters9DimensionE8into_anyBO_, symObjAddr: 0x1704, symBinAddr: 0x1ABE0, symSize: 0x30 }
  - { offsetInCU: 0x6DFE, offset: 0x63312, size: 0x8, addend: 0x0, symName: __RNvMs9_NtCsF7gmULBm3O_4pyo38instanceINtB5_5BoundNtNtNtB7_5types14notimplemented16PyNotImplementedE6unbindCsaYfPqFfImBE_4dprs, symObjAddr: 0x1734, symBinAddr: 0x1AC10, symSize: 0x3C }
  - { offsetInCU: 0x6E2A, offset: 0x6333E, size: 0x8, addend: 0x0, symName: __RNvMs9_NtCsF7gmULBm3O_4pyo38instanceINtB5_5BoundNtNtNtB7_5types14notimplemented16PyNotImplementedE8into_anyCsaYfPqFfImBE_4dprs, symObjAddr: 0x1770, symBinAddr: 0x1AC4C, symSize: 0x30 }
  - { offsetInCU: 0x6E56, offset: 0x6336A, size: 0x8, addend: 0x0, symName: __RNvMs9_NtCsF7gmULBm3O_4pyo38instanceINtB5_5BoundNtNtNtB7_5types3num5PyIntE8into_ptrCsaYfPqFfImBE_4dprs, symObjAddr: 0x17A0, symBinAddr: 0x1AC7C, symSize: 0x40 }
  - { offsetInCU: 0x6E82, offset: 0x63396, size: 0x8, addend: 0x0, symName: __RNvMs9_NtCsF7gmULBm3O_4pyo38instanceINtB5_5BoundNtNtNtB7_5types4list6PyListE6unbindCsaYfPqFfImBE_4dprs, symObjAddr: 0x17E0, symBinAddr: 0x1ACBC, symSize: 0x3C }
  - { offsetInCU: 0x6EAE, offset: 0x633C2, size: 0x8, addend: 0x0, symName: __RNvMs9_NtCsF7gmULBm3O_4pyo38instanceINtB5_5BoundNtNtNtB7_5types4list6PyListE8into_anyCsaYfPqFfImBE_4dprs, symObjAddr: 0x181C, symBinAddr: 0x1ACF8, symSize: 0x30 }
  - { offsetInCU: 0x6EDA, offset: 0x633EE, size: 0x8, addend: 0x0, symName: __RNvMs9_NtCsF7gmULBm3O_4pyo38instanceINtB5_5BoundNtNtNtB7_5types6string8PyStringE8into_ptrCsaYfPqFfImBE_4dprs, symObjAddr: 0x184C, symBinAddr: 0x1AD28, symSize: 0x40 }
  - { offsetInCU: 0x6F06, offset: 0x6341A, size: 0x8, addend: 0x0, symName: __RNvMsb_NtCsF7gmULBm3O_4pyo38instanceINtB5_8BorrowedNtNtCsaYfPqFfImBE_4dprs10parameters10ProcessingE6as_ptrBR_, symObjAddr: 0x188C, symBinAddr: 0x1AD68, symSize: 0x1C }
  - { offsetInCU: 0x6F32, offset: 0x63446, size: 0x8, addend: 0x0, symName: __RNvMsb_NtCsF7gmULBm3O_4pyo38instanceINtB5_8BorrowedNtNtCsaYfPqFfImBE_4dprs10parameters17BoundaryConditionE6as_ptrBR_, symObjAddr: 0x18A8, symBinAddr: 0x1AD84, symSize: 0x1C }
  - { offsetInCU: 0x6F5E, offset: 0x63472, size: 0x8, addend: 0x0, symName: __RNvMsb_NtCsF7gmULBm3O_4pyo38instanceINtB5_8BorrowedNtNtCsaYfPqFfImBE_4dprs10parameters8TopologyE6as_ptrBR_, symObjAddr: 0x18C4, symBinAddr: 0x1ADA0, symSize: 0x1C }
  - { offsetInCU: 0x6F8A, offset: 0x6349E, size: 0x8, addend: 0x0, symName: __RNvMsb_NtCsF7gmULBm3O_4pyo38instanceINtB5_8BorrowedNtNtCsaYfPqFfImBE_4dprs10parameters9DimensionE6as_ptrBR_, symObjAddr: 0x18E0, symBinAddr: 0x1ADBC, symSize: 0x1C }
  - { offsetInCU: 0x6FC3, offset: 0x634D7, size: 0x8, addend: 0x0, symName: __RNvMsb_NtCsF7gmULBm3O_4pyo38instanceINtB5_8BorrowedNtNtNtB7_5types10boolobject6PyBoolE6to_anyCsaYfPqFfImBE_4dprs, symObjAddr: 0x18FC, symBinAddr: 0x1ADD8, symSize: 0x14 }
  - { offsetInCU: 0x6FEF, offset: 0x63503, size: 0x8, addend: 0x0, symName: __RNvMsb_NtCsF7gmULBm3O_4pyo38instanceINtB5_8BorrowedNtNtNtB7_5types14notimplemented16PyNotImplementedE8to_ownedCsaYfPqFfImBE_4dprs, symObjAddr: 0x1910, symBinAddr: 0x1ADEC, symSize: 0x2C }
  - { offsetInCU: 0x701B, offset: 0x6352F, size: 0x8, addend: 0x0, symName: __RNvMsc_NtCsF7gmULBm3O_4pyo38instanceINtB5_8BorrowedNtNtCsaYfPqFfImBE_4dprs10parameters10ProcessingE16get_class_objectBR_, symObjAddr: 0x193C, symBinAddr: 0x1AE18, symSize: 0x74 }
  - { offsetInCU: 0x7047, offset: 0x6355B, size: 0x8, addend: 0x0, symName: __RNvMsc_NtCsF7gmULBm3O_4pyo38instanceINtB5_8BorrowedNtNtCsaYfPqFfImBE_4dprs10parameters17BoundaryConditionE16get_class_objectBR_, symObjAddr: 0x19B0, symBinAddr: 0x1AE8C, symSize: 0x74 }
  - { offsetInCU: 0x7073, offset: 0x63587, size: 0x8, addend: 0x0, symName: __RNvMsc_NtCsF7gmULBm3O_4pyo38instanceINtB5_8BorrowedNtNtCsaYfPqFfImBE_4dprs10parameters8TopologyE16get_class_objectBR_, symObjAddr: 0x1A24, symBinAddr: 0x1AF00, symSize: 0x74 }
  - { offsetInCU: 0x709F, offset: 0x635B3, size: 0x8, addend: 0x0, symName: __RNvMsc_NtCsF7gmULBm3O_4pyo38instanceINtB5_8BorrowedNtNtCsaYfPqFfImBE_4dprs10parameters9DimensionE16get_class_objectBR_, symObjAddr: 0x1A98, symBinAddr: 0x1AF74, symSize: 0x74 }
  - { offsetInCU: 0x70CB, offset: 0x635DF, size: 0x8, addend: 0x0, symName: __RNvMso_NtCsF7gmULBm3O_4pyo38instanceINtB5_2PyNtNtCsaYfPqFfImBE_4dprs10parameters10ProcessingE6as_ptrBL_, symObjAddr: 0x1B0C, symBinAddr: 0x1AFE8, symSize: 0x1C }
  - { offsetInCU: 0x70F7, offset: 0x6360B, size: 0x8, addend: 0x0, symName: __RNvMso_NtCsF7gmULBm3O_4pyo38instanceINtB5_2PyNtNtCsaYfPqFfImBE_4dprs10parameters10ProcessingE8into_anyBL_, symObjAddr: 0x1B28, symBinAddr: 0x1B004, symSize: 0x30 }
  - { offsetInCU: 0x7123, offset: 0x63637, size: 0x8, addend: 0x0, symName: __RNvMso_NtCsF7gmULBm3O_4pyo38instanceINtB5_2PyNtNtCsaYfPqFfImBE_4dprs10parameters17BoundaryConditionE6as_ptrBL_, symObjAddr: 0x1B58, symBinAddr: 0x1B034, symSize: 0x1C }
  - { offsetInCU: 0x714F, offset: 0x63663, size: 0x8, addend: 0x0, symName: __RNvMso_NtCsF7gmULBm3O_4pyo38instanceINtB5_2PyNtNtCsaYfPqFfImBE_4dprs10parameters17BoundaryConditionE8into_anyBL_, symObjAddr: 0x1B74, symBinAddr: 0x1B050, symSize: 0x30 }
  - { offsetInCU: 0x717B, offset: 0x6368F, size: 0x8, addend: 0x0, symName: __RNvMso_NtCsF7gmULBm3O_4pyo38instanceINtB5_2PyNtNtCsaYfPqFfImBE_4dprs10parameters8TopologyE6as_ptrBL_, symObjAddr: 0x1BA4, symBinAddr: 0x1B080, symSize: 0x1C }
  - { offsetInCU: 0x71A7, offset: 0x636BB, size: 0x8, addend: 0x0, symName: __RNvMso_NtCsF7gmULBm3O_4pyo38instanceINtB5_2PyNtNtCsaYfPqFfImBE_4dprs10parameters8TopologyE8into_anyBL_, symObjAddr: 0x1BC0, symBinAddr: 0x1B09C, symSize: 0x30 }
  - { offsetInCU: 0x71D3, offset: 0x636E7, size: 0x8, addend: 0x0, symName: __RNvMso_NtCsF7gmULBm3O_4pyo38instanceINtB5_2PyNtNtCsaYfPqFfImBE_4dprs10parameters9DimensionE6as_ptrBL_, symObjAddr: 0x1BF0, symBinAddr: 0x1B0CC, symSize: 0x1C }
  - { offsetInCU: 0x71FF, offset: 0x63713, size: 0x8, addend: 0x0, symName: __RNvMso_NtCsF7gmULBm3O_4pyo38instanceINtB5_2PyNtNtCsaYfPqFfImBE_4dprs10parameters9DimensionE8into_anyBL_, symObjAddr: 0x1C0C, symBinAddr: 0x1B0E8, symSize: 0x30 }
  - { offsetInCU: 0x722B, offset: 0x6373F, size: 0x8, addend: 0x0, symName: __RNvMso_NtCsF7gmULBm3O_4pyo38instanceINtB5_2PyNtNtNtB7_5types14notimplemented16PyNotImplementedE8into_anyCsaYfPqFfImBE_4dprs, symObjAddr: 0x1C3C, symBinAddr: 0x1B118, symSize: 0x30 }
  - { offsetInCU: 0x7257, offset: 0x6376B, size: 0x8, addend: 0x0, symName: __RNvMso_NtCsF7gmULBm3O_4pyo38instanceINtB5_2PyNtNtNtB7_5types4list6PyListE8into_anyCsaYfPqFfImBE_4dprs, symObjAddr: 0x1C6C, symBinAddr: 0x1B148, symSize: 0x30 }
  - { offsetInCU: 0x7283, offset: 0x63797, size: 0x8, addend: 0x0, symName: __RNvMsp_NtCsF7gmULBm3O_4pyo38instanceINtB5_2PyNtNtCsaYfPqFfImBE_4dprs10parameters10ProcessingE16get_class_objectBL_, symObjAddr: 0x1C9C, symBinAddr: 0x1B178, symSize: 0x78 }
  - { offsetInCU: 0x72C5, offset: 0x637D9, size: 0x8, addend: 0x0, symName: __RNvMsp_NtCsF7gmULBm3O_4pyo38instanceINtB5_2PyNtNtCsaYfPqFfImBE_4dprs10parameters17BoundaryConditionE16get_class_objectBL_, symObjAddr: 0x1D14, symBinAddr: 0x1B1F0, symSize: 0x78 }
  - { offsetInCU: 0x7307, offset: 0x6381B, size: 0x8, addend: 0x0, symName: __RNvMsp_NtCsF7gmULBm3O_4pyo38instanceINtB5_2PyNtNtCsaYfPqFfImBE_4dprs10parameters8TopologyE16get_class_objectBL_, symObjAddr: 0x1D8C, symBinAddr: 0x1B268, symSize: 0x78 }
  - { offsetInCU: 0x7349, offset: 0x6385D, size: 0x8, addend: 0x0, symName: __RNvMsp_NtCsF7gmULBm3O_4pyo38instanceINtB5_2PyNtNtCsaYfPqFfImBE_4dprs10parameters9DimensionE16get_class_objectBL_, symObjAddr: 0x1E04, symBinAddr: 0x1B2E0, symSize: 0x78 }
  - { offsetInCU: 0x738B, offset: 0x6389F, size: 0x8, addend: 0x0, symName: __RNvMsq_NtCsF7gmULBm3O_4pyo38instanceINtB5_2PyNtNtCsaYfPqFfImBE_4dprs10parameters10ProcessingE4bindBL_, symObjAddr: 0x1E7C, symBinAddr: 0x1B358, symSize: 0x38 }
  - { offsetInCU: 0x73F0, offset: 0x63904, size: 0x8, addend: 0x0, symName: __RNvMsq_NtCsF7gmULBm3O_4pyo38instanceINtB5_2PyNtNtCsaYfPqFfImBE_4dprs10parameters10ProcessingE9clone_refBL_, symObjAddr: 0x1EB4, symBinAddr: 0x1B390, symSize: 0x10C }
  - { offsetInCU: 0x748C, offset: 0x639A0, size: 0x8, addend: 0x0, symName: __RNvMsq_NtCsF7gmULBm3O_4pyo38instanceINtB5_2PyNtNtCsaYfPqFfImBE_4dprs10parameters17BoundaryConditionE4bindBL_, symObjAddr: 0x1FC0, symBinAddr: 0x1B49C, symSize: 0x38 }
  - { offsetInCU: 0x74F1, offset: 0x63A05, size: 0x8, addend: 0x0, symName: __RNvMsq_NtCsF7gmULBm3O_4pyo38instanceINtB5_2PyNtNtCsaYfPqFfImBE_4dprs10parameters17BoundaryConditionE9clone_refBL_, symObjAddr: 0x1FF8, symBinAddr: 0x1B4D4, symSize: 0x10C }
  - { offsetInCU: 0x758D, offset: 0x63AA1, size: 0x8, addend: 0x0, symName: __RNvMsq_NtCsF7gmULBm3O_4pyo38instanceINtB5_2PyNtNtCsaYfPqFfImBE_4dprs10parameters8TopologyE4bindBL_, symObjAddr: 0x2104, symBinAddr: 0x1B5E0, symSize: 0x38 }
  - { offsetInCU: 0x75F2, offset: 0x63B06, size: 0x8, addend: 0x0, symName: __RNvMsq_NtCsF7gmULBm3O_4pyo38instanceINtB5_2PyNtNtCsaYfPqFfImBE_4dprs10parameters8TopologyE9clone_refBL_, symObjAddr: 0x213C, symBinAddr: 0x1B618, symSize: 0x10C }
  - { offsetInCU: 0x768E, offset: 0x63BA2, size: 0x8, addend: 0x0, symName: __RNvMsq_NtCsF7gmULBm3O_4pyo38instanceINtB5_2PyNtNtCsaYfPqFfImBE_4dprs10parameters9DimensionE4bindBL_, symObjAddr: 0x2248, symBinAddr: 0x1B724, symSize: 0x38 }
  - { offsetInCU: 0x76F3, offset: 0x63C07, size: 0x8, addend: 0x0, symName: __RNvMsq_NtCsF7gmULBm3O_4pyo38instanceINtB5_2PyNtNtCsaYfPqFfImBE_4dprs10parameters9DimensionE9clone_refBL_, symObjAddr: 0x2280, symBinAddr: 0x1B75C, symSize: 0x10C }
  - { offsetInCU: 0x778F, offset: 0x63CA3, size: 0x8, addend: 0x0, symName: __RNvMsq_NtCsF7gmULBm3O_4pyo38instanceINtB5_2PyNtNtNtB7_5types14notimplemented16PyNotImplementedE9clone_refCsaYfPqFfImBE_4dprs, symObjAddr: 0x238C, symBinAddr: 0x1B868, symSize: 0x10C }
  - { offsetInCU: 0x1E, offset: 0x63E20, size: 0x8, addend: 0x0, symName: __RNvMs_NtNtNtCsF7gmULBm3O_4pyo35impl_7pyclass16lazy_type_objectINtB4_14LazyTypeObjectNtNtCsaYfPqFfImBE_4dprs10parameters10ProcessingE15get_or_try_initB1o_, symObjAddr: 0x0, symBinAddr: 0x1BD0C, symSize: 0x70 }
  - { offsetInCU: 0x27A3, offset: 0x665A5, size: 0x8, addend: 0x0, symName: __RNvMs_NtNtNtCsF7gmULBm3O_4pyo35impl_7pyclass16lazy_type_objectINtB4_14LazyTypeObjectNtNtCsaYfPqFfImBE_4dprs10parameters10ProcessingE15get_or_try_initB1o_, symObjAddr: 0x0, symBinAddr: 0x1BD0C, symSize: 0x70 }
  - { offsetInCU: 0x2804, offset: 0x66606, size: 0x8, addend: 0x0, symName: __RNvMs_NtNtNtCsF7gmULBm3O_4pyo35impl_7pyclass16lazy_type_objectINtB4_14LazyTypeObjectNtNtCsaYfPqFfImBE_4dprs10parameters10ProcessingE8try_initB1o_, symObjAddr: 0x70, symBinAddr: 0xCE904, symSize: 0x58 }
  - { offsetInCU: 0x2855, offset: 0x66657, size: 0x8, addend: 0x0, symName: __RNvMs_NtNtNtCsF7gmULBm3O_4pyo35impl_7pyclass16lazy_type_objectINtB4_14LazyTypeObjectNtNtCsaYfPqFfImBE_4dprs10parameters17BoundaryConditionE15get_or_try_initB1o_, symObjAddr: 0xC8, symBinAddr: 0x1BD7C, symSize: 0x70 }
  - { offsetInCU: 0x28B6, offset: 0x666B8, size: 0x8, addend: 0x0, symName: __RNvMs_NtNtNtCsF7gmULBm3O_4pyo35impl_7pyclass16lazy_type_objectINtB4_14LazyTypeObjectNtNtCsaYfPqFfImBE_4dprs10parameters17BoundaryConditionE8try_initB1o_, symObjAddr: 0x138, symBinAddr: 0xCE95C, symSize: 0x58 }
  - { offsetInCU: 0x2907, offset: 0x66709, size: 0x8, addend: 0x0, symName: __RNvMs_NtNtNtCsF7gmULBm3O_4pyo35impl_7pyclass16lazy_type_objectINtB4_14LazyTypeObjectNtNtCsaYfPqFfImBE_4dprs10parameters8TopologyE15get_or_try_initB1o_, symObjAddr: 0x190, symBinAddr: 0x1BDEC, symSize: 0x70 }
  - { offsetInCU: 0x2968, offset: 0x6676A, size: 0x8, addend: 0x0, symName: __RNvMs_NtNtNtCsF7gmULBm3O_4pyo35impl_7pyclass16lazy_type_objectINtB4_14LazyTypeObjectNtNtCsaYfPqFfImBE_4dprs10parameters8TopologyE8try_initB1o_, symObjAddr: 0x200, symBinAddr: 0xCE9B4, symSize: 0x58 }
  - { offsetInCU: 0x29B9, offset: 0x667BB, size: 0x8, addend: 0x0, symName: __RNvMs_NtNtNtCsF7gmULBm3O_4pyo35impl_7pyclass16lazy_type_objectINtB4_14LazyTypeObjectNtNtCsaYfPqFfImBE_4dprs10parameters9DimensionE15get_or_try_initB1o_, symObjAddr: 0x258, symBinAddr: 0x1BE5C, symSize: 0x70 }
  - { offsetInCU: 0x2A1A, offset: 0x6681C, size: 0x8, addend: 0x0, symName: __RNvMs_NtNtNtCsF7gmULBm3O_4pyo35impl_7pyclass16lazy_type_objectINtB4_14LazyTypeObjectNtNtCsaYfPqFfImBE_4dprs10parameters9DimensionE8try_initB1o_, symObjAddr: 0x2C8, symBinAddr: 0xCEA0C, symSize: 0x58 }
  - { offsetInCU: 0x40, offset: 0x668AD, size: 0x8, addend: 0x0, symName: __RNvNtNtNtCsaYfPqFfImBE_4dprs3sim3sim2dp9__PYO3_DEF, symObjAddr: 0x18, symBinAddr: 0x14C930, symSize: 0x0 }
  - { offsetInCU: 0x1E, offset: 0x67E3B, size: 0x8, addend: 0x0, symName: __RINvXs0_NtNtNtCs2tD97QJu26F_4core4iter6traits8iteratorQINtNtNtBa_8adapters3map3MapINtNtNtCs9xDkXAC1PNF_5alloc3vec9into_iter8IntoIterINtB1n_3VecbEENCINvYB26_NtNtCsF7gmULBm3O_4pyo310conversion12IntoPyObject28owned_sequence_into_pyobjectIB27_B26_EE0ENtB6_8Iterator8try_foldiNCINvNvXs_NtBW_4takeINtB4v_4TakepEB3X_8try_fold5checkINtNtBc_6result6ResultINtNtB2y_8instance5BoundNtNtNtB2y_5types3any5PyAnyENtNtB2y_3err5PyErrEiIB5d_iB6n_ENCINvNtB60_4list17try_new_from_iterBQ_E0E0INtNtNtBc_3ops12control_flow11ControlFlowB6H_iEECsaYfPqFfImBE_4dprs, symObjAddr: 0x0, symBinAddr: 0x1BECC, symSize: 0x38 }
  - { offsetInCU: 0x853, offset: 0x68670, size: 0x8, addend: 0x0, symName: __RINvXs0_NtNtNtCs2tD97QJu26F_4core4iter6traits8iteratorQINtNtNtBa_8adapters3map3MapINtNtNtCs9xDkXAC1PNF_5alloc3vec9into_iter8IntoIterINtB1n_3VecbEENCINvYB26_NtNtCsF7gmULBm3O_4pyo310conversion12IntoPyObject28owned_sequence_into_pyobjectIB27_B26_EE0ENtB6_8Iterator8try_foldiNCINvNvXs_NtBW_4takeINtB4v_4TakepEB3X_8try_fold5checkINtNtBc_6result6ResultINtNtB2y_8instance5BoundNtNtNtB2y_5types3any5PyAnyENtNtB2y_3err5PyErrEiIB5d_iB6n_ENCINvNtB60_4list17try_new_from_iterBQ_E0E0INtNtNtBc_3ops12control_flow11ControlFlowB6H_iEECsaYfPqFfImBE_4dprs, symObjAddr: 0x0, symBinAddr: 0x1BECC, symSize: 0x38 }
  - { offsetInCU: 0x8C3, offset: 0x686E0, size: 0x8, addend: 0x0, symName: __RINvXs0_NtNtNtCs2tD97QJu26F_4core4iter6traits8iteratorQINtNtNtBa_8adapters3map3MapINtNtNtCs9xDkXAC1PNF_5alloc3vec9into_iter8IntoIterbENCINvYbNtNtCsF7gmULBm3O_4pyo310conversion12IntoPyObject28owned_sequence_into_pyobjectINtB1n_3VecbEE0ENtB6_8Iterator8try_foldiNCINvNvXs_NtBW_4takeINtB4j_4TakepEB3L_8try_fold5checkINtNtBc_6result6ResultINtNtB2j_8instance5BoundNtNtNtB2j_5types3any5PyAnyENtNtB2j_3err5PyErrEiIB51_iB6b_ENCINvNtB5O_4list17try_new_from_iterBQ_E0E0INtNtNtBc_3ops12control_flow11ControlFlowB6v_iEECsaYfPqFfImBE_4dprs, symObjAddr: 0x38, symBinAddr: 0x1BF04, symSize: 0x38 }
  - { offsetInCU: 0x933, offset: 0x68750, size: 0x8, addend: 0x0, symName: __RINvXs0_NtNtNtCs2tD97QJu26F_4core4iter6traits8iteratorQQINtNtNtBa_8adapters3map3MapINtNtNtCs9xDkXAC1PNF_5alloc3vec9into_iter8IntoIterINtB1o_3VecbEENCINvYB27_NtNtCsF7gmULBm3O_4pyo310conversion12IntoPyObject28owned_sequence_into_pyobjectIB28_B27_EE0ENtB6_8Iterator8try_foldiNCINvNvXs_NtBX_4takeINtB4w_4TakepEB3Y_8try_fold5checkINtNtBc_6result6ResultINtNtB2z_8instance5BoundNtNtNtB2z_5types3any5PyAnyENtNtB2z_3err5PyErrEiIB5e_iB6o_ENCINvNtB61_4list17try_new_from_iterBR_E0E0INtNtNtBc_3ops12control_flow11ControlFlowB6I_iEECsaYfPqFfImBE_4dprs, symObjAddr: 0x70, symBinAddr: 0x1BF3C, symSize: 0x38 }
  - { offsetInCU: 0x9A3, offset: 0x687C0, size: 0x8, addend: 0x0, symName: __RINvXs0_NtNtNtCs2tD97QJu26F_4core4iter6traits8iteratorQQINtNtNtBa_8adapters3map3MapINtNtNtCs9xDkXAC1PNF_5alloc3vec9into_iter8IntoIterbENCINvYbNtNtCsF7gmULBm3O_4pyo310conversion12IntoPyObject28owned_sequence_into_pyobjectINtB1o_3VecbEE0ENtB6_8Iterator8try_foldiNCINvNvXs_NtBX_4takeINtB4k_4TakepEB3M_8try_fold5checkINtNtBc_6result6ResultINtNtB2k_8instance5BoundNtNtNtB2k_5types3any5PyAnyENtNtB2k_3err5PyErrEiIB52_iB6c_ENCINvNtB5P_4list17try_new_from_iterBR_E0E0INtNtNtBc_3ops12control_flow11ControlFlowB6w_iEECsaYfPqFfImBE_4dprs, symObjAddr: 0xA8, symBinAddr: 0x1BF74, symSize: 0x38 }
  - { offsetInCU: 0xA13, offset: 0x68830, size: 0x8, addend: 0x0, symName: __RNvXs0_NtNtNtCs2tD97QJu26F_4core4iter6traits8iteratorQINtNtNtB9_8adapters3map3MapINtNtNtCs9xDkXAC1PNF_5alloc3vec9into_iter8IntoIterINtB1m_3VecbEENCINvYB25_NtNtCsF7gmULBm3O_4pyo310conversion12IntoPyObject28owned_sequence_into_pyobjectIB26_B25_EE0ENtB5_8Iterator4nextCsaYfPqFfImBE_4dprs, symObjAddr: 0x126C, symBinAddr: 0x1D138, symSize: 0x28 }
  - { offsetInCU: 0xA4A, offset: 0x68867, size: 0x8, addend: 0x0, symName: __RNvXs0_NtNtNtCs2tD97QJu26F_4core4iter6traits8iteratorQINtNtNtB9_8adapters3map3MapINtNtNtCs9xDkXAC1PNF_5alloc3vec9into_iter8IntoIterbENCINvYbNtNtCsF7gmULBm3O_4pyo310conversion12IntoPyObject28owned_sequence_into_pyobjectINtB1m_3VecbEE0ENtB5_8Iterator4nextCsaYfPqFfImBE_4dprs, symObjAddr: 0x1294, symBinAddr: 0x1D160, symSize: 0x28 }
  - { offsetInCU: 0xBE2, offset: 0x689FF, size: 0x8, addend: 0x0, symName: __RINvYINtNtNtNtCs2tD97QJu26F_4core4iter8adapters3map3MapINtNtNtBc_3ops5range5RangejENCINvMNtNtCsaYfPqFfImBE_4dprs2dp8model_2dINtB1p_14LatticeModel2DNtNtB1r_11dp_model_2d7DPModelE21next_iteration_serialNtNtNtCseSFJDzX8FyV_4rand4rngs6thread9ThreadRngE0ENtNtNtBa_6traits8iterator8Iterator7collectINtNtCs9xDkXAC1PNF_5alloc3vec3VecbEEB1t_, symObjAddr: 0x588, symBinAddr: 0x1C454, symSize: 0x14 }
  - { offsetInCU: 0xC23, offset: 0x68A40, size: 0x8, addend: 0x0, symName: __RINvYINtNtNtNtCs2tD97QJu26F_4core4iter8adapters3map3MapINtNtNtBc_3ops5range5RangejENCINvMNtNtCsaYfPqFfImBE_4dprs2dp8model_2dINtB1p_14LatticeModel2DNtNtB1r_11dp_model_2d7DPModelE21next_iteration_serialNtNtNtCseSFJDzX8FyV_4rand4rngs6thread9ThreadRngE0ENtNtNtBa_6traits8iterator8Iterator8for_eachNCINvMsj_NtCs9xDkXAC1PNF_5alloc3vecINtB4Q_3VecbE14extend_trustedB3_E0EB1t_, symObjAddr: 0x59C, symBinAddr: 0x1C468, symSize: 0x34 }
  - { offsetInCU: 0xC8F, offset: 0x68AAC, size: 0x8, addend: 0x0, symName: __RINvYINtNtNtNtCs2tD97QJu26F_4core4iter8adapters3map3MapINtNtNtBc_3ops5range5RangejENCINvMNtNtCsaYfPqFfImBE_4dprs2dp8model_2dINtB1p_14LatticeModel2DNtNtB1r_11dp_model_2d7DPModelE9randomizeNtNtNtCseSFJDzX8FyV_4rand4rngs6thread9ThreadRngE0ENtNtNtBa_6traits8iterator8Iterator7collectINtNtCs9xDkXAC1PNF_5alloc3vec3VecbEEB1t_, symObjAddr: 0x5D0, symBinAddr: 0x1C49C, symSize: 0x14 }
  - { offsetInCU: 0xCD0, offset: 0x68AED, size: 0x8, addend: 0x0, symName: __RINvYINtNtNtNtCs2tD97QJu26F_4core4iter8adapters3map3MapINtNtNtBc_3ops5range5RangejENCINvMNtNtCsaYfPqFfImBE_4dprs2dp8model_2dINtB1p_14LatticeModel2DNtNtB1r_11dp_model_2d7DPModelE9randomizeNtNtNtCseSFJDzX8FyV_4rand4rngs6thread9ThreadRngE0ENtNtNtBa_6traits8iterator8Iterator8for_eachNCINvMsj_NtCs9xDkXAC1PNF_5alloc3vecINtB4D_3VecbE14extend_trustedB3_E0EB1t_, symObjAddr: 0x5E4, symBinAddr: 0x1C4B0, symSize: 0x34 }
  - { offsetInCU: 0xD3C, offset: 0x68B59, size: 0x8, addend: 0x0, symName: __RINvYINtNtNtNtCs2tD97QJu26F_4core4iter8adapters3map3MapINtNtNtBc_3ops5range5RangejENCINvMNtNtCsaYfPqFfImBE_4dprs4life8model_2dINtB1p_14LatticeModel2DNtNtB1r_10life_model9LifeModelE9randomizeNtNtNtCseSFJDzX8FyV_4rand4rngs6thread9ThreadRngE0ENtNtNtBa_6traits8iterator8Iterator7collectINtNtCs9xDkXAC1PNF_5alloc3vec3VecbEEB1t_, symObjAddr: 0x618, symBinAddr: 0x1C4E4, symSize: 0x14 }
  - { offsetInCU: 0xD7D, offset: 0x68B9A, size: 0x8, addend: 0x0, symName: __RINvYINtNtNtNtCs2tD97QJu26F_4core4iter8adapters3map3MapINtNtNtBc_3ops5range5RangejENCINvMNtNtCsaYfPqFfImBE_4dprs4life8model_2dINtB1p_14LatticeModel2DNtNtB1r_10life_model9LifeModelE9randomizeNtNtNtCseSFJDzX8FyV_4rand4rngs6thread9ThreadRngE0ENtNtNtBa_6traits8iterator8Iterator8for_eachNCINvMsj_NtCs9xDkXAC1PNF_5alloc3vecINtB4G_3VecbE14extend_trustedB3_E0EB1t_, symObjAddr: 0x62C, symBinAddr: 0x1C4F8, symSize: 0x34 }
  - { offsetInCU: 0xDE9, offset: 0x68C06, size: 0x8, addend: 0x0, symName: __RINvYINtNtNtNtCs2tD97QJu26F_4core4iter8adapters3map3MapINtNtNtBc_3ops5range5RangejENCNvMNtNtCsaYfPqFfImBE_4dprs4life8model_2dINtB1o_14LatticeModel2DNtNtB1q_10life_model9LifeModelE21next_iteration_serial0ENtNtNtBa_6traits8iterator8Iterator7collectINtNtCs9xDkXAC1PNF_5alloc3vec3VecbEEB1s_, symObjAddr: 0x660, symBinAddr: 0x1C52C, symSize: 0x14 }
  - { offsetInCU: 0xE2A, offset: 0x68C47, size: 0x8, addend: 0x0, symName: __RINvYINtNtNtNtCs2tD97QJu26F_4core4iter8adapters3map3MapINtNtNtBc_3ops5range5RangejENCNvMNtNtCsaYfPqFfImBE_4dprs4life8model_2dINtB1o_14LatticeModel2DNtNtB1q_10life_model9LifeModelE21next_iteration_serial0ENtNtNtBa_6traits8iterator8Iterator8for_eachNCINvMsj_NtCs9xDkXAC1PNF_5alloc3vecINtB46_3VecbE14extend_trustedB3_E0EB1s_, symObjAddr: 0x674, symBinAddr: 0x1C540, symSize: 0x34 }
  - { offsetInCU: 0xE96, offset: 0x68CB3, size: 0x8, addend: 0x0, symName: __RINvYINtNtNtNtCs2tD97QJu26F_4core4iter8adapters3map3MapINtNtNtBc_3ops5range5RangejERNCNvMNtNtCsaYfPqFfImBE_4dprs4life8model_2dINtB1p_14LatticeModel2DNtNtB1r_10life_model9LifeModelE23next_iteration_parallel0ENtNtNtBa_6traits8iterator8Iterator8for_eachNCINvMsj_NtCs9xDkXAC1PNF_5alloc3vecINtB49_3VecbE14extend_trustedB3_E0EB1t_, symObjAddr: 0x6A8, symBinAddr: 0x1C574, symSize: 0x34 }
  - { offsetInCU: 0xF02, offset: 0x68D1F, size: 0x8, addend: 0x0, symName: __RINvYINtNtNtNtCs2tD97QJu26F_4core4iter8adapters3map3MapINtNtNtBc_5slice4iter4IterbENCNvXNtNtCsaYfPqFfImBE_4dprs2dp11dp_model_2dNtB1o_7DPModelNtNtB1q_8model_2d7Model2D11cell_update0ENtNtNtBa_6traits8iterator8Iterator3sumjEB1s_, symObjAddr: 0x6DC, symBinAddr: 0x1C5A8, symSize: 0x2C }
  - { offsetInCU: 0xF42, offset: 0x68D5F, size: 0x8, addend: 0x0, symName: __RINvYINtNtNtNtCs2tD97QJu26F_4core4iter8adapters3map3MapINtNtNtBc_5slice4iter4IterbENCNvXNtNtCsaYfPqFfImBE_4dprs4life10life_modelNtB1o_9LifeModelNtNtB1q_8model_2d7Model2D9next_cell0ENtNtNtBa_6traits8iterator8Iterator3sumjEB1s_, symObjAddr: 0x708, symBinAddr: 0x1C5D4, symSize: 0x2C }
  - { offsetInCU: 0xF82, offset: 0x68D9F, size: 0x8, addend: 0x0, symName: __RINvYINtNtNtNtCs2tD97QJu26F_4core4iter8adapters3map3MapINtNtNtBc_5slice4iter4IterbENCNvXNtNtCsaYfPqFfImBE_4dprs4life10life_modelNtB1o_9LifeModelNtNtB1q_8model_2d7Model2D9next_cells_0ENtNtNtBa_6traits8iterator8Iterator3sumjEB1s_, symObjAddr: 0x734, symBinAddr: 0x1C600, symSize: 0x2C }
  - { offsetInCU: 0xFC2, offset: 0x68DDF, size: 0x8, addend: 0x0, symName: __RINvYINtNtNtNtCs2tD97QJu26F_4core4iter8adapters3map3MapINtNtNtCs9xDkXAC1PNF_5alloc11collections11linked_list4IterINtNtBY_3vec3VecbEENvMs_B1Q_B1N_3lenENtNtNtBa_6traits8iterator8Iterator3sumjECsaYfPqFfImBE_4dprs, symObjAddr: 0x760, symBinAddr: 0x1C62C, symSize: 0x14 }
  - { offsetInCU: 0x1003, offset: 0x68E20, size: 0x8, addend: 0x0, symName: __RINvYINtNtNtNtCs2tD97QJu26F_4core4iter8adapters3map3MapINtNtNtCs9xDkXAC1PNF_5alloc3vec9into_iter8IntoIterINtBW_3VecbEENCNvNtCsaYfPqFfImBE_4dprs2dp14run_simulations_0ENtNtNtBa_6traits8iterator8Iterator7collectIB1G_B1F_EEB1Y_, symObjAddr: 0x774, symBinAddr: 0x1C640, symSize: 0x14 }
  - { offsetInCU: 0x1044, offset: 0x68E61, size: 0x8, addend: 0x0, symName: __RINvYINtNtNtNtCs2tD97QJu26F_4core4iter8adapters3map3MapINtNtNtCs9xDkXAC1PNF_5alloc3vec9into_iter8IntoIterINtBW_3VecbEENCNvNtCsaYfPqFfImBE_4dprs4life14run_simulations_0ENtNtNtBa_6traits8iterator8Iterator7collectIB1G_B1F_EEB1Y_, symObjAddr: 0x788, symBinAddr: 0x1C654, symSize: 0x14 }
  - { offsetInCU: 0x1085, offset: 0x68EA2, size: 0x8, addend: 0x0, symName: __RNvYQQINtNtNtNtCs2tD97QJu26F_4core4iter8adapters3map3MapINtNtNtCs9xDkXAC1PNF_5alloc3vec9into_iter8IntoIterINtBX_3VecbEENCINvYB1G_NtNtCsF7gmULBm3O_4pyo310conversion12IntoPyObject28owned_sequence_into_pyobjectIB1H_B1G_EE0ENtNtNtBb_6traits8iterator8Iterator4takeCsaYfPqFfImBE_4dprs, symObjAddr: 0x15CC, symBinAddr: 0x1D498, symSize: 0x18 }
  - { offsetInCU: 0x10CB, offset: 0x68EE8, size: 0x8, addend: 0x0, symName: __RNvYQQINtNtNtNtCs2tD97QJu26F_4core4iter8adapters3map3MapINtNtNtCs9xDkXAC1PNF_5alloc3vec9into_iter8IntoIterbENCINvYbNtNtCsF7gmULBm3O_4pyo310conversion12IntoPyObject28owned_sequence_into_pyobjectINtBX_3VecbEE0ENtNtNtBb_6traits8iterator8Iterator4takeCsaYfPqFfImBE_4dprs, symObjAddr: 0x15E4, symBinAddr: 0x1D4B0, symSize: 0x18 }
  - { offsetInCU: 0x1117, offset: 0x68F34, size: 0x8, addend: 0x0, symName: __RINvXs2_NtNtNtCs2tD97QJu26F_4core4iter6traits8iteratorQINtNtNtBa_8adapters3map3MapINtNtNtCs9xDkXAC1PNF_5alloc3vec9into_iter8IntoIterINtB1n_3VecbEENCINvYB26_NtNtCsF7gmULBm3O_4pyo310conversion12IntoPyObject28owned_sequence_into_pyobjectIB27_B26_EE0ENtB6_15IteratorRefSpec13spec_try_foldiNCINvNvXs_NtBW_4takeINtB4J_4TakepENtB6_8Iterator8try_fold5checkINtNtBc_6result6ResultINtNtB2y_8instance5BoundNtNtNtB2y_5types3any5PyAnyENtNtB2y_3err5PyErrEiIB5B_iB6L_ENCINvNtB6o_4list17try_new_from_iterBQ_E0E0INtNtNtBc_3ops12control_flow11ControlFlowB75_iEECsaYfPqFfImBE_4dprs, symObjAddr: 0x498, symBinAddr: 0x1C364, symSize: 0x3C }
  - { offsetInCU: 0x1187, offset: 0x68FA4, size: 0x8, addend: 0x0, symName: __RINvXs2_NtNtNtCs2tD97QJu26F_4core4iter6traits8iteratorQINtNtNtBa_8adapters3map3MapINtNtNtCs9xDkXAC1PNF_5alloc3vec9into_iter8IntoIterbENCINvYbNtNtCsF7gmULBm3O_4pyo310conversion12IntoPyObject28owned_sequence_into_pyobjectINtB1n_3VecbEE0ENtB6_15IteratorRefSpec13spec_try_foldiNCINvNvXs_NtBW_4takeINtB4x_4TakepENtB6_8Iterator8try_fold5checkINtNtBc_6result6ResultINtNtB2j_8instance5BoundNtNtNtB2j_5types3any5PyAnyENtNtB2j_3err5PyErrEiIB5p_iB6z_ENCINvNtB6c_4list17try_new_from_iterBQ_E0E0INtNtNtBc_3ops12control_flow11ControlFlowB6T_iEECsaYfPqFfImBE_4dprs, symObjAddr: 0x4D4, symBinAddr: 0x1C3A0, symSize: 0x3C }
  - { offsetInCU: 0x11F7, offset: 0x69014, size: 0x8, addend: 0x0, symName: __RINvXs2_NtNtNtCs2tD97QJu26F_4core4iter6traits8iteratorQQINtNtNtBa_8adapters3map3MapINtNtNtCs9xDkXAC1PNF_5alloc3vec9into_iter8IntoIterINtB1o_3VecbEENCINvYB27_NtNtCsF7gmULBm3O_4pyo310conversion12IntoPyObject28owned_sequence_into_pyobjectIB28_B27_EE0ENtB6_15IteratorRefSpec13spec_try_foldiNCINvNvXs_NtBX_4takeINtB4K_4TakepENtB6_8Iterator8try_fold5checkINtNtBc_6result6ResultINtNtB2z_8instance5BoundNtNtNtB2z_5types3any5PyAnyENtNtB2z_3err5PyErrEiIB5C_iB6M_ENCINvNtB6p_4list17try_new_from_iterBR_E0E0INtNtNtBc_3ops12control_flow11ControlFlowB76_iEECsaYfPqFfImBE_4dprs, symObjAddr: 0x510, symBinAddr: 0x1C3DC, symSize: 0x3C }
  - { offsetInCU: 0x1267, offset: 0x69084, size: 0x8, addend: 0x0, symName: __RINvXs2_NtNtNtCs2tD97QJu26F_4core4iter6traits8iteratorQQINtNtNtBa_8adapters3map3MapINtNtNtCs9xDkXAC1PNF_5alloc3vec9into_iter8IntoIterbENCINvYbNtNtCsF7gmULBm3O_4pyo310conversion12IntoPyObject28owned_sequence_into_pyobjectINtB1o_3VecbEE0ENtB6_15IteratorRefSpec13spec_try_foldiNCINvNvXs_NtBX_4takeINtB4y_4TakepENtB6_8Iterator8try_fold5checkINtNtBc_6result6ResultINtNtB2k_8instance5BoundNtNtNtB2k_5types3any5PyAnyENtNtB2k_3err5PyErrEiIB5q_iB6A_ENCINvNtB6d_4list17try_new_from_iterBR_E0E0INtNtNtBc_3ops12control_flow11ControlFlowB6U_iEECsaYfPqFfImBE_4dprs, symObjAddr: 0x54C, symBinAddr: 0x1C418, symSize: 0x3C }
  - { offsetInCU: 0x12E3, offset: 0x69100, size: 0x8, addend: 0x0, symName: __RNvXNtNtNtCs2tD97QJu26F_4core4iter6traits10exact_sizeQINtNtNtB6_8adapters3map3MapINtNtNtCs9xDkXAC1PNF_5alloc3vec9into_iter8IntoIterINtB1m_3VecbEENCINvYB25_NtNtCsF7gmULBm3O_4pyo310conversion12IntoPyObject28owned_sequence_into_pyobjectIB26_B25_EE0ENtB2_17ExactSizeIterator3lenCsaYfPqFfImBE_4dprs, symObjAddr: 0xFC4, symBinAddr: 0x1CE90, symSize: 0x28 }
  - { offsetInCU: 0x1318, offset: 0x69135, size: 0x8, addend: 0x0, symName: __RNvXNtNtNtCs2tD97QJu26F_4core4iter6traits10exact_sizeQINtNtNtB6_8adapters3map3MapINtNtNtCs9xDkXAC1PNF_5alloc3vec9into_iter8IntoIterbENCINvYbNtNtCsF7gmULBm3O_4pyo310conversion12IntoPyObject28owned_sequence_into_pyobjectINtB1m_3VecbEE0ENtB2_17ExactSizeIterator3lenCsaYfPqFfImBE_4dprs, symObjAddr: 0xFEC, symBinAddr: 0x1CEB8, symSize: 0x28 }
  - { offsetInCU: 0x1359, offset: 0x69176, size: 0x8, addend: 0x0, symName: __RNvXNtNtNtCs2tD97QJu26F_4core4iter6traits7collectINtNtNtB6_8adapters3map3MapINtNtNtB8_3ops5range5RangejENCINvMNtNtCsaYfPqFfImBE_4dprs2dp8model_2dINtB1K_14LatticeModel2DNtNtB1M_11dp_model_2d7DPModelE21next_iteration_serialNtNtNtCseSFJDzX8FyV_4rand4rngs6thread9ThreadRngE0ENtB2_12IntoIterator9into_iterB1O_, symObjAddr: 0x1014, symBinAddr: 0x1CEE0, symSize: 0x30 }
  - { offsetInCU: 0x1391, offset: 0x691AE, size: 0x8, addend: 0x0, symName: __RNvXNtNtNtCs2tD97QJu26F_4core4iter6traits7collectINtNtNtB6_8adapters3map3MapINtNtNtB8_3ops5range5RangejENCINvMNtNtCsaYfPqFfImBE_4dprs2dp8model_2dINtB1K_14LatticeModel2DNtNtB1M_11dp_model_2d7DPModelE9randomizeNtNtNtCseSFJDzX8FyV_4rand4rngs6thread9ThreadRngE0ENtB2_12IntoIterator9into_iterB1O_, symObjAddr: 0x1044, symBinAddr: 0x1CF10, symSize: 0x14 }
  - { offsetInCU: 0x13C8, offset: 0x691E5, size: 0x8, addend: 0x0, symName: __RNvXNtNtNtCs2tD97QJu26F_4core4iter6traits7collectINtNtNtB6_8adapters3map3MapINtNtNtB8_3ops5range5RangejENCINvMNtNtCsaYfPqFfImBE_4dprs4life8model_2dINtB1K_14LatticeModel2DNtNtB1M_10life_model9LifeModelE9randomizeNtNtNtCseSFJDzX8FyV_4rand4rngs6thread9ThreadRngE0ENtB2_12IntoIterator9into_iterB1O_, symObjAddr: 0x1058, symBinAddr: 0x1CF24, symSize: 0x14 }
  - { offsetInCU: 0x13FF, offset: 0x6921C, size: 0x8, addend: 0x0, symName: __RNvXNtNtNtCs2tD97QJu26F_4core4iter6traits7collectINtNtNtB6_8adapters3map3MapINtNtNtB8_3ops5range5RangejENCNvMNtNtCsaYfPqFfImBE_4dprs4life8model_2dINtB1J_14LatticeModel2DNtNtB1L_10life_model9LifeModelE21next_iteration_serial0ENtB2_12IntoIterator9into_iterB1N_, symObjAddr: 0x106C, symBinAddr: 0x1CF38, symSize: 0x18 }
  - { offsetInCU: 0x1436, offset: 0x69253, size: 0x8, addend: 0x0, symName: __RNvXNtNtNtCs2tD97QJu26F_4core4iter6traits7collectINtNtNtB6_8adapters3map3MapINtNtNtB8_3ops5range5RangejERNCNvMNtNtCsaYfPqFfImBE_4dprs4life8model_2dINtB1K_14LatticeModel2DNtNtB1M_10life_model9LifeModelE23next_iteration_parallel0ENtB2_12IntoIterator9into_iterB1O_, symObjAddr: 0x1084, symBinAddr: 0x1CF50, symSize: 0x18 }
  - { offsetInCU: 0x146D, offset: 0x6928A, size: 0x8, addend: 0x0, symName: __RNvXNtNtNtCs2tD97QJu26F_4core4iter6traits7collectINtNtNtB6_8adapters3map3MapINtNtNtCs9xDkXAC1PNF_5alloc3vec9into_iter8IntoIterINtB1h_3VecbEENCNvNtCsaYfPqFfImBE_4dprs2dp14run_simulations_0ENtB2_12IntoIterator9into_iterB2k_, symObjAddr: 0x109C, symBinAddr: 0x1CF68, symSize: 0x30 }
  - { offsetInCU: 0x14A5, offset: 0x692C2, size: 0x8, addend: 0x0, symName: __RNvXNtNtNtCs2tD97QJu26F_4core4iter6traits7collectINtNtNtB6_8adapters3map3MapINtNtNtCs9xDkXAC1PNF_5alloc3vec9into_iter8IntoIterINtB1h_3VecbEENCNvNtCsaYfPqFfImBE_4dprs4life14run_simulations_0ENtB2_12IntoIterator9into_iterB2k_, symObjAddr: 0x10CC, symBinAddr: 0x1CF98, symSize: 0x30 }
  - { offsetInCU: 0x1607, offset: 0x69424, size: 0x8, addend: 0x0, symName: __RNCINvNtNtNtCs2tD97QJu26F_4core4iter8adapters3map8map_foldRINtNtCs9xDkXAC1PNF_5alloc3vec3VecbEjjNvMs_BY_BV_3lenNCINvXsK_NtNtB8_6traits5accumjNtB1U_3Sum3sumINtB4_3MapINtNtNtB10_11collections11linked_list4IterBV_EB1w_EE0E0CsaYfPqFfImBE_4dprs, symObjAddr: 0xB0C, symBinAddr: 0x1C9D8, symSize: 0x98 }
  - { offsetInCU: 0x168E, offset: 0x694AB, size: 0x8, addend: 0x0, symName: __RNCINvNtNtNtCs2tD97QJu26F_4core4iter8adapters3map8map_foldRbjjNCNvXNtNtCsaYfPqFfImBE_4dprs2dp11dp_model_2dNtB13_7DPModelNtNtB15_8model_2d7Model2D11cell_update0NCINvXsK_NtNtB8_6traits5accumjNtB2G_3Sum3sumINtB4_3MapINtNtNtBa_5slice4iter4IterbEBY_EE0E0B17_, symObjAddr: 0xBA4, symBinAddr: 0x1CA70, symSize: 0x98 }
  - { offsetInCU: 0x1715, offset: 0x69532, size: 0x8, addend: 0x0, symName: __RNCINvNtNtNtCs2tD97QJu26F_4core4iter8adapters3map8map_foldRbjjNCNvXNtNtCsaYfPqFfImBE_4dprs4life10life_modelNtB13_9LifeModelNtNtB15_8model_2d7Model2D9next_cell0NCINvXsK_NtNtB8_6traits5accumjNtB2G_3Sum3sumINtB4_3MapINtNtNtBa_5slice4iter4IterbEBY_EE0E0B17_, symObjAddr: 0xC3C, symBinAddr: 0x1CB08, symSize: 0x98 }
  - { offsetInCU: 0x179C, offset: 0x695B9, size: 0x8, addend: 0x0, symName: __RNCINvNtNtNtCs2tD97QJu26F_4core4iter8adapters3map8map_foldRbjjNCNvXNtNtCsaYfPqFfImBE_4dprs4life10life_modelNtB13_9LifeModelNtNtB15_8model_2d7Model2D9next_cells_0NCINvXsK_NtNtB8_6traits5accumjNtB2I_3Sum3sumINtB4_3MapINtNtNtBa_5slice4iter4IterbEBY_EE0E0B17_, symObjAddr: 0xCD4, symBinAddr: 0x1CBA0, symSize: 0x98 }
  - { offsetInCU: 0x1823, offset: 0x69640, size: 0x8, addend: 0x0, symName: __RNCINvNtNtNtCs2tD97QJu26F_4core4iter8adapters3map8map_foldjbuNCINvMNtNtCsaYfPqFfImBE_4dprs2dp8model_2dINtB13_14LatticeModel2DNtNtB15_11dp_model_2d7DPModelE21next_iteration_serialNtNtNtCseSFJDzX8FyV_4rand4rngs6thread9ThreadRngE0NCINvNvNtNtNtB8_6traits8iterator8Iterator8for_each4callbNCINvMsj_NtCs9xDkXAC1PNF_5alloc3vecINtB4G_3VecbE14extend_trustedINtB4_3MapINtNtNtBa_3ops5range5RangejEBX_EE0E0E0B17_, symObjAddr: 0xD6C, symBinAddr: 0x1CC38, symSize: 0x78 }
  - { offsetInCU: 0x18A8, offset: 0x696C5, size: 0x8, addend: 0x0, symName: __RNCINvNtNtNtCs2tD97QJu26F_4core4iter8adapters3map8map_foldjbuNCINvMNtNtCsaYfPqFfImBE_4dprs2dp8model_2dINtB13_14LatticeModel2DNtNtB15_11dp_model_2d7DPModelE9randomizeNtNtNtCseSFJDzX8FyV_4rand4rngs6thread9ThreadRngE0NCINvNvNtNtNtB8_6traits8iterator8Iterator8for_each4callbNCINvMsj_NtCs9xDkXAC1PNF_5alloc3vecINtB4t_3VecbE14extend_trustedINtB4_3MapINtNtNtBa_3ops5range5RangejEBX_EE0E0E0B17_, symObjAddr: 0xDE4, symBinAddr: 0x1CCB0, symSize: 0x78 }
  - { offsetInCU: 0x192D, offset: 0x6974A, size: 0x8, addend: 0x0, symName: __RNCINvNtNtNtCs2tD97QJu26F_4core4iter8adapters3map8map_foldjbuNCINvMNtNtCsaYfPqFfImBE_4dprs4life8model_2dINtB13_14LatticeModel2DNtNtB15_10life_model9LifeModelE9randomizeNtNtNtCseSFJDzX8FyV_4rand4rngs6thread9ThreadRngE0NCINvNvNtNtNtB8_6traits8iterator8Iterator8for_each4callbNCINvMsj_NtCs9xDkXAC1PNF_5alloc3vecINtB4w_3VecbE14extend_trustedINtB4_3MapINtNtNtBa_3ops5range5RangejEBX_EE0E0E0B17_, symObjAddr: 0xE5C, symBinAddr: 0x1CD28, symSize: 0x78 }
  - { offsetInCU: 0x19B2, offset: 0x697CF, size: 0x8, addend: 0x0, symName: __RNCINvNtNtNtCs2tD97QJu26F_4core4iter8adapters3map8map_foldjbuNCNvMNtNtCsaYfPqFfImBE_4dprs4life8model_2dINtB12_14LatticeModel2DNtNtB14_10life_model9LifeModelE21next_iteration_serial0NCINvNvNtNtNtB8_6traits8iterator8Iterator8for_each4callbNCINvMsj_NtCs9xDkXAC1PNF_5alloc3vecINtB3W_3VecbE14extend_trustedINtB4_3MapINtNtNtBa_3ops5range5RangejEBX_EE0E0E0B16_, symObjAddr: 0xED4, symBinAddr: 0x1CDA0, symSize: 0x78 }
  - { offsetInCU: 0x1A37, offset: 0x69854, size: 0x8, addend: 0x0, symName: __RNCINvNtNtNtCs2tD97QJu26F_4core4iter8adapters3map8map_foldjbuRNCNvMNtNtCsaYfPqFfImBE_4dprs4life8model_2dINtB13_14LatticeModel2DNtNtB15_10life_model9LifeModelE23next_iteration_parallel0NCINvNvNtNtNtB8_6traits8iterator8Iterator8for_each4callbNCINvMsj_NtCs9xDkXAC1PNF_5alloc3vecINtB3Z_3VecbE14extend_trustedINtB4_3MapINtNtNtBa_3ops5range5RangejEBX_EE0E0E0B17_, symObjAddr: 0xF4C, symBinAddr: 0x1CE18, symSize: 0x78 }
  - { offsetInCU: 0x1AC2, offset: 0x698DF, size: 0x8, addend: 0x0, symName: __RINvXs0_NtNtNtCs2tD97QJu26F_4core4iter8adapters3mapINtB6_3MapINtNtNtBc_3ops5range5RangejENCINvMNtNtCsaYfPqFfImBE_4dprs2dp8model_2dINtB1v_14LatticeModel2DNtNtB1x_11dp_model_2d7DPModelE21next_iteration_serialNtNtNtCseSFJDzX8FyV_4rand4rngs6thread9ThreadRngE0ENtNtNtBa_6traits8iterator8Iterator4folduNCINvNvB46_8for_each4callbNCINvMsj_NtCs9xDkXAC1PNF_5alloc3vecINtB5j_3VecbE14extend_trustedBN_E0E0EB1z_, symObjAddr: 0xE0, symBinAddr: 0x1BFAC, symSize: 0x60 }
  - { offsetInCU: 0x1B5B, offset: 0x69978, size: 0x8, addend: 0x0, symName: __RINvXs0_NtNtNtCs2tD97QJu26F_4core4iter8adapters3mapINtB6_3MapINtNtNtBc_3ops5range5RangejENCINvMNtNtCsaYfPqFfImBE_4dprs2dp8model_2dINtB1v_14LatticeModel2DNtNtB1x_11dp_model_2d7DPModelE9randomizeNtNtNtCseSFJDzX8FyV_4rand4rngs6thread9ThreadRngE0ENtNtNtBa_6traits8iterator8Iterator4folduNCINvNvB3T_8for_each4callbNCINvMsj_NtCs9xDkXAC1PNF_5alloc3vecINtB56_3VecbE14extend_trustedBN_E0E0EB1z_, symObjAddr: 0x140, symBinAddr: 0x1C00C, symSize: 0x58 }
  - { offsetInCU: 0x1BF4, offset: 0x69A11, size: 0x8, addend: 0x0, symName: __RINvXs0_NtNtNtCs2tD97QJu26F_4core4iter8adapters3mapINtB6_3MapINtNtNtBc_3ops5range5RangejENCINvMNtNtCsaYfPqFfImBE_4dprs4life8model_2dINtB1v_14LatticeModel2DNtNtB1x_10life_model9LifeModelE9randomizeNtNtNtCseSFJDzX8FyV_4rand4rngs6thread9ThreadRngE0ENtNtNtBa_6traits8iterator8Iterator4folduNCINvNvB3W_8for_each4callbNCINvMsj_NtCs9xDkXAC1PNF_5alloc3vecINtB59_3VecbE14extend_trustedBN_E0E0EB1z_, symObjAddr: 0x198, symBinAddr: 0x1C064, symSize: 0x58 }
  - { offsetInCU: 0x1C8D, offset: 0x69AAA, size: 0x8, addend: 0x0, symName: __RINvXs0_NtNtNtCs2tD97QJu26F_4core4iter8adapters3mapINtB6_3MapINtNtNtBc_3ops5range5RangejENCNvMNtNtCsaYfPqFfImBE_4dprs4life8model_2dINtB1u_14LatticeModel2DNtNtB1w_10life_model9LifeModelE21next_iteration_serial0ENtNtNtBa_6traits8iterator8Iterator4folduNCINvNvB3m_8for_each4callbNCINvMsj_NtCs9xDkXAC1PNF_5alloc3vecINtB4z_3VecbE14extend_trustedBN_E0E0EB1y_, symObjAddr: 0x1F0, symBinAddr: 0x1C0BC, symSize: 0x4C }
  - { offsetInCU: 0x1D26, offset: 0x69B43, size: 0x8, addend: 0x0, symName: __RINvXs0_NtNtNtCs2tD97QJu26F_4core4iter8adapters3mapINtB6_3MapINtNtNtBc_3ops5range5RangejERNCNvMNtNtCsaYfPqFfImBE_4dprs4life8model_2dINtB1v_14LatticeModel2DNtNtB1x_10life_model9LifeModelE23next_iteration_parallel0ENtNtNtBa_6traits8iterator8Iterator4folduNCINvNvB3p_8for_each4callbNCINvMsj_NtCs9xDkXAC1PNF_5alloc3vecINtB4C_3VecbE14extend_trustedBN_E0E0EB1z_, symObjAddr: 0x23C, symBinAddr: 0x1C108, symSize: 0x4C }
  - { offsetInCU: 0x1DBF, offset: 0x69BDC, size: 0x8, addend: 0x0, symName: __RINvXs0_NtNtNtCs2tD97QJu26F_4core4iter8adapters3mapINtB6_3MapINtNtNtBc_5slice4iter4IterbENCNvXNtNtCsaYfPqFfImBE_4dprs2dp11dp_model_2dNtB1u_7DPModelNtNtB1w_8model_2d7Model2D11cell_update0ENtNtNtBa_6traits8iterator8Iterator4foldjNCINvXsK_NtB33_5accumjNtB3M_3Sum3sumBN_E0EB1y_, symObjAddr: 0x288, symBinAddr: 0x1C154, symSize: 0x30 }
  - { offsetInCU: 0x1E34, offset: 0x69C51, size: 0x8, addend: 0x0, symName: __RINvXs0_NtNtNtCs2tD97QJu26F_4core4iter8adapters3mapINtB6_3MapINtNtNtBc_5slice4iter4IterbENCNvXNtNtCsaYfPqFfImBE_4dprs4life10life_modelNtB1u_9LifeModelNtNtB1w_8model_2d7Model2D9next_cell0ENtNtNtBa_6traits8iterator8Iterator4foldjNCINvXsK_NtB33_5accumjNtB3M_3Sum3sumBN_E0EB1y_, symObjAddr: 0x2B8, symBinAddr: 0x1C184, symSize: 0x30 }
  - { offsetInCU: 0x1EA9, offset: 0x69CC6, size: 0x8, addend: 0x0, symName: __RINvXs0_NtNtNtCs2tD97QJu26F_4core4iter8adapters3mapINtB6_3MapINtNtNtBc_5slice4iter4IterbENCNvXNtNtCsaYfPqFfImBE_4dprs4life10life_modelNtB1u_9LifeModelNtNtB1w_8model_2d7Model2D9next_cells_0ENtNtNtBa_6traits8iterator8Iterator4foldjNCINvXsK_NtB35_5accumjNtB3O_3Sum3sumBN_E0EB1y_, symObjAddr: 0x2E8, symBinAddr: 0x1C1B4, symSize: 0x30 }
  - { offsetInCU: 0x1F1E, offset: 0x69D3B, size: 0x8, addend: 0x0, symName: __RINvXs0_NtNtNtCs2tD97QJu26F_4core4iter8adapters3mapINtB6_3MapINtNtNtCs9xDkXAC1PNF_5alloc11collections11linked_list4IterINtNtB14_3vec3VecbEENvMs_B1W_B1T_3lenENtNtNtBa_6traits8iterator8Iterator4foldjNCINvXsK_NtB2z_5accumjNtB3i_3Sum3sumBN_E0ECsaYfPqFfImBE_4dprs, symObjAddr: 0x318, symBinAddr: 0x1C1E4, symSize: 0x38 }
  - { offsetInCU: 0x1F94, offset: 0x69DB1, size: 0x8, addend: 0x0, symName: __RINvXs0_NtNtNtCs2tD97QJu26F_4core4iter8adapters3mapINtB6_3MapINtNtNtCs9xDkXAC1PNF_5alloc3vec9into_iter8IntoIterINtB12_3VecbEENCINvYB1L_NtNtCsF7gmULBm3O_4pyo310conversion12IntoPyObject28owned_sequence_into_pyobjectIB1M_B1L_EE0ENtNtNtBa_6traits8iterator8Iterator8try_foldiNCINvNvXs_NtB8_4takeINtB4u_4TakepEB3C_8try_fold5checkINtNtBc_6result6ResultINtNtB2d_8instance5BoundNtNtNtB2d_5types3any5PyAnyENtNtB2d_3err5PyErrEiIB5c_iB6m_ENCINvNtB5Z_4list17try_new_from_iterQBN_E0E0INtNtNtBc_3ops12control_flow11ControlFlowB6G_iEECsaYfPqFfImBE_4dprs, symObjAddr: 0x350, symBinAddr: 0x1C21C, symSize: 0x58 }
  - { offsetInCU: 0x2037, offset: 0x69E54, size: 0x8, addend: 0x0, symName: __RINvXs0_NtNtNtCs2tD97QJu26F_4core4iter8adapters3mapINtB6_3MapINtNtNtCs9xDkXAC1PNF_5alloc3vec9into_iter8IntoIterINtB12_3VecbEENCNvNtCsaYfPqFfImBE_4dprs2dp14run_simulations_0ENtNtNtBa_6traits8iterator8Iterator8try_foldINtNtB12_13in_place_drop11InPlaceDropB1L_ENCINvNtB12_16in_place_collect24write_in_place_with_dropB1L_E0INtNtBc_6result6ResultB3s_zEEB25_, symObjAddr: 0x3A8, symBinAddr: 0x1C274, symSize: 0x4C }
  - { offsetInCU: 0x20B5, offset: 0x69ED2, size: 0x8, addend: 0x0, symName: __RINvXs0_NtNtNtCs2tD97QJu26F_4core4iter8adapters3mapINtB6_3MapINtNtNtCs9xDkXAC1PNF_5alloc3vec9into_iter8IntoIterINtB12_3VecbEENCNvNtCsaYfPqFfImBE_4dprs4life14run_simulations_0ENtNtNtBa_6traits8iterator8Iterator8try_foldINtNtB12_13in_place_drop11InPlaceDropB1L_ENCINvNtB12_16in_place_collect24write_in_place_with_dropB1L_E0INtNtBc_6result6ResultB3u_zEEB25_, symObjAddr: 0x3F4, symBinAddr: 0x1C2C0, symSize: 0x4C }
  - { offsetInCU: 0x2133, offset: 0x69F50, size: 0x8, addend: 0x0, symName: __RINvXs0_NtNtNtCs2tD97QJu26F_4core4iter8adapters3mapINtB6_3MapINtNtNtCs9xDkXAC1PNF_5alloc3vec9into_iter8IntoIterbENCINvYbNtNtCsF7gmULBm3O_4pyo310conversion12IntoPyObject28owned_sequence_into_pyobjectINtB12_3VecbEE0ENtNtNtBa_6traits8iterator8Iterator8try_foldiNCINvNvXs_NtB8_4takeINtB4i_4TakepEB3q_8try_fold5checkINtNtBc_6result6ResultINtNtB1Y_8instance5BoundNtNtNtB1Y_5types3any5PyAnyENtNtB1Y_3err5PyErrEiIB50_iB6a_ENCINvNtB5N_4list17try_new_from_iterQBN_E0E0INtNtNtBc_3ops12control_flow11ControlFlowB6u_iEECsaYfPqFfImBE_4dprs, symObjAddr: 0x440, symBinAddr: 0x1C30C, symSize: 0x58 }
  - { offsetInCU: 0x21D6, offset: 0x69FF3, size: 0x8, addend: 0x0, symName: __RNvXs0_NtNtNtCs2tD97QJu26F_4core4iter8adapters3mapINtB5_3MapINtNtNtBb_3ops5range5RangejENCINvMNtNtCsaYfPqFfImBE_4dprs2dp8model_2dINtB1u_14LatticeModel2DNtNtB1w_11dp_model_2d7DPModelE21next_iteration_serialNtNtNtCseSFJDzX8FyV_4rand4rngs6thread9ThreadRngE0ENtNtNtB9_6traits8iterator8Iterator9size_hintB1y_, symObjAddr: 0x12BC, symBinAddr: 0x1D188, symSize: 0x24 }
  - { offsetInCU: 0x221D, offset: 0x6A03A, size: 0x8, addend: 0x0, symName: __RNvXs0_NtNtNtCs2tD97QJu26F_4core4iter8adapters3mapINtB5_3MapINtNtNtBb_3ops5range5RangejENCINvMNtNtCsaYfPqFfImBE_4dprs2dp8model_2dINtB1u_14LatticeModel2DNtNtB1w_11dp_model_2d7DPModelE9randomizeNtNtNtCseSFJDzX8FyV_4rand4rngs6thread9ThreadRngE0ENtNtNtB9_6traits8iterator8Iterator9size_hintB1y_, symObjAddr: 0x12E0, symBinAddr: 0x1D1AC, symSize: 0x24 }
  - { offsetInCU: 0x2264, offset: 0x6A081, size: 0x8, addend: 0x0, symName: __RNvXs0_NtNtNtCs2tD97QJu26F_4core4iter8adapters3mapINtB5_3MapINtNtNtBb_3ops5range5RangejENCINvMNtNtCsaYfPqFfImBE_4dprs4life8model_2dINtB1u_14LatticeModel2DNtNtB1w_10life_model9LifeModelE9randomizeNtNtNtCseSFJDzX8FyV_4rand4rngs6thread9ThreadRngE0ENtNtNtB9_6traits8iterator8Iterator9size_hintB1y_, symObjAddr: 0x1304, symBinAddr: 0x1D1D0, symSize: 0x24 }
  - { offsetInCU: 0x22AB, offset: 0x6A0C8, size: 0x8, addend: 0x0, symName: __RNvXs0_NtNtNtCs2tD97QJu26F_4core4iter8adapters3mapINtB5_3MapINtNtNtBb_3ops5range5RangejENCNvMNtNtCsaYfPqFfImBE_4dprs4life8model_2dINtB1t_14LatticeModel2DNtNtB1v_10life_model9LifeModelE21next_iteration_serial0ENtNtNtB9_6traits8iterator8Iterator9size_hintB1x_, symObjAddr: 0x1328, symBinAddr: 0x1D1F4, symSize: 0x24 }
  - { offsetInCU: 0x22F2, offset: 0x6A10F, size: 0x8, addend: 0x0, symName: __RNvXs0_NtNtNtCs2tD97QJu26F_4core4iter8adapters3mapINtB5_3MapINtNtNtBb_3ops5range5RangejERNCNvMNtNtCsaYfPqFfImBE_4dprs4life8model_2dINtB1u_14LatticeModel2DNtNtB1w_10life_model9LifeModelE23next_iteration_parallel0ENtNtNtB9_6traits8iterator8Iterator4nextB1y_, symObjAddr: 0x134C, symBinAddr: 0x1D218, symSize: 0x74 }
  - { offsetInCU: 0x239E, offset: 0x6A1BB, size: 0x8, addend: 0x0, symName: __RNvXs0_NtNtNtCs2tD97QJu26F_4core4iter8adapters3mapINtB5_3MapINtNtNtBb_3ops5range5RangejERNCNvMNtNtCsaYfPqFfImBE_4dprs4life8model_2dINtB1u_14LatticeModel2DNtNtB1w_10life_model9LifeModelE23next_iteration_parallel0ENtNtNtB9_6traits8iterator8Iterator9size_hintB1y_, symObjAddr: 0x13C0, symBinAddr: 0x1D28C, symSize: 0x24 }
  - { offsetInCU: 0x23E5, offset: 0x6A202, size: 0x8, addend: 0x0, symName: __RNvXs0_NtNtNtCs2tD97QJu26F_4core4iter8adapters3mapINtB5_3MapINtNtNtCs9xDkXAC1PNF_5alloc3vec9into_iter8IntoIterINtB11_3VecbEENCINvYB1K_NtNtCsF7gmULBm3O_4pyo310conversion12IntoPyObject28owned_sequence_into_pyobjectIB1L_B1K_EE0ENtNtNtB9_6traits8iterator8Iterator4nextCsaYfPqFfImBE_4dprs, symObjAddr: 0x13E4, symBinAddr: 0x1D2B0, symSize: 0xB0 }
  - { offsetInCU: 0x2481, offset: 0x6A29E, size: 0x8, addend: 0x0, symName: __RNvXs0_NtNtNtCs2tD97QJu26F_4core4iter8adapters3mapINtB5_3MapINtNtNtCs9xDkXAC1PNF_5alloc3vec9into_iter8IntoIterbENCINvYbNtNtCsF7gmULBm3O_4pyo310conversion12IntoPyObject28owned_sequence_into_pyobjectINtB11_3VecbEE0ENtNtNtB9_6traits8iterator8Iterator4nextCsaYfPqFfImBE_4dprs, symObjAddr: 0x1494, symBinAddr: 0x1D360, symSize: 0xA8 }
  - { offsetInCU: 0x270C, offset: 0x6A529, size: 0x8, addend: 0x0, symName: __RNCINvNtNtNtCs2tD97QJu26F_4core4iter8adapters3map12map_try_foldINtNtCs9xDkXAC1PNF_5alloc3vec3VecbEBZ_INtNtB12_13in_place_drop11InPlaceDropBZ_EINtNtBa_6result6ResultB1B_zENCNvNtCsaYfPqFfImBE_4dprs2dp14run_simulations_0NCINvNtB12_16in_place_collect24write_in_place_with_dropBZ_E0E0B2O_, symObjAddr: 0x79C, symBinAddr: 0x1C668, symSize: 0xF0 }
  - { offsetInCU: 0x279F, offset: 0x6A5BC, size: 0x8, addend: 0x0, symName: __RNCINvNtNtNtCs2tD97QJu26F_4core4iter8adapters3map12map_try_foldINtNtCs9xDkXAC1PNF_5alloc3vec3VecbEBZ_INtNtB12_13in_place_drop11InPlaceDropBZ_EINtNtBa_6result6ResultB1B_zENCNvNtCsaYfPqFfImBE_4dprs4life14run_simulations_0NCINvNtB12_16in_place_collect24write_in_place_with_dropBZ_E0E0B2O_, symObjAddr: 0x88C, symBinAddr: 0x1C758, symSize: 0xF0 }
  - { offsetInCU: 0x2832, offset: 0x6A64F, size: 0x8, addend: 0x0, symName: __RNCINvNtNtNtCs2tD97QJu26F_4core4iter8adapters3map12map_try_foldINtNtCs9xDkXAC1PNF_5alloc3vec3VecbEINtNtBa_6result6ResultINtNtCsF7gmULBm3O_4pyo38instance5BoundNtNtNtB1Z_5types3any5PyAnyENtNtB1Z_3err5PyErrEiINtNtNtBa_3ops12control_flow11ControlFlowIB1z_iB2X_EiENCINvYBZ_NtNtB1Z_10conversion12IntoPyObject28owned_sequence_into_pyobjectIB10_BZ_EE0NCINvNvXs_NtB6_4takeINtB5F_4TakepENtNtNtB8_6traits8iterator8Iterator8try_fold5checkB1y_iB3W_NCINvNtB2A_4list17try_new_from_iterQINtB4_3MapINtNtB12_9into_iter8IntoIterBZ_EB49_EE0E0E0CsaYfPqFfImBE_4dprs, symObjAddr: 0x97C, symBinAddr: 0x1C848, symSize: 0xD0 }
  - { offsetInCU: 0x28C5, offset: 0x6A6E2, size: 0x8, addend: 0x0, symName: __RNCINvNtNtNtCs2tD97QJu26F_4core4iter8adapters3map12map_try_foldbINtNtBa_6result6ResultINtNtCsF7gmULBm3O_4pyo38instance5BoundNtNtNtB1r_5types3any5PyAnyENtNtB1r_3err5PyErrEiINtNtNtBa_3ops12control_flow11ControlFlowIB11_iB2p_EiENCINvYbNtNtB1r_10conversion12IntoPyObject28owned_sequence_into_pyobjectINtNtCs9xDkXAC1PNF_5alloc3vec3VecbEE0NCINvNvXs_NtB6_4takeINtB5v_4TakepENtNtNtB8_6traits8iterator8Iterator8try_fold5checkB10_iB3o_NCINvNtB22_4list17try_new_from_iterQINtB4_3MapINtNtB4N_9into_iter8IntoIterbEB3B_EE0E0E0CsaYfPqFfImBE_4dprs, symObjAddr: 0xA4C, symBinAddr: 0x1C918, symSize: 0xC0 }
  - { offsetInCU: 0x29BA, offset: 0x6A7D7, size: 0x8, addend: 0x0, symName: __RNvXs2_NtNtNtCs2tD97QJu26F_4core4iter8adapters3mapINtB5_3MapINtNtNtCs9xDkXAC1PNF_5alloc3vec9into_iter8IntoIterINtB11_3VecbEENCINvYB1K_NtNtCsF7gmULBm3O_4pyo310conversion12IntoPyObject28owned_sequence_into_pyobjectIB1L_B1K_EE0ENtNtNtB9_6traits10exact_size17ExactSizeIterator3lenCsaYfPqFfImBE_4dprs, symObjAddr: 0x153C, symBinAddr: 0x1D408, symSize: 0x24 }
  - { offsetInCU: 0x2A01, offset: 0x6A81E, size: 0x8, addend: 0x0, symName: __RNvXs2_NtNtNtCs2tD97QJu26F_4core4iter8adapters3mapINtB5_3MapINtNtNtCs9xDkXAC1PNF_5alloc3vec9into_iter8IntoIterbENCINvYbNtNtCsF7gmULBm3O_4pyo310conversion12IntoPyObject28owned_sequence_into_pyobjectINtB11_3VecbEE0ENtNtNtB9_6traits10exact_size17ExactSizeIterator3lenCsaYfPqFfImBE_4dprs, symObjAddr: 0x1560, symBinAddr: 0x1D42C, symSize: 0x24 }
  - { offsetInCU: 0x2A4E, offset: 0x6A86B, size: 0x8, addend: 0x0, symName: __RNvXs9_NtNtNtCs2tD97QJu26F_4core4iter8adapters3mapINtB5_3MapINtNtNtCs9xDkXAC1PNF_5alloc3vec9into_iter8IntoIterINtB11_3VecbEENCNvNtCsaYfPqFfImBE_4dprs2dp14run_simulations_0ENtB7_10SourceIter8as_innerB24_, symObjAddr: 0x1584, symBinAddr: 0x1D450, symSize: 0x24 }
  - { offsetInCU: 0x2A8C, offset: 0x6A8A9, size: 0x8, addend: 0x0, symName: __RNvXs9_NtNtNtCs2tD97QJu26F_4core4iter8adapters3mapINtB5_3MapINtNtNtCs9xDkXAC1PNF_5alloc3vec9into_iter8IntoIterINtB11_3VecbEENCNvNtCsaYfPqFfImBE_4dprs4life14run_simulations_0ENtB7_10SourceIter8as_innerB24_, symObjAddr: 0x15A8, symBinAddr: 0x1D474, symSize: 0x24 }
  - { offsetInCU: 0x46CA, offset: 0x6C4E7, size: 0x8, addend: 0x0, symName: __RNvXs0_NtNtCs9xDkXAC1PNF_5alloc3vec16in_place_collectINtNtNtNtCs2tD97QJu26F_4core4iter8adapters3map3MapINtNtB7_9into_iter8IntoIterINtB7_3VecbEENCNvNtCsaYfPqFfImBE_4dprs2dp14run_simulations_0EINtB5_18SpecInPlaceCollectB24_BP_E16collect_in_placeB2n_, symObjAddr: 0x10FC, symBinAddr: 0x1CFC8, symSize: 0xB8 }
  - { offsetInCU: 0x47C1, offset: 0x6C5DE, size: 0x8, addend: 0x0, symName: __RNvXs0_NtNtCs9xDkXAC1PNF_5alloc3vec16in_place_collectINtNtNtNtCs2tD97QJu26F_4core4iter8adapters3map3MapINtNtB7_9into_iter8IntoIterINtB7_3VecbEENCNvNtCsaYfPqFfImBE_4dprs4life14run_simulations_0EINtB5_18SpecInPlaceCollectB24_BP_E16collect_in_placeB2n_, symObjAddr: 0x11B4, symBinAddr: 0x1D080, symSize: 0xB8 }
  - { offsetInCU: 0x1E, offset: 0x6D7EE, size: 0x8, addend: 0x0, symName: __RINvNtNtCsF7gmULBm3O_4pyo35impl_10trampoline10trampolineNCNvB2_11module_exec0lECsaYfPqFfImBE_4dprs, symObjAddr: 0x0, symBinAddr: 0x1D4C8, symSize: 0x158 }
  - { offsetInCU: 0x1786, offset: 0x6EF56, size: 0x8, addend: 0x0, symName: __RINvNtNtCsF7gmULBm3O_4pyo35impl_10trampoline10trampolineNCNvB2_11module_exec0lECsaYfPqFfImBE_4dprs, symObjAddr: 0x0, symBinAddr: 0x1D4C8, symSize: 0x158 }
  - { offsetInCU: 0x182F, offset: 0x6EFFF, size: 0x8, addend: 0x0, symName: __RINvNtNtCsF7gmULBm3O_4pyo35impl_10trampoline10trampolineNCNvNtB2_11richcmpfunc5inner0ONtNtCsqz1hv0UmID_8pyo3_ffi6object8PyObjectECsaYfPqFfImBE_4dprs, symObjAddr: 0x158, symBinAddr: 0x1D620, symSize: 0x15C }
  - { offsetInCU: 0x18D8, offset: 0x6F0A8, size: 0x8, addend: 0x0, symName: __RINvNtNtCsF7gmULBm3O_4pyo35impl_10trampoline10trampolineNCNvNtB2_32fastcall_cfunction_with_keywords5inner0ONtNtCsqz1hv0UmID_8pyo3_ffi6object8PyObjectECsaYfPqFfImBE_4dprs, symObjAddr: 0x2B4, symBinAddr: 0x1D77C, symSize: 0x160 }
  - { offsetInCU: 0x1982, offset: 0x6F152, size: 0x8, addend: 0x0, symName: __RINvNtNtCsF7gmULBm3O_4pyo35impl_10trampoline10trampolineNCNvNtB2_8reprfunc5inner0ONtNtCsqz1hv0UmID_8pyo3_ffi6object8PyObjectECsaYfPqFfImBE_4dprs, symObjAddr: 0x414, symBinAddr: 0x1D8DC, symSize: 0x158 }
  - { offsetInCU: 0x1A2B, offset: 0x6F1FB, size: 0x8, addend: 0x0, symName: __RINvNtNtCsF7gmULBm3O_4pyo35impl_10trampoline10trampolineNCNvNtB2_9unaryfunc5inner0ONtNtCsqz1hv0UmID_8pyo3_ffi6object8PyObjectECsaYfPqFfImBE_4dprs, symObjAddr: 0x56C, symBinAddr: 0x1DA34, symSize: 0x158 }
  - { offsetInCU: 0x1AD4, offset: 0x6F2A4, size: 0x8, addend: 0x0, symName: __RINvNtNtCsF7gmULBm3O_4pyo35impl_10trampoline11richcmpfuncNtNvNvXs6_NtCsaYfPqFfImBE_4dprs10parametersNtB13_9DimensionNtNtB4_7pyclass11PyClassImpl10items_iter15INTRINSIC_ITEMSs0_3DefEB15_, symObjAddr: 0x6C4, symBinAddr: 0x1DB8C, symSize: 0x48 }
  - { offsetInCU: 0x1B25, offset: 0x6F2F5, size: 0x8, addend: 0x0, symName: __RINvNtNtCsF7gmULBm3O_4pyo35impl_10trampoline11richcmpfuncNtNvNvXsG_NtCsaYfPqFfImBE_4dprs10parametersNtB13_10ProcessingNtNtB4_7pyclass11PyClassImpl10items_iter15INTRINSIC_ITEMSs0_3DefEB15_, symObjAddr: 0x70C, symBinAddr: 0x1DBD4, symSize: 0x48 }
  - { offsetInCU: 0x1B76, offset: 0x6F346, size: 0x8, addend: 0x0, symName: __RINvNtNtCsF7gmULBm3O_4pyo35impl_10trampoline11richcmpfuncNtNvNvXsi_NtCsaYfPqFfImBE_4dprs10parametersNtB13_8TopologyNtNtB4_7pyclass11PyClassImpl10items_iter15INTRINSIC_ITEMSs0_3DefEB15_, symObjAddr: 0x754, symBinAddr: 0x1DC1C, symSize: 0x48 }
  - { offsetInCU: 0x1BC7, offset: 0x6F397, size: 0x8, addend: 0x0, symName: __RINvNtNtCsF7gmULBm3O_4pyo35impl_10trampoline11richcmpfuncNtNvNvXsu_NtCsaYfPqFfImBE_4dprs10parametersNtB13_17BoundaryConditionNtNtB4_7pyclass11PyClassImpl10items_iter15INTRINSIC_ITEMSs0_3DefEB15_, symObjAddr: 0x79C, symBinAddr: 0x1DC64, symSize: 0x48 }
  - { offsetInCU: 0x1C18, offset: 0x6F3E8, size: 0x8, addend: 0x0, symName: __RINvNtNtCsF7gmULBm3O_4pyo35impl_10trampoline21trampoline_unraisableNCNvB2_7dealloc0ECsaYfPqFfImBE_4dprs, symObjAddr: 0x7E4, symBinAddr: 0x1DCAC, symSize: 0x218 }
  - { offsetInCU: 0x1CBD, offset: 0x6F48D, size: 0x8, addend: 0x0, symName: __RINvNtNtCsF7gmULBm3O_4pyo35impl_10trampoline32fastcall_cfunction_with_keywordsNtNvMNtNtCsaYfPqFfImBE_4dprs3sim3simNtNtB1j_4life7MakeDef9__PYO3_DEF3DefEB1n_, symObjAddr: 0x9FC, symBinAddr: 0x1DEC4, symSize: 0x50 }
  - { offsetInCU: 0x1D1C, offset: 0x6F4EC, size: 0x8, addend: 0x0, symName: __RINvNtNtCsF7gmULBm3O_4pyo35impl_10trampoline32fastcall_cfunction_with_keywordsNtNvMs_NtNtCsaYfPqFfImBE_4dprs3sim3simNtNtB1l_2dp7MakeDef9__PYO3_DEF3DefEB1p_, symObjAddr: 0xA4C, symBinAddr: 0x1DF14, symSize: 0x50 }
  - { offsetInCU: 0x1D7B, offset: 0x6F54B, size: 0x8, addend: 0x0, symName: __RINvNtNtCsF7gmULBm3O_4pyo35impl_10trampoline8reprfuncNtNvNvXs6_NtCsaYfPqFfImBE_4dprs10parametersNtBZ_9DimensionNtNtB4_7pyclass11PyClassImpl10items_iter15INTRINSIC_ITEMS3DefEB11_, symObjAddr: 0xA9C, symBinAddr: 0x1DF64, symSize: 0x3C }
  - { offsetInCU: 0x1DB0, offset: 0x6F580, size: 0x8, addend: 0x0, symName: __RINvNtNtCsF7gmULBm3O_4pyo35impl_10trampoline8reprfuncNtNvNvXsG_NtCsaYfPqFfImBE_4dprs10parametersNtBZ_10ProcessingNtNtB4_7pyclass11PyClassImpl10items_iter15INTRINSIC_ITEMS3DefEB11_, symObjAddr: 0xAD8, symBinAddr: 0x1DFA0, symSize: 0x3C }
  - { offsetInCU: 0x1DE5, offset: 0x6F5B5, size: 0x8, addend: 0x0, symName: __RINvNtNtCsF7gmULBm3O_4pyo35impl_10trampoline8reprfuncNtNvNvXsi_NtCsaYfPqFfImBE_4dprs10parametersNtBZ_8TopologyNtNtB4_7pyclass11PyClassImpl10items_iter15INTRINSIC_ITEMS3DefEB11_, symObjAddr: 0xB14, symBinAddr: 0x1DFDC, symSize: 0x3C }
  - { offsetInCU: 0x1E1A, offset: 0x6F5EA, size: 0x8, addend: 0x0, symName: __RINvNtNtCsF7gmULBm3O_4pyo35impl_10trampoline8reprfuncNtNvNvXsu_NtCsaYfPqFfImBE_4dprs10parametersNtBZ_17BoundaryConditionNtNtB4_7pyclass11PyClassImpl10items_iter15INTRINSIC_ITEMS3DefEB11_, symObjAddr: 0xB50, symBinAddr: 0x1E018, symSize: 0x3C }
  - { offsetInCU: 0x1E4F, offset: 0x6F61F, size: 0x8, addend: 0x0, symName: __RINvNtNtCsF7gmULBm3O_4pyo35impl_10trampoline9unaryfuncNtNvNvXs6_NtCsaYfPqFfImBE_4dprs10parametersNtB10_9DimensionNtNtB4_7pyclass11PyClassImpl10items_iter15INTRINSIC_ITEMSs_3DefEB12_, symObjAddr: 0xB8C, symBinAddr: 0x1E054, symSize: 0x3C }
  - { offsetInCU: 0x1E84, offset: 0x6F654, size: 0x8, addend: 0x0, symName: __RINvNtNtCsF7gmULBm3O_4pyo35impl_10trampoline9unaryfuncNtNvNvXsG_NtCsaYfPqFfImBE_4dprs10parametersNtB10_10ProcessingNtNtB4_7pyclass11PyClassImpl10items_iter15INTRINSIC_ITEMSs_3DefEB12_, symObjAddr: 0xBC8, symBinAddr: 0x1E090, symSize: 0x3C }
  - { offsetInCU: 0x1EB9, offset: 0x6F689, size: 0x8, addend: 0x0, symName: __RINvNtNtCsF7gmULBm3O_4pyo35impl_10trampoline9unaryfuncNtNvNvXsi_NtCsaYfPqFfImBE_4dprs10parametersNtB10_8TopologyNtNtB4_7pyclass11PyClassImpl10items_iter15INTRINSIC_ITEMSs_3DefEB12_, symObjAddr: 0xC04, symBinAddr: 0x1E0CC, symSize: 0x3C }
  - { offsetInCU: 0x1EEE, offset: 0x6F6BE, size: 0x8, addend: 0x0, symName: __RINvNtNtCsF7gmULBm3O_4pyo35impl_10trampoline9unaryfuncNtNvNvXsu_NtCsaYfPqFfImBE_4dprs10parametersNtB10_17BoundaryConditionNtNtB4_7pyclass11PyClassImpl10items_iter15INTRINSIC_ITEMSs_3DefEB12_, symObjAddr: 0xC40, symBinAddr: 0x1E108, symSize: 0x3C }
  - { offsetInCU: 0x1F28, offset: 0x6F6F8, size: 0x8, addend: 0x0, symName: __RNCINvNtNtCsF7gmULBm3O_4pyo35impl_10trampoline10trampolineNCNvB4_11module_exec0lE0CsaYfPqFfImBE_4dprs, symObjAddr: 0xC7C, symBinAddr: 0x1E144, symSize: 0x2C }
  - { offsetInCU: 0x1F79, offset: 0x6F749, size: 0x8, addend: 0x0, symName: __RNCINvNtNtCsF7gmULBm3O_4pyo35impl_10trampoline10trampolineNCNvNtB4_11richcmpfunc5inner0ONtNtCsqz1hv0UmID_8pyo3_ffi6object8PyObjectE0CsaYfPqFfImBE_4dprs, symObjAddr: 0xCA8, symBinAddr: 0x1E170, symSize: 0x34 }
  - { offsetInCU: 0x1FCB, offset: 0x6F79B, size: 0x8, addend: 0x0, symName: __RNCINvNtNtCsF7gmULBm3O_4pyo35impl_10trampoline10trampolineNCNvNtB4_32fastcall_cfunction_with_keywords5inner0ONtNtCsqz1hv0UmID_8pyo3_ffi6object8PyObjectE0CsaYfPqFfImBE_4dprs, symObjAddr: 0xCDC, symBinAddr: 0x1E1A4, symSize: 0x40 }
  - { offsetInCU: 0x201D, offset: 0x6F7ED, size: 0x8, addend: 0x0, symName: __RNCINvNtNtCsF7gmULBm3O_4pyo35impl_10trampoline10trampolineNCNvNtB4_8reprfunc5inner0ONtNtCsqz1hv0UmID_8pyo3_ffi6object8PyObjectE0CsaYfPqFfImBE_4dprs, symObjAddr: 0xD1C, symBinAddr: 0x1E1E4, symSize: 0x2C }
  - { offsetInCU: 0x206E, offset: 0x6F83E, size: 0x8, addend: 0x0, symName: __RNCINvNtNtCsF7gmULBm3O_4pyo35impl_10trampoline10trampolineNCNvNtB4_9unaryfunc5inner0ONtNtCsqz1hv0UmID_8pyo3_ffi6object8PyObjectE0CsaYfPqFfImBE_4dprs, symObjAddr: 0xD48, symBinAddr: 0x1E210, symSize: 0x2C }
  - { offsetInCU: 0x20C5, offset: 0x6F895, size: 0x8, addend: 0x0, symName: __RNCINvNtNtCsF7gmULBm3O_4pyo35impl_10trampoline21trampoline_unraisableNCNvB4_7dealloc0E0CsaYfPqFfImBE_4dprs, symObjAddr: 0xD74, symBinAddr: 0x1E23C, symSize: 0x2C }
  - { offsetInCU: 0x210D, offset: 0x6F8DD, size: 0x8, addend: 0x0, symName: __RNCINvNtNtCsF7gmULBm3O_4pyo35impl_10trampoline21trampoline_unraisableNCNvB4_7dealloc0Es_0CsaYfPqFfImBE_4dprs, symObjAddr: 0xDA0, symBinAddr: 0x1E268, symSize: 0x5C }
  - { offsetInCU: 0x215C, offset: 0x6F92C, size: 0x8, addend: 0x0, symName: __RNCNvNtNtCsF7gmULBm3O_4pyo35impl_10trampoline11module_exec0CsaYfPqFfImBE_4dprs, symObjAddr: 0xDFC, symBinAddr: 0x1E2C4, symSize: 0x1A4 }
  - { offsetInCU: 0x2273, offset: 0x6FA43, size: 0x8, addend: 0x0, symName: __RNCNvNtNtCsF7gmULBm3O_4pyo35impl_10trampoline7dealloc0CsaYfPqFfImBE_4dprs, symObjAddr: 0xFA0, symBinAddr: 0x1E468, symSize: 0x40 }
  - { offsetInCU: 0x1E, offset: 0x707E5, size: 0x8, addend: 0x0, symName: __RINvNtNtCs2tD97QJu26F_4core5slice3raw14from_raw_partsINtNtB6_6option6OptionINtNtCsF7gmULBm3O_4pyo38instance8BorrowedNtNtNtB1g_5types3any5PyAnyEEECsaYfPqFfImBE_4dprs, symObjAddr: 0x0, symBinAddr: 0x1E4A8, symSize: 0x58 }
  - { offsetInCU: 0x849, offset: 0x71010, size: 0x8, addend: 0x0, symName: __RINvNtNtCs2tD97QJu26F_4core5slice3raw14from_raw_partsINtNtB6_6option6OptionINtNtCsF7gmULBm3O_4pyo38instance8BorrowedNtNtNtB1g_5types3any5PyAnyEEECsaYfPqFfImBE_4dprs, symObjAddr: 0x0, symBinAddr: 0x1E4A8, symSize: 0x58 }
  - { offsetInCU: 0x88C, offset: 0x71053, size: 0x8, addend: 0x0, symName: __RINvNtNtCs2tD97QJu26F_4core5slice3raw14from_raw_partsINtNtCsF7gmULBm3O_4pyo38instance8BorrowedNtNtNtBU_5types3any5PyAnyEECsaYfPqFfImBE_4dprs, symObjAddr: 0x58, symBinAddr: 0x1E500, symSize: 0x58 }
  - { offsetInCU: 0x8CF, offset: 0x71096, size: 0x8, addend: 0x0, symName: __RINvNtNtCs2tD97QJu26F_4core5slice3raw18from_raw_parts_mutbECsaYfPqFfImBE_4dprs, symObjAddr: 0xB0, symBinAddr: 0x1E558, symSize: 0x58 }
  - { offsetInCU: 0x1E, offset: 0x72119, size: 0x8, addend: 0x0, symName: __RINvXs_NtNtCs9xDkXAC1PNF_5alloc3vec14spec_from_elembNtB5_12SpecFromElem9from_elemNtNtB9_5alloc6GlobalECsaYfPqFfImBE_4dprs, symObjAddr: 0x0, symBinAddr: 0x1E5B0, symSize: 0x19C }
  - { offsetInCU: 0x59D, offset: 0x72698, size: 0x8, addend: 0x0, symName: __RINvXs_NtNtCs9xDkXAC1PNF_5alloc3vec14spec_from_elembNtB5_12SpecFromElem9from_elemNtNtB9_5alloc6GlobalECsaYfPqFfImBE_4dprs, symObjAddr: 0x0, symBinAddr: 0x1E5B0, symSize: 0x19C }
  - { offsetInCU: 0x1E, offset: 0x728DD, size: 0x8, addend: 0x0, symName: __RNvMs_NtCsF7gmULBm3O_4pyo33errNtB4_5PyErr16write_unraisableCsaYfPqFfImBE_4dprs, symObjAddr: 0x0, symBinAddr: 0x1E74C, symSize: 0x58 }
  - { offsetInCU: 0x1DC3, offset: 0x74682, size: 0x8, addend: 0x0, symName: __RNvMs_NtCsF7gmULBm3O_4pyo33errNtB4_5PyErr16write_unraisableCsaYfPqFfImBE_4dprs, symObjAddr: 0x0, symBinAddr: 0x1E74C, symSize: 0x58 }
  - { offsetInCU: 0x1E11, offset: 0x746D0, size: 0x8, addend: 0x0, symName: __RNvMs_NtCsF7gmULBm3O_4pyo33errNtB4_5PyErr7restoreCsaYfPqFfImBE_4dprs, symObjAddr: 0x58, symBinAddr: 0x1E7A4, symSize: 0x38 }
  - { offsetInCU: 0x1E, offset: 0x7472D, size: 0x8, addend: 0x0, symName: __RNCNCNvMs9_NtCsaYfPqFfImBE_4dprs10parametersNtB9_9Dimension30___pyo3__generated____richcmp__00Bb_, symObjAddr: 0x0, symBinAddr: 0x1E7DC, symSize: 0x88 }
  - { offsetInCU: 0xE3, offset: 0x747F2, size: 0x8, addend: 0x0, symName: __RNCNCNvMs9_NtCsaYfPqFfImBE_4dprs10parametersNtB9_9Dimension30___pyo3__generated____richcmp__00Bb_, symObjAddr: 0x0, symBinAddr: 0x1E7DC, symSize: 0x88 }
  - { offsetInCU: 0x121, offset: 0x74830, size: 0x8, addend: 0x0, symName: __RNCNvMs9_NtCsaYfPqFfImBE_4dprs10parametersNtB7_9Dimension30___pyo3__generated____richcmp__0B9_, symObjAddr: 0x24C, symBinAddr: 0x1EA28, symSize: 0x74 }
  - { offsetInCU: 0x16B, offset: 0x7487A, size: 0x8, addend: 0x0, symName: __RNCNCNvMsJ_NtCsaYfPqFfImBE_4dprs10parametersNtB9_10Processing30___pyo3__generated____richcmp__00Bb_, symObjAddr: 0x88, symBinAddr: 0x1E864, symSize: 0x88 }
  - { offsetInCU: 0x1A9, offset: 0x748B8, size: 0x8, addend: 0x0, symName: __RNCNvMsJ_NtCsaYfPqFfImBE_4dprs10parametersNtB7_10Processing30___pyo3__generated____richcmp__0B9_, symObjAddr: 0x2EC, symBinAddr: 0x1EAC8, symSize: 0x74 }
  - { offsetInCU: 0x1F3, offset: 0x74902, size: 0x8, addend: 0x0, symName: __RNCNCNvMsl_NtCsaYfPqFfImBE_4dprs10parametersNtB9_8Topology30___pyo3__generated____richcmp__00Bb_, symObjAddr: 0x110, symBinAddr: 0x1E8EC, symSize: 0x88 }
  - { offsetInCU: 0x231, offset: 0x74940, size: 0x8, addend: 0x0, symName: __RNCNvMsl_NtCsaYfPqFfImBE_4dprs10parametersNtB7_8Topology30___pyo3__generated____richcmp__0B9_, symObjAddr: 0x38C, symBinAddr: 0x1EB68, symSize: 0x74 }
  - { offsetInCU: 0x27B, offset: 0x7498A, size: 0x8, addend: 0x0, symName: __RNCNCNvMsx_NtCsaYfPqFfImBE_4dprs10parametersNtB9_17BoundaryCondition30___pyo3__generated____richcmp__00Bb_, symObjAddr: 0x198, symBinAddr: 0x1E974, symSize: 0x88 }
  - { offsetInCU: 0x2B9, offset: 0x749C8, size: 0x8, addend: 0x0, symName: __RNCNvMsx_NtCsaYfPqFfImBE_4dprs10parametersNtB7_17BoundaryCondition30___pyo3__generated____richcmp__0B9_, symObjAddr: 0x42C, symBinAddr: 0x1EC08, symSize: 0x74 }
  - { offsetInCU: 0x2FE, offset: 0x74A0D, size: 0x8, addend: 0x0, symName: __RNCNvMs7_NtCsaYfPqFfImBE_4dprs10parametersNtB7_9Dimension24___pymethod___richcmp____0B9_, symObjAddr: 0x220, symBinAddr: 0x1E9FC, symSize: 0x2C }
  - { offsetInCU: 0x339, offset: 0x74A48, size: 0x8, addend: 0x0, symName: __RNCNvMsH_NtCsaYfPqFfImBE_4dprs10parametersNtB7_10Processing24___pymethod___richcmp____0B9_, symObjAddr: 0x2C0, symBinAddr: 0x1EA9C, symSize: 0x2C }
  - { offsetInCU: 0x374, offset: 0x74A83, size: 0x8, addend: 0x0, symName: __RNCNvMsj_NtCsaYfPqFfImBE_4dprs10parametersNtB7_8Topology24___pymethod___richcmp____0B9_, symObjAddr: 0x360, symBinAddr: 0x1EB3C, symSize: 0x2C }
  - { offsetInCU: 0x3AF, offset: 0x74ABE, size: 0x8, addend: 0x0, symName: __RNCNvMsv_NtCsaYfPqFfImBE_4dprs10parametersNtB7_17BoundaryCondition24___pymethod___richcmp____0B9_, symObjAddr: 0x400, symBinAddr: 0x1EBDC, symSize: 0x2C }
  - { offsetInCU: 0x3EA, offset: 0x74AF9, size: 0x8, addend: 0x0, symName: __RNCNvXs2_NtCsaYfPqFfImBE_4dprs10parametersNtB7_9DimensionNtNtCsF7gmULBm3O_4pyo311type_object10PyTypeInfo15type_object_raw0B9_, symObjAddr: 0x4A0, symBinAddr: 0x1EC7C, symSize: 0x3C }
  - { offsetInCU: 0x44F, offset: 0x74B5E, size: 0x8, addend: 0x0, symName: __RNCNvXs4_NtCsaYfPqFfImBE_4dprs10parametersNtB7_9DimensionNtNtCsF7gmULBm3O_4pyo310conversion12IntoPyObject13into_pyobject0B9_, symObjAddr: 0x4DC, symBinAddr: 0x1ECB8, symSize: 0x2C }
  - { offsetInCU: 0x48D, offset: 0x74B9C, size: 0x8, addend: 0x0, symName: __RNCNvXs4_NtCsaYfPqFfImBE_4dprs10parametersNtB7_9DimensionNtNtCsF7gmULBm3O_4pyo310conversion12IntoPyObject13into_pyobjects_0B9_, symObjAddr: 0x508, symBinAddr: 0x1ECE4, symSize: 0x34 }
  - { offsetInCU: 0x4F1, offset: 0x74C00, size: 0x8, addend: 0x0, symName: __RNCNvXsC_NtCsaYfPqFfImBE_4dprs10parametersNtB7_10ProcessingNtNtCsF7gmULBm3O_4pyo311type_object10PyTypeInfo15type_object_raw0B9_, symObjAddr: 0x53C, symBinAddr: 0x1ED18, symSize: 0x3C }
  - { offsetInCU: 0x556, offset: 0x74C65, size: 0x8, addend: 0x0, symName: __RNCNvXsE_NtCsaYfPqFfImBE_4dprs10parametersNtB7_10ProcessingNtNtCsF7gmULBm3O_4pyo310conversion12IntoPyObject13into_pyobject0B9_, symObjAddr: 0x578, symBinAddr: 0x1ED54, symSize: 0x2C }
  - { offsetInCU: 0x594, offset: 0x74CA3, size: 0x8, addend: 0x0, symName: __RNCNvXsE_NtCsaYfPqFfImBE_4dprs10parametersNtB7_10ProcessingNtNtCsF7gmULBm3O_4pyo310conversion12IntoPyObject13into_pyobjects_0B9_, symObjAddr: 0x5A4, symBinAddr: 0x1ED80, symSize: 0x34 }
  - { offsetInCU: 0x5F8, offset: 0x74D07, size: 0x8, addend: 0x0, symName: __RNCNvXse_NtCsaYfPqFfImBE_4dprs10parametersNtB7_8TopologyNtNtCsF7gmULBm3O_4pyo311type_object10PyTypeInfo15type_object_raw0B9_, symObjAddr: 0x5D8, symBinAddr: 0x1EDB4, symSize: 0x3C }
  - { offsetInCU: 0x65D, offset: 0x74D6C, size: 0x8, addend: 0x0, symName: __RNCNvXsg_NtCsaYfPqFfImBE_4dprs10parametersNtB7_8TopologyNtNtCsF7gmULBm3O_4pyo310conversion12IntoPyObject13into_pyobject0B9_, symObjAddr: 0x614, symBinAddr: 0x1EDF0, symSize: 0x2C }
  - { offsetInCU: 0x69B, offset: 0x74DAA, size: 0x8, addend: 0x0, symName: __RNCNvXsg_NtCsaYfPqFfImBE_4dprs10parametersNtB7_8TopologyNtNtCsF7gmULBm3O_4pyo310conversion12IntoPyObject13into_pyobjects_0B9_, symObjAddr: 0x640, symBinAddr: 0x1EE1C, symSize: 0x34 }
  - { offsetInCU: 0x6FF, offset: 0x74E0E, size: 0x8, addend: 0x0, symName: __RNCNvXsq_NtCsaYfPqFfImBE_4dprs10parametersNtB7_17BoundaryConditionNtNtCsF7gmULBm3O_4pyo311type_object10PyTypeInfo15type_object_raw0B9_, symObjAddr: 0x674, symBinAddr: 0x1EE50, symSize: 0x3C }
  - { offsetInCU: 0x764, offset: 0x74E73, size: 0x8, addend: 0x0, symName: __RNCNvXss_NtCsaYfPqFfImBE_4dprs10parametersNtB7_17BoundaryConditionNtNtCsF7gmULBm3O_4pyo310conversion12IntoPyObject13into_pyobject0B9_, symObjAddr: 0x6B0, symBinAddr: 0x1EE8C, symSize: 0x2C }
  - { offsetInCU: 0x7A2, offset: 0x74EB1, size: 0x8, addend: 0x0, symName: __RNCNvXss_NtCsaYfPqFfImBE_4dprs10parametersNtB7_17BoundaryConditionNtNtCsF7gmULBm3O_4pyo310conversion12IntoPyObject13into_pyobjects_0B9_, symObjAddr: 0x6DC, symBinAddr: 0x1EEB8, symSize: 0x34 }
  - { offsetInCU: 0x111C, offset: 0x7582B, size: 0x8, addend: 0x0, symName: __RNvXs1G_NtCs2tD97QJu26F_4core3fmtTNtNtCsaYfPqFfImBE_4dprs10parameters17BoundaryConditionBw_ENtB6_5Debug3fmtBA_, symObjAddr: 0x848, symBinAddr: 0x1F024, symSize: 0x90 }
  - { offsetInCU: 0x11BD, offset: 0x758CC, size: 0x8, addend: 0x0, symName: __RNvXs1g_NtCs2tD97QJu26F_4core3fmtRNtNtCsaYfPqFfImBE_4dprs10parameters17BoundaryConditionNtB6_5Debug3fmtBA_, symObjAddr: 0x958, symBinAddr: 0x1F134, symSize: 0x30 }
  - { offsetInCU: 0x12A4, offset: 0x759B3, size: 0x8, addend: 0x0, symName: __RNvXs1_NtCs2tD97QJu26F_4core7convertNtNtCsaYfPqFfImBE_4dprs10parameters10ProcessingINtB5_4IntoINtNtCsF7gmULBm3O_4pyo312pyclass_init18PyClassInitializerBy_EE4intoBC_, symObjAddr: 0x8D8, symBinAddr: 0x1F0B4, symSize: 0x20 }
  - { offsetInCU: 0x12E4, offset: 0x759F3, size: 0x8, addend: 0x0, symName: __RNvXs1_NtCs2tD97QJu26F_4core7convertNtNtCsaYfPqFfImBE_4dprs10parameters17BoundaryConditionINtB5_4IntoINtNtCsF7gmULBm3O_4pyo312pyclass_init18PyClassInitializerBy_EE4intoBC_, symObjAddr: 0x8F8, symBinAddr: 0x1F0D4, symSize: 0x20 }
  - { offsetInCU: 0x1324, offset: 0x75A33, size: 0x8, addend: 0x0, symName: __RNvXs1_NtCs2tD97QJu26F_4core7convertNtNtCsaYfPqFfImBE_4dprs10parameters8TopologyINtB5_4IntoINtNtCsF7gmULBm3O_4pyo312pyclass_init18PyClassInitializerBy_EE4intoBC_, symObjAddr: 0x918, symBinAddr: 0x1F0F4, symSize: 0x20 }
  - { offsetInCU: 0x1364, offset: 0x75A73, size: 0x8, addend: 0x0, symName: __RNvXs1_NtCs2tD97QJu26F_4core7convertNtNtCsaYfPqFfImBE_4dprs10parameters9DimensionINtB5_4IntoINtNtCsF7gmULBm3O_4pyo312pyclass_init18PyClassInitializerBy_EE4intoBC_, symObjAddr: 0x938, symBinAddr: 0x1F114, symSize: 0x20 }
  - { offsetInCU: 0x13BF, offset: 0x75ACE, size: 0x8, addend: 0x0, symName: __RNvXs7_NtNtCs2tD97QJu26F_4core3cmp5implsRNtNtCsaYfPqFfImBE_4dprs10parameters10ProcessingNtB7_9PartialEq2eqBH_, symObjAddr: 0x988, symBinAddr: 0x1F164, symSize: 0x34 }
  - { offsetInCU: 0x140E, offset: 0x75B1D, size: 0x8, addend: 0x0, symName: __RNvXs7_NtNtCs2tD97QJu26F_4core3cmp5implsRNtNtCsaYfPqFfImBE_4dprs10parameters10ProcessingNtB7_9PartialEq2neBH_, symObjAddr: 0x9BC, symBinAddr: 0x1F198, symSize: 0x34 }
  - { offsetInCU: 0x145D, offset: 0x75B6C, size: 0x8, addend: 0x0, symName: __RNvXs7_NtNtCs2tD97QJu26F_4core3cmp5implsRNtNtCsaYfPqFfImBE_4dprs10parameters17BoundaryConditionNtB7_9PartialEq2eqBH_, symObjAddr: 0x9F0, symBinAddr: 0x1F1CC, symSize: 0x34 }
  - { offsetInCU: 0x14AC, offset: 0x75BBB, size: 0x8, addend: 0x0, symName: __RNvXs7_NtNtCs2tD97QJu26F_4core3cmp5implsRNtNtCsaYfPqFfImBE_4dprs10parameters17BoundaryConditionNtB7_9PartialEq2neBH_, symObjAddr: 0xA24, symBinAddr: 0x1F200, symSize: 0x34 }
  - { offsetInCU: 0x14FB, offset: 0x75C0A, size: 0x8, addend: 0x0, symName: __RNvXs7_NtNtCs2tD97QJu26F_4core3cmp5implsRNtNtCsaYfPqFfImBE_4dprs10parameters8TopologyNtB7_9PartialEq2eqBH_, symObjAddr: 0xA58, symBinAddr: 0x1F234, symSize: 0x34 }
  - { offsetInCU: 0x154A, offset: 0x75C59, size: 0x8, addend: 0x0, symName: __RNvXs7_NtNtCs2tD97QJu26F_4core3cmp5implsRNtNtCsaYfPqFfImBE_4dprs10parameters8TopologyNtB7_9PartialEq2neBH_, symObjAddr: 0xA8C, symBinAddr: 0x1F268, symSize: 0x34 }
  - { offsetInCU: 0x1599, offset: 0x75CA8, size: 0x8, addend: 0x0, symName: __RNvXs7_NtNtCs2tD97QJu26F_4core3cmp5implsRNtNtCsaYfPqFfImBE_4dprs10parameters9DimensionNtB7_9PartialEq2eqBH_, symObjAddr: 0xAC0, symBinAddr: 0x1F29C, symSize: 0x34 }
  - { offsetInCU: 0x15E8, offset: 0x75CF7, size: 0x8, addend: 0x0, symName: __RNvXs7_NtNtCs2tD97QJu26F_4core3cmp5implsRNtNtCsaYfPqFfImBE_4dprs10parameters9DimensionNtB7_9PartialEq2neBH_, symObjAddr: 0xAF4, symBinAddr: 0x1F2D0, symSize: 0x34 }
  - { offsetInCU: 0x163E, offset: 0x75D4D, size: 0x8, addend: 0x0, symName: __RNvYNtNtCsaYfPqFfImBE_4dprs10parameters10ProcessingNtNtCs2tD97QJu26F_4core3cmp9PartialEq2neB6_, symObjAddr: 0xD94, symBinAddr: 0x1F570, symSize: 0x30 }
  - { offsetInCU: 0x168D, offset: 0x75D9C, size: 0x8, addend: 0x0, symName: __RNvYNtNtCsaYfPqFfImBE_4dprs10parameters17BoundaryConditionNtNtCs2tD97QJu26F_4core3cmp9PartialEq2neB6_, symObjAddr: 0xF28, symBinAddr: 0x1F704, symSize: 0x30 }
  - { offsetInCU: 0x16DC, offset: 0x75DEB, size: 0x8, addend: 0x0, symName: __RNvYNtNtCsaYfPqFfImBE_4dprs10parameters8TopologyNtNtCs2tD97QJu26F_4core3cmp9PartialEq2neB6_, symObjAddr: 0x10BC, symBinAddr: 0x1F898, symSize: 0x30 }
  - { offsetInCU: 0x172B, offset: 0x75E3A, size: 0x8, addend: 0x0, symName: __RNvYNtNtCsaYfPqFfImBE_4dprs10parameters9DimensionNtNtCs2tD97QJu26F_4core3cmp9PartialEq2neB6_, symObjAddr: 0x1250, symBinAddr: 0x1FA2C, symSize: 0x30 }
  - { offsetInCU: 0x2B55, offset: 0x77264, size: 0x8, addend: 0x0, symName: __RNvXNtCsF7gmULBm3O_4pyo311type_objectNtNtCsaYfPqFfImBE_4dprs10parameters10ProcessingNtB2_11PyTypeCheck10type_checkBD_, symObjAddr: 0x710, symBinAddr: 0x1EEEC, symSize: 0x24 }
  - { offsetInCU: 0x2B8A, offset: 0x77299, size: 0x8, addend: 0x0, symName: __RNvXNtCsF7gmULBm3O_4pyo311type_objectNtNtCsaYfPqFfImBE_4dprs10parameters10ProcessingNtB2_11PyTypeCheck16classinfo_objectBD_, symObjAddr: 0x734, symBinAddr: 0x1EF10, symSize: 0x20 }
  - { offsetInCU: 0x2BCA, offset: 0x772D9, size: 0x8, addend: 0x0, symName: __RNvXNtCsF7gmULBm3O_4pyo311type_objectNtNtCsaYfPqFfImBE_4dprs10parameters17BoundaryConditionNtB2_11PyTypeCheck10type_checkBD_, symObjAddr: 0x754, symBinAddr: 0x1EF30, symSize: 0x24 }
  - { offsetInCU: 0x2BFF, offset: 0x7730E, size: 0x8, addend: 0x0, symName: __RNvXNtCsF7gmULBm3O_4pyo311type_objectNtNtCsaYfPqFfImBE_4dprs10parameters17BoundaryConditionNtB2_11PyTypeCheck16classinfo_objectBD_, symObjAddr: 0x778, symBinAddr: 0x1EF54, symSize: 0x20 }
  - { offsetInCU: 0x2C3F, offset: 0x7734E, size: 0x8, addend: 0x0, symName: __RNvXNtCsF7gmULBm3O_4pyo311type_objectNtNtCsaYfPqFfImBE_4dprs10parameters8TopologyNtB2_11PyTypeCheck10type_checkBD_, symObjAddr: 0x798, symBinAddr: 0x1EF74, symSize: 0x24 }
  - { offsetInCU: 0x2C74, offset: 0x77383, size: 0x8, addend: 0x0, symName: __RNvXNtCsF7gmULBm3O_4pyo311type_objectNtNtCsaYfPqFfImBE_4dprs10parameters8TopologyNtB2_11PyTypeCheck16classinfo_objectBD_, symObjAddr: 0x7BC, symBinAddr: 0x1EF98, symSize: 0x20 }
  - { offsetInCU: 0x2CB4, offset: 0x773C3, size: 0x8, addend: 0x0, symName: __RNvXNtCsF7gmULBm3O_4pyo311type_objectNtNtCsaYfPqFfImBE_4dprs10parameters9DimensionNtB2_11PyTypeCheck10type_checkBD_, symObjAddr: 0x7DC, symBinAddr: 0x1EFB8, symSize: 0x24 }
  - { offsetInCU: 0x2CE9, offset: 0x773F8, size: 0x8, addend: 0x0, symName: __RNvXNtCsF7gmULBm3O_4pyo311type_objectNtNtCsaYfPqFfImBE_4dprs10parameters9DimensionNtB2_11PyTypeCheck16classinfo_objectBD_, symObjAddr: 0x800, symBinAddr: 0x1EFDC, symSize: 0x20 }
  - { offsetInCU: 0x2D2F, offset: 0x7743E, size: 0x8, addend: 0x0, symName: __RNvYNtNtCsaYfPqFfImBE_4dprs10parameters10ProcessingNtNtCsF7gmULBm3O_4pyo311type_object10PyTypeInfo10is_type_ofB6_, symObjAddr: 0xE90, symBinAddr: 0x1F66C, symSize: 0x50 }
  - { offsetInCU: 0x2D64, offset: 0x77473, size: 0x8, addend: 0x0, symName: __RNvYNtNtCsaYfPqFfImBE_4dprs10parameters10ProcessingNtNtCsF7gmULBm3O_4pyo311type_object10PyTypeInfo11type_objectB6_, symObjAddr: 0xEE0, symBinAddr: 0x1F6BC, symSize: 0x30 }
  - { offsetInCU: 0x2DA4, offset: 0x774B3, size: 0x8, addend: 0x0, symName: __RNvYNtNtCsaYfPqFfImBE_4dprs10parameters17BoundaryConditionNtNtCsF7gmULBm3O_4pyo311type_object10PyTypeInfo10is_type_ofB6_, symObjAddr: 0x1024, symBinAddr: 0x1F800, symSize: 0x50 }
  - { offsetInCU: 0x2DD9, offset: 0x774E8, size: 0x8, addend: 0x0, symName: __RNvYNtNtCsaYfPqFfImBE_4dprs10parameters17BoundaryConditionNtNtCsF7gmULBm3O_4pyo311type_object10PyTypeInfo11type_objectB6_, symObjAddr: 0x1074, symBinAddr: 0x1F850, symSize: 0x30 }
  - { offsetInCU: 0x2E19, offset: 0x77528, size: 0x8, addend: 0x0, symName: __RNvYNtNtCsaYfPqFfImBE_4dprs10parameters8TopologyNtNtCsF7gmULBm3O_4pyo311type_object10PyTypeInfo10is_type_ofB6_, symObjAddr: 0x11B8, symBinAddr: 0x1F994, symSize: 0x50 }
  - { offsetInCU: 0x2E4E, offset: 0x7755D, size: 0x8, addend: 0x0, symName: __RNvYNtNtCsaYfPqFfImBE_4dprs10parameters8TopologyNtNtCsF7gmULBm3O_4pyo311type_object10PyTypeInfo11type_objectB6_, symObjAddr: 0x1208, symBinAddr: 0x1F9E4, symSize: 0x30 }
  - { offsetInCU: 0x2E8E, offset: 0x7759D, size: 0x8, addend: 0x0, symName: __RNvYNtNtCsaYfPqFfImBE_4dprs10parameters9DimensionNtNtCsF7gmULBm3O_4pyo311type_object10PyTypeInfo10is_type_ofB6_, symObjAddr: 0x134C, symBinAddr: 0x1FB28, symSize: 0x50 }
  - { offsetInCU: 0x2EC3, offset: 0x775D2, size: 0x8, addend: 0x0, symName: __RNvYNtNtCsaYfPqFfImBE_4dprs10parameters9DimensionNtNtCsF7gmULBm3O_4pyo311type_object10PyTypeInfo11type_objectB6_, symObjAddr: 0x139C, symBinAddr: 0x1FB78, symSize: 0x30 }
  - { offsetInCU: 0x2F14, offset: 0x77623, size: 0x8, addend: 0x0, symName: __RNvXNtNtCsF7gmULBm3O_4pyo35impl_16extract_argumentNtNtCsaYfPqFfImBE_4dprs10parameters10ParametersINtB2_18PyFunctionArgumentKb1_E7extractBQ_, symObjAddr: 0x820, symBinAddr: 0x1EFFC, symSize: 0x28 }
  - { offsetInCU: 0x2F5F, offset: 0x7766E, size: 0x8, addend: 0x0, symName: __RNvYNtNtCsaYfPqFfImBE_4dprs10parameters10ProcessingNtNtNtCsF7gmULBm3O_4pyo35impl_7pyclass11PyClassImpl11dict_offsetB6_, symObjAddr: 0xF10, symBinAddr: 0x1F6EC, symSize: 0xC }
  - { offsetInCU: 0x2F86, offset: 0x77695, size: 0x8, addend: 0x0, symName: __RNvYNtNtCsaYfPqFfImBE_4dprs10parameters10ProcessingNtNtNtCsF7gmULBm3O_4pyo35impl_7pyclass11PyClassImpl15weaklist_offsetB6_, symObjAddr: 0xF1C, symBinAddr: 0x1F6F8, symSize: 0xC }
  - { offsetInCU: 0x2FAD, offset: 0x776BC, size: 0x8, addend: 0x0, symName: __RNvYNtNtCsaYfPqFfImBE_4dprs10parameters17BoundaryConditionNtNtNtCsF7gmULBm3O_4pyo35impl_7pyclass11PyClassImpl11dict_offsetB6_, symObjAddr: 0x10A4, symBinAddr: 0x1F880, symSize: 0xC }
  - { offsetInCU: 0x2FD4, offset: 0x776E3, size: 0x8, addend: 0x0, symName: __RNvYNtNtCsaYfPqFfImBE_4dprs10parameters17BoundaryConditionNtNtNtCsF7gmULBm3O_4pyo35impl_7pyclass11PyClassImpl15weaklist_offsetB6_, symObjAddr: 0x10B0, symBinAddr: 0x1F88C, symSize: 0xC }
  - { offsetInCU: 0x2FFB, offset: 0x7770A, size: 0x8, addend: 0x0, symName: __RNvYNtNtCsaYfPqFfImBE_4dprs10parameters8TopologyNtNtNtCsF7gmULBm3O_4pyo35impl_7pyclass11PyClassImpl11dict_offsetB6_, symObjAddr: 0x1238, symBinAddr: 0x1FA14, symSize: 0xC }
  - { offsetInCU: 0x3022, offset: 0x77731, size: 0x8, addend: 0x0, symName: __RNvYNtNtCsaYfPqFfImBE_4dprs10parameters8TopologyNtNtNtCsF7gmULBm3O_4pyo35impl_7pyclass11PyClassImpl15weaklist_offsetB6_, symObjAddr: 0x1244, symBinAddr: 0x1FA20, symSize: 0xC }
  - { offsetInCU: 0x3049, offset: 0x77758, size: 0x8, addend: 0x0, symName: __RNvYNtNtCsaYfPqFfImBE_4dprs10parameters9DimensionNtNtNtCsF7gmULBm3O_4pyo35impl_7pyclass11PyClassImpl11dict_offsetB6_, symObjAddr: 0x13CC, symBinAddr: 0x1FBA8, symSize: 0xC }
  - { offsetInCU: 0x3070, offset: 0x7777F, size: 0x8, addend: 0x0, symName: __RNvYNtNtCsaYfPqFfImBE_4dprs10parameters9DimensionNtNtNtCsF7gmULBm3O_4pyo35impl_7pyclass11PyClassImpl15weaklist_offsetB6_, symObjAddr: 0x13D8, symBinAddr: 0x1FBB4, symSize: 0xC }
  - { offsetInCU: 0x3129, offset: 0x77838, size: 0x8, addend: 0x0, symName: __RNvXst_NtNtCsF7gmULBm3O_4pyo35types5tupleTNtNtCsaYfPqFfImBE_4dprs10parameters17BoundaryConditionBE_ENtNtB9_10conversion12FromPyObject7extractBI_, symObjAddr: 0xB28, symBinAddr: 0x1F304, symSize: 0x26C }
  - { offsetInCU: 0x3254, offset: 0x77963, size: 0x8, addend: 0x0, symName: __RNvYNtNtCsaYfPqFfImBE_4dprs10parameters10ProcessingNtNtCsF7gmULBm3O_4pyo310conversion15IntoPyObjectExt11into_py_anyB6_, symObjAddr: 0xDC4, symBinAddr: 0x1F5A0, symSize: 0xCC }
  - { offsetInCU: 0x32E3, offset: 0x779F2, size: 0x8, addend: 0x0, symName: __RNvYNtNtCsaYfPqFfImBE_4dprs10parameters17BoundaryConditionNtNtCsF7gmULBm3O_4pyo310conversion15IntoPyObjectExt11into_py_anyB6_, symObjAddr: 0xF58, symBinAddr: 0x1F734, symSize: 0xCC }
  - { offsetInCU: 0x3372, offset: 0x77A81, size: 0x8, addend: 0x0, symName: __RNvYNtNtCsaYfPqFfImBE_4dprs10parameters8TopologyNtNtCsF7gmULBm3O_4pyo310conversion15IntoPyObjectExt11into_py_anyB6_, symObjAddr: 0x10EC, symBinAddr: 0x1F8C8, symSize: 0xCC }
  - { offsetInCU: 0x3401, offset: 0x77B10, size: 0x8, addend: 0x0, symName: __RNvYNtNtCsaYfPqFfImBE_4dprs10parameters9DimensionNtNtCsF7gmULBm3O_4pyo310conversion15IntoPyObjectExt11into_py_anyB6_, symObjAddr: 0x1280, symBinAddr: 0x1FA5C, symSize: 0xCC }
  - { offsetInCU: 0x1E, offset: 0x788E9, size: 0x8, addend: 0x0, symName: __RNvMs1u_NtNtCs2tD97QJu26F_4core4sync6atomicINtB6_6AtomicjE3newCsaYfPqFfImBE_4dprs, symObjAddr: 0x0, symBinAddr: 0x1FBC0, symSize: 0x18 }
  - { offsetInCU: 0x1B6, offset: 0x78A81, size: 0x8, addend: 0x0, symName: __RNvMs1u_NtNtCs2tD97QJu26F_4core4sync6atomicINtB6_6AtomicjE3newCsaYfPqFfImBE_4dprs, symObjAddr: 0x0, symBinAddr: 0x1FBC0, symSize: 0x18 }
  - { offsetInCU: 0x1E6, offset: 0x78AB1, size: 0x8, addend: 0x0, symName: __RNvMs1u_NtNtCs2tD97QJu26F_4core4sync6atomicINtB6_6AtomicjE4loadCsaYfPqFfImBE_4dprs, symObjAddr: 0x18, symBinAddr: 0x1FBD8, symSize: 0x28 }
  - { offsetInCU: 0x238, offset: 0x78B03, size: 0x8, addend: 0x0, symName: __RNvMs1u_NtNtCs2tD97QJu26F_4core4sync6atomicINtB6_6AtomicjE4swapCsaYfPqFfImBE_4dprs, symObjAddr: 0x40, symBinAddr: 0x1FC00, symSize: 0xD8 }
  - { offsetInCU: 0x1E, offset: 0x78BC3, size: 0x8, addend: 0x0, symName: __RINvXs0_NtNtCslkboY0IC5z6_5rayon4iter3mapINtB6_3MapINtNtBa_5range4IterjENCNvMNtNtCsaYfPqFfImBE_4dprs4life8model_2dINtB1d_14LatticeModel2DNtNtB1f_10life_model9LifeModelE23next_iteration_parallel0ENtB8_16ParallelIterator15drive_unindexedINtNtNtB8_7collect8consumer15CollectConsumerbEEB1h_, symObjAddr: 0x0, symBinAddr: 0x1FCD8, symSize: 0xA8 }
  - { offsetInCU: 0x3F, offset: 0x78BE4, size: 0x8, addend: 0x0, symName: __RINvXs0_NtNtCslkboY0IC5z6_5rayon4iter3mapINtB6_3MapINtNtBa_5range4IterjENCNvMNtNtCsaYfPqFfImBE_4dprs4life8model_2dINtB1d_14LatticeModel2DNtNtB1f_10life_model9LifeModelE23next_iteration_parallel0ENtB8_16ParallelIterator15drive_unindexedINtNtNtB8_7collect8consumer15CollectConsumerbEEB1h_, symObjAddr: 0x0, symBinAddr: 0x1FCD8, symSize: 0xA8 }
  - { offsetInCU: 0xBB, offset: 0x78C60, size: 0x8, addend: 0x0, symName: __RINvXs0_NtNtCslkboY0IC5z6_5rayon4iter3mapINtB6_3MapINtNtBa_5range4IterjENCNvMNtNtCsaYfPqFfImBE_4dprs4life8model_2dINtB1d_14LatticeModel2DNtNtB1f_10life_model9LifeModelE23next_iteration_parallel0ENtB8_16ParallelIterator15drive_unindexedNtNtB8_6extend15ListVecConsumerEB1h_, symObjAddr: 0xA8, symBinAddr: 0x1FD80, symSize: 0x88 }
  - { offsetInCU: 0x137, offset: 0x78CDC, size: 0x8, addend: 0x0, symName: __RNvXs0_NtNtCslkboY0IC5z6_5rayon4iter3mapINtB5_3MapINtNtB9_5range4IterjENCNvMNtNtCsaYfPqFfImBE_4dprs4life8model_2dINtB1c_14LatticeModel2DNtNtB1e_10life_model9LifeModelE23next_iteration_parallel0ENtB7_16ParallelIterator7opt_lenB1g_, symObjAddr: 0x3CC, symBinAddr: 0x200A4, symSize: 0x24 }
  - { offsetInCU: 0x184, offset: 0x78D29, size: 0x8, addend: 0x0, symName: __RINvXs6_NtNtCslkboY0IC5z6_5rayon4iter3mapINtB6_9MapFolderINtNtB8_6extend13ListVecFolderbENCNvMNtNtCsaYfPqFfImBE_4dprs4life8model_2dINtB1u_14LatticeModel2DNtNtB1w_10life_model9LifeModelE23next_iteration_parallel0EINtNtB8_8plumbing6FolderjE12consume_iterINtNtNtCs2tD97QJu26F_4core3ops5range5RangejEEB1y_, symObjAddr: 0x130, symBinAddr: 0x1FE08, symSize: 0xF4 }
  - { offsetInCU: 0x1EC, offset: 0x78D91, size: 0x8, addend: 0x0, symName: __RINvXs6_NtNtCslkboY0IC5z6_5rayon4iter3mapINtB6_9MapFolderINtNtNtB8_7collect8consumer13CollectResultbENCNvMNtNtCsaYfPqFfImBE_4dprs4life8model_2dINtB1G_14LatticeModel2DNtNtB1I_10life_model9LifeModelE23next_iteration_parallel0EINtNtB8_8plumbing6FolderjE12consume_iterINtNtNtCs2tD97QJu26F_4core3ops5range5RangejEEB1K_, symObjAddr: 0x224, symBinAddr: 0x1FEFC, symSize: 0xF4 }
  - { offsetInCU: 0x254, offset: 0x78DF9, size: 0x8, addend: 0x0, symName: __RNvXs6_NtNtCslkboY0IC5z6_5rayon4iter3mapINtB5_9MapFolderINtNtB7_6extend13ListVecFolderbENCNvMNtNtCsaYfPqFfImBE_4dprs4life8model_2dINtB1t_14LatticeModel2DNtNtB1v_10life_model9LifeModelE23next_iteration_parallel0EINtNtB7_8plumbing6FolderjE8completeB1x_, symObjAddr: 0x6C4, symBinAddr: 0x2039C, symSize: 0x34 }
  - { offsetInCU: 0x2A5, offset: 0x78E4A, size: 0x8, addend: 0x0, symName: __RNvXs6_NtNtCslkboY0IC5z6_5rayon4iter3mapINtB5_9MapFolderINtNtNtB7_7collect8consumer13CollectResultbENCNvMNtNtCsaYfPqFfImBE_4dprs4life8model_2dINtB1F_14LatticeModel2DNtNtB1H_10life_model9LifeModelE23next_iteration_parallel0EINtNtB7_8plumbing6FolderjE8completeB1J_, symObjAddr: 0x6F8, symBinAddr: 0x203D0, symSize: 0x34 }
  - { offsetInCU: 0x419, offset: 0x78FBE, size: 0x8, addend: 0x0, symName: __RNvXs4_NtNtCslkboY0IC5z6_5rayon4iter3mapINtB5_11MapConsumerINtNtNtB7_7collect8consumer15CollectConsumerbENCNvMNtNtCsaYfPqFfImBE_4dprs4life8model_2dINtB1K_14LatticeModel2DNtNtB1M_10life_model9LifeModelE23next_iteration_parallel0EINtNtB7_8plumbing8ConsumerjE11into_folderB1O_, symObjAddr: 0x3F0, symBinAddr: 0x200C8, symSize: 0x54 }
  - { offsetInCU: 0x46A, offset: 0x7900F, size: 0x8, addend: 0x0, symName: __RNvXs4_NtNtCslkboY0IC5z6_5rayon4iter3mapINtB5_11MapConsumerINtNtNtB7_7collect8consumer15CollectConsumerbENCNvMNtNtCsaYfPqFfImBE_4dprs4life8model_2dINtB1K_14LatticeModel2DNtNtB1M_10life_model9LifeModelE23next_iteration_parallel0EINtNtB7_8plumbing8ConsumerjE4fullB1O_, symObjAddr: 0x444, symBinAddr: 0x2011C, symSize: 0x24 }
  - { offsetInCU: 0x4BA, offset: 0x7905F, size: 0x8, addend: 0x0, symName: __RNvXs4_NtNtCslkboY0IC5z6_5rayon4iter3mapINtB5_11MapConsumerINtNtNtB7_7collect8consumer15CollectConsumerbENCNvMNtNtCsaYfPqFfImBE_4dprs4life8model_2dINtB1K_14LatticeModel2DNtNtB1M_10life_model9LifeModelE23next_iteration_parallel0EINtNtB7_8plumbing8ConsumerjE8split_atB1O_, symObjAddr: 0x468, symBinAddr: 0x20140, symSize: 0x128 }
  - { offsetInCU: 0x54C, offset: 0x790F1, size: 0x8, addend: 0x0, symName: __RNvXs4_NtNtCslkboY0IC5z6_5rayon4iter3mapINtB5_11MapConsumerNtNtB7_6extend15ListVecConsumerNCNvMNtNtCsaYfPqFfImBE_4dprs4life8model_2dINtB1v_14LatticeModel2DNtNtB1x_10life_model9LifeModelE23next_iteration_parallel0EINtNtB7_8plumbing8ConsumerjE11into_folderB1z_, symObjAddr: 0x590, symBinAddr: 0x20268, symSize: 0x48 }
  - { offsetInCU: 0x59C, offset: 0x79141, size: 0x8, addend: 0x0, symName: __RNvXs4_NtNtCslkboY0IC5z6_5rayon4iter3mapINtB5_11MapConsumerNtNtB7_6extend15ListVecConsumerNCNvMNtNtCsaYfPqFfImBE_4dprs4life8model_2dINtB1v_14LatticeModel2DNtNtB1x_10life_model9LifeModelE23next_iteration_parallel0EINtNtB7_8plumbing8ConsumerjE4fullB1z_, symObjAddr: 0x5D8, symBinAddr: 0x202B0, symSize: 0x24 }
  - { offsetInCU: 0x5EC, offset: 0x79191, size: 0x8, addend: 0x0, symName: __RNvXs4_NtNtCslkboY0IC5z6_5rayon4iter3mapINtB5_11MapConsumerNtNtB7_6extend15ListVecConsumerNCNvMNtNtCsaYfPqFfImBE_4dprs4life8model_2dINtB1v_14LatticeModel2DNtNtB1x_10life_model9LifeModelE23next_iteration_parallel0EINtNtB7_8plumbing8ConsumerjE8split_atB1z_, symObjAddr: 0x5FC, symBinAddr: 0x202D4, symSize: 0xC8 }
  - { offsetInCU: 0x6EA, offset: 0x7928F, size: 0x8, addend: 0x0, symName: __RINvYINtNtNtCslkboY0IC5z6_5rayon4iter3map3MapINtNtBa_5range4IterjENCNvMNtNtCsaYfPqFfImBE_4dprs4life8model_2dINtB17_14LatticeModel2DNtNtB19_10life_model9LifeModelE23next_iteration_parallel0ENtB8_16ParallelIterator7collectINtNtCs9xDkXAC1PNF_5alloc3vec3VecbEEB1b_, symObjAddr: 0x318, symBinAddr: 0x1FFF0, symSize: 0x34 }
  - { offsetInCU: 0x7F1, offset: 0x79396, size: 0x8, addend: 0x0, symName: __RNvXs0_NtCslkboY0IC5z6_5rayon4iterINtNtB5_3map3MapINtNtB7_5range4IterjENCNvMNtNtCsaYfPqFfImBE_4dprs4life8model_2dINtB1c_14LatticeModel2DNtNtB1e_10life_model9LifeModelE23next_iteration_parallel0ENtB5_20IntoParallelIterator13into_par_iterB1g_, symObjAddr: 0x3B4, symBinAddr: 0x2008C, symSize: 0x18 }
  - { offsetInCU: 0xC97, offset: 0x7983C, size: 0x8, addend: 0x0, symName: __RNvMs3_NtNtCslkboY0IC5z6_5rayon4iter3mapINtB5_11MapConsumerINtNtNtB7_7collect8consumer15CollectConsumerbENCNvMNtNtCsaYfPqFfImBE_4dprs4life8model_2dINtB1K_14LatticeModel2DNtNtB1M_10life_model9LifeModelE23next_iteration_parallel0E3newB1O_, symObjAddr: 0x34C, symBinAddr: 0x20024, symSize: 0x2C }
  - { offsetInCU: 0xCD9, offset: 0x7987E, size: 0x8, addend: 0x0, symName: __RNvMs3_NtNtCslkboY0IC5z6_5rayon4iter3mapINtB5_11MapConsumerNtNtB7_6extend15ListVecConsumerNCNvMNtNtCsaYfPqFfImBE_4dprs4life8model_2dINtB1v_14LatticeModel2DNtNtB1x_10life_model9LifeModelE23next_iteration_parallel0E3newB1z_, symObjAddr: 0x378, symBinAddr: 0x20050, symSize: 0x14 }
  - { offsetInCU: 0xD1B, offset: 0x798C0, size: 0x8, addend: 0x0, symName: __RNvMs_NtNtCslkboY0IC5z6_5rayon4iter3mapINtB4_3MapINtNtB8_5range4IterjENCNvMNtNtCsaYfPqFfImBE_4dprs4life8model_2dINtB1b_14LatticeModel2DNtNtB1d_10life_model9LifeModelE23next_iteration_parallel0E3newB1f_, symObjAddr: 0x38C, symBinAddr: 0x20064, symSize: 0x28 }
  - { offsetInCU: 0x1E, offset: 0x799EE, size: 0x8, addend: 0x0, symName: __RINvMs2_NtNtCsbHbxnPY57xw_3std6thread5localINtB6_8LocalKeyNtNtCs9PXnr41oVbh_10rayon_core5latch9LockLatchE4withNCINvMs4_NtBY_8registryNtB1T_8Registry14in_worker_coldNCINvMNtBY_11thread_poolNtB2I_10ThreadPool7installNCNvNtCsaYfPqFfImBE_4dprs2dp14run_simulation0TjINtNtCs9xDkXAC1PNF_5alloc3vec3VecIB4c_bEEEE0B49_E0B49_EB3w_, symObjAddr: 0x0, symBinAddr: 0x20404, symSize: 0x68 }
  - { offsetInCU: 0x21A7, offset: 0x7BB77, size: 0x8, addend: 0x0, symName: __RINvMs2_NtNtCsbHbxnPY57xw_3std6thread5localINtB6_8LocalKeyNtNtCs9PXnr41oVbh_10rayon_core5latch9LockLatchE4withNCINvMs4_NtBY_8registryNtB1T_8Registry14in_worker_coldNCINvMNtBY_11thread_poolNtB2I_10ThreadPool7installNCNvNtCsaYfPqFfImBE_4dprs2dp14run_simulation0TjINtNtCs9xDkXAC1PNF_5alloc3vec3VecIB4c_bEEEE0B49_E0B49_EB3w_, symObjAddr: 0x0, symBinAddr: 0x20404, symSize: 0x68 }
  - { offsetInCU: 0x2213, offset: 0x7BBE3, size: 0x8, addend: 0x0, symName: __RINvMs2_NtNtCsbHbxnPY57xw_3std6thread5localINtB6_8LocalKeyNtNtCs9PXnr41oVbh_10rayon_core5latch9LockLatchE4withNCINvMs4_NtBY_8registryNtB1T_8Registry14in_worker_coldNCINvMNtBY_11thread_poolNtB2I_10ThreadPool7installNCNvNtCsaYfPqFfImBE_4dprs4life14run_simulation0TjINtNtCs9xDkXAC1PNF_5alloc3vec3VecIB4e_bEEEE0B4b_E0B4b_EB3w_, symObjAddr: 0x68, symBinAddr: 0x2046C, symSize: 0x68 }
  - { offsetInCU: 0x2662, offset: 0x7C032, size: 0x8, addend: 0x0, symName: __RINvMs2_NtNtCsbHbxnPY57xw_3std6thread5localINtB6_8LocalKeyNtNtCs9PXnr41oVbh_10rayon_core5latch9LockLatchE4withNCINvMs4_NtBY_8registryNtB1T_8Registry14in_worker_coldNCINvNtBY_4join12join_contextNCINvNvNtNtCslkboY0IC5z6_5rayon4iter8plumbing24bridge_producer_consumer6helperINtNtB3e_9enumerate17EnumerateProducerINtNtNtB3g_5slice6chunks17ChunksMutProducerbEEINtNtB3e_8for_each15ForEachConsumerNCNvMNtNtCsaYfPqFfImBE_4dprs4life8model_2dINtB6l_14LatticeModel2DNtNtB6n_10life_model9LifeModelE31next_iteration_parallel_chunked0EE0NCB37_s_0uuE0TuuEE0B8C_EB6p_, symObjAddr: 0xD0, symBinAddr: 0x204D4, symSize: 0x40 }
  - { offsetInCU: 0x2720, offset: 0x7C0F0, size: 0x8, addend: 0x0, symName: __RINvMs2_NtNtCsbHbxnPY57xw_3std6thread5localINtB6_8LocalKeyNtNtCs9PXnr41oVbh_10rayon_core5latch9LockLatchE4withNCINvMs4_NtBY_8registryNtB1T_8Registry14in_worker_coldNCINvNtBY_4join12join_contextNCINvNvNtNtCslkboY0IC5z6_5rayon4iter8plumbing24bridge_producer_consumer6helperINtNtB3g_5range12IterProducerjEINtNtB3e_3map11MapConsumerINtNtNtB3e_7collect8consumer15CollectConsumerbENCNvMNtNtCsaYfPqFfImBE_4dprs4life8model_2dINtB66_14LatticeModel2DNtNtB68_10life_model9LifeModelE23next_iteration_parallel0EE0NCB37_s_0INtB5j_13CollectResultbEB8b_E0TB8b_B8b_EE0B8F_EB6a_, symObjAddr: 0x110, symBinAddr: 0x20514, symSize: 0x5C }
  - { offsetInCU: 0x27C4, offset: 0x7C194, size: 0x8, addend: 0x0, symName: __RINvMs2_NtNtCsbHbxnPY57xw_3std6thread5localINtB6_8LocalKeyNtNtCs9PXnr41oVbh_10rayon_core5latch9LockLatchE4withNCINvMs4_NtBY_8registryNtB1T_8Registry14in_worker_coldNCINvNtBY_4join12join_contextNCINvNvNtNtCslkboY0IC5z6_5rayon4iter8plumbing24bridge_producer_consumer6helperINtNtB3g_5range12IterProducerjEINtNtB3e_3map11MapConsumerNtNtB3e_6extend15ListVecConsumerNCNvMNtNtCsaYfPqFfImBE_4dprs4life8model_2dINtB5R_14LatticeModel2DNtNtB5T_10life_model9LifeModelE23next_iteration_parallel0EE0NCB37_s_0INtNtNtCs9xDkXAC1PNF_5alloc11collections11linked_list10LinkedListINtNtB83_3vec3VecbEEB7W_E0TB7W_B7W_EE0B9p_EB5V_, symObjAddr: 0x16C, symBinAddr: 0x20570, symSize: 0x5C }
  - { offsetInCU: 0x287E, offset: 0x7C24E, size: 0x8, addend: 0x0, symName: __RINvMs2_NtNtCsbHbxnPY57xw_3std6thread5localINtB6_8LocalKeyNtNtCs9PXnr41oVbh_10rayon_core5latch9LockLatchE8try_withNCINvMs4_NtBY_8registryNtB1X_8Registry14in_worker_coldNCINvMNtBY_11thread_poolNtB2M_10ThreadPool7installNCNvNtCsaYfPqFfImBE_4dprs2dp14run_simulation0TjINtNtCs9xDkXAC1PNF_5alloc3vec3VecIB4g_bEEEE0B4d_E0B4d_EB3A_, symObjAddr: 0x1C8, symBinAddr: 0x205CC, symSize: 0x124 }
  - { offsetInCU: 0x2A06, offset: 0x7C3D6, size: 0x8, addend: 0x0, symName: __RINvMs2_NtNtCsbHbxnPY57xw_3std6thread5localINtB6_8LocalKeyNtNtCs9PXnr41oVbh_10rayon_core5latch9LockLatchE8try_withNCINvMs4_NtBY_8registryNtB1X_8Registry14in_worker_coldNCINvMNtBY_11thread_poolNtB2M_10ThreadPool7installNCNvNtCsaYfPqFfImBE_4dprs4life14run_simulation0TjINtNtCs9xDkXAC1PNF_5alloc3vec3VecIB4i_bEEEE0B4f_E0B4f_EB3A_, symObjAddr: 0x2EC, symBinAddr: 0x206F0, symSize: 0x124 }
  - { offsetInCU: 0x2B8D, offset: 0x7C55D, size: 0x8, addend: 0x0, symName: __RINvMs2_NtNtCsbHbxnPY57xw_3std6thread5localINtB6_8LocalKeyNtNtCs9PXnr41oVbh_10rayon_core5latch9LockLatchE8try_withNCINvMs4_NtBY_8registryNtB1X_8Registry14in_worker_coldNCINvNtBY_4join12join_contextNCINvNvNtNtCslkboY0IC5z6_5rayon4iter8plumbing24bridge_producer_consumer6helperINtNtB3i_9enumerate17EnumerateProducerINtNtNtB3k_5slice6chunks17ChunksMutProducerbEEINtNtB3i_8for_each15ForEachConsumerNCNvMNtNtCsaYfPqFfImBE_4dprs4life8model_2dINtB6p_14LatticeModel2DNtNtB6r_10life_model9LifeModelE31next_iteration_parallel_chunked0EE0NCB3b_s_0uuE0TuuEE0B8G_EB6t_, symObjAddr: 0x410, symBinAddr: 0x20814, symSize: 0x114 }
  - { offsetInCU: 0x2D15, offset: 0x7C6E5, size: 0x8, addend: 0x0, symName: __RINvMs2_NtNtCsbHbxnPY57xw_3std6thread5localINtB6_8LocalKeyNtNtCs9PXnr41oVbh_10rayon_core5latch9LockLatchE8try_withNCINvMs4_NtBY_8registryNtB1X_8Registry14in_worker_coldNCINvNtBY_4join12join_contextNCINvNvNtNtCslkboY0IC5z6_5rayon4iter8plumbing24bridge_producer_consumer6helperINtNtB3k_5range12IterProducerjEINtNtB3i_3map11MapConsumerINtNtNtB3i_7collect8consumer15CollectConsumerbENCNvMNtNtCsaYfPqFfImBE_4dprs4life8model_2dINtB6a_14LatticeModel2DNtNtB6c_10life_model9LifeModelE23next_iteration_parallel0EE0NCB3b_s_0INtB5n_13CollectResultbEB8f_E0TB8f_B8f_EE0B8J_EB6e_, symObjAddr: 0x524, symBinAddr: 0x20928, symSize: 0x11C }
  - { offsetInCU: 0x2E9D, offset: 0x7C86D, size: 0x8, addend: 0x0, symName: __RINvMs2_NtNtCsbHbxnPY57xw_3std6thread5localINtB6_8LocalKeyNtNtCs9PXnr41oVbh_10rayon_core5latch9LockLatchE8try_withNCINvMs4_NtBY_8registryNtB1X_8Registry14in_worker_coldNCINvNtBY_4join12join_contextNCINvNvNtNtCslkboY0IC5z6_5rayon4iter8plumbing24bridge_producer_consumer6helperINtNtB3k_5range12IterProducerjEINtNtB3i_3map11MapConsumerNtNtB3i_6extend15ListVecConsumerNCNvMNtNtCsaYfPqFfImBE_4dprs4life8model_2dINtB5V_14LatticeModel2DNtNtB5X_10life_model9LifeModelE23next_iteration_parallel0EE0NCB3b_s_0INtNtNtCs9xDkXAC1PNF_5alloc11collections11linked_list10LinkedListINtNtB87_3vec3VecbEEB80_E0TB80_B80_EE0B9t_EB5Z_, symObjAddr: 0x640, symBinAddr: 0x20A44, symSize: 0x11C }
  - { offsetInCU: 0x1E, offset: 0x7C9D2, size: 0x8, addend: 0x0, symName: __RNvMNtCs9xDkXAC1PNF_5alloc5allocNtB2_6Global18alloc_impl_runtimeCsaYfPqFfImBE_4dprs, symObjAddr: 0x0, symBinAddr: 0x20B60, symSize: 0x184 }
  - { offsetInCU: 0xEA2, offset: 0x7D856, size: 0x8, addend: 0x0, symName: __RNvXs2_NtCs9xDkXAC1PNF_5alloc5allocNtB5_6GlobalNtNtCs2tD97QJu26F_4core5clone5Clone5cloneCsaYfPqFfImBE_4dprs, symObjAddr: 0x470, symBinAddr: 0x20FD0, symSize: 0x10 }
  - { offsetInCU: 0xF4C, offset: 0x7D900, size: 0x8, addend: 0x0, symName: __RNvMNtCs9xDkXAC1PNF_5alloc5allocNtB2_6Global18alloc_impl_runtimeCsaYfPqFfImBE_4dprs, symObjAddr: 0x0, symBinAddr: 0x20B60, symSize: 0x184 }
  - { offsetInCU: 0x147C, offset: 0x7DE30, size: 0x8, addend: 0x0, symName: __RNvMNtCs9xDkXAC1PNF_5alloc5allocNtB2_6Global19shrink_impl_runtimeCsaYfPqFfImBE_4dprs, symObjAddr: 0x184, symBinAddr: 0x20CE4, symSize: 0x2EC }
  - { offsetInCU: 0x1E, offset: 0x7E46F, size: 0x8, addend: 0x0, symName: __RNvXNtNtNtCs2tD97QJu26F_4core4iter6traits7collectINtNtNtB6_8adapters6copied6CopiedINtNtNtB8_5slice4iter4IterINtNtCsF7gmULBm3O_4pyo38instance8BorrowedNtNtNtB1N_5types3any5PyAnyEEENtB2_12IntoIterator9into_iterCsaYfPqFfImBE_4dprs, symObjAddr: 0x0, symBinAddr: 0x20FE0, symSize: 0x1C }
  - { offsetInCU: 0x853, offset: 0x7ECA4, size: 0x8, addend: 0x0, symName: __RNvXNtNtNtCs2tD97QJu26F_4core4iter6traits7collectINtNtNtB6_8adapters6copied6CopiedINtNtNtB8_5slice4iter4IterINtNtCsF7gmULBm3O_4pyo38instance8BorrowedNtNtNtB1N_5types3any5PyAnyEEENtB2_12IntoIterator9into_iterCsaYfPqFfImBE_4dprs, symObjAddr: 0x0, symBinAddr: 0x20FE0, symSize: 0x1C }
  - { offsetInCU: 0x89C, offset: 0x7ECED, size: 0x8, addend: 0x0, symName: __RNvXs_NtNtNtCs2tD97QJu26F_4core4iter8adapters6copiedINtB4_6CopiedINtNtNtBa_5slice4iter4IterINtNtCsF7gmULBm3O_4pyo38instance8BorrowedNtNtNtB1w_5types3any5PyAnyEEENtNtNtB8_6traits8iterator8Iterator4nextCsaYfPqFfImBE_4dprs, symObjAddr: 0x1C, symBinAddr: 0x20FFC, symSize: 0x5C }
  - { offsetInCU: 0x1E, offset: 0x7FE63, size: 0x8, addend: 0x0, symName: __RINvMs0_NtCs9PXnr41oVbh_10rayon_core3jobNtB6_6JobRef3newINtB6_8StackJobINtNtB8_5latch8LatchRefNtB1a_9LockLatchENCNCINvMs4_NtB8_8registryNtB1W_8Registry14in_worker_coldNCINvMNtB8_11thread_poolNtB2L_10ThreadPool7installNCNvNtCsaYfPqFfImBE_4dprs2dp14run_simulation0TjINtNtCs9xDkXAC1PNF_5alloc3vec3VecIB4f_bEEEE0B4c_E00B4c_EEB3z_, symObjAddr: 0x0, symBinAddr: 0x21058, symSize: 0x20 }
  - { offsetInCU: 0x191B, offset: 0x81760, size: 0x8, addend: 0x0, symName: __RNCINvMs7_NtCs9PXnr41oVbh_10rayon_core3jobINtB8_9JobResultINtNtNtCs9xDkXAC1PNF_5alloc11collections11linked_list10LinkedListINtNtB11_3vec3VecbEEE4callNCINvNvNtBa_4join12join_context6call_bBU_NCINvNvNtNtCslkboY0IC5z6_5rayon4iter8plumbing24bridge_producer_consumer6helperINtNtB3d_5range12IterProducerjEINtNtB3b_3map11MapConsumerNtNtB3b_6extend15ListVecConsumerNCNvMNtNtCsaYfPqFfImBE_4dprs4life8model_2dINtB5O_14LatticeModel2DNtNtB5Q_10life_model9LifeModelE23next_iteration_parallel0EEs_0E0E0B5S_, symObjAddr: 0xA60, symBinAddr: 0x21AB8, symSize: 0x48 }
  - { offsetInCU: 0x195B, offset: 0x817A0, size: 0x8, addend: 0x0, symName: __RNCINvMs7_NtCs9PXnr41oVbh_10rayon_core3jobINtB8_9JobResultINtNtNtNtCslkboY0IC5z6_5rayon4iter7collect8consumer13CollectResultbEE4callNCINvNvNtBa_4join12join_context6call_bBU_NCINvNvNtB11_8plumbing24bridge_producer_consumer6helperINtNtB13_5range12IterProducerjEINtNtB11_3map11MapConsumerINtBX_15CollectConsumerbENCNvMNtNtCsaYfPqFfImBE_4dprs4life8model_2dINtB53_14LatticeModel2DNtNtB55_10life_model9LifeModelE23next_iteration_parallel0EEs_0E0E0B57_, symObjAddr: 0xAA8, symBinAddr: 0x21B00, symSize: 0x48 }
  - { offsetInCU: 0x199B, offset: 0x817E0, size: 0x8, addend: 0x0, symName: __RNCINvMs7_NtCs9PXnr41oVbh_10rayon_core3jobINtB8_9JobResultTINtNtNtCs9xDkXAC1PNF_5alloc11collections11linked_list10LinkedListINtNtB12_3vec3VecbEEBV_EE4callNCINvMs4_NtBa_8registryNtB2B_8Registry15in_worker_crossNCINvNtBa_4join12join_contextNCINvNvNtNtCslkboY0IC5z6_5rayon4iter8plumbing24bridge_producer_consumer6helperINtNtB3Z_5range12IterProducerjEINtNtB3X_3map11MapConsumerNtNtB3X_6extend15ListVecConsumerNCNvMNtNtCsaYfPqFfImBE_4dprs4life8model_2dINtB6A_14LatticeModel2DNtNtB6C_10life_model9LifeModelE23next_iteration_parallel0EE0NCB3Q_s_0BV_BV_E0BU_E0E0B6E_, symObjAddr: 0xAF0, symBinAddr: 0x21B48, symSize: 0x48 }
  - { offsetInCU: 0x19DB, offset: 0x81820, size: 0x8, addend: 0x0, symName: __RNCINvMs7_NtCs9PXnr41oVbh_10rayon_core3jobINtB8_9JobResultTINtNtNtCs9xDkXAC1PNF_5alloc11collections11linked_list10LinkedListINtNtB12_3vec3VecbEEBV_EE4callNCNCINvMs4_NtBa_8registryNtB2D_8Registry14in_worker_coldNCINvNtBa_4join12join_contextNCINvNvNtNtCslkboY0IC5z6_5rayon4iter8plumbing24bridge_producer_consumer6helperINtNtB40_5range12IterProducerjEINtNtB3Y_3map11MapConsumerNtNtB3Y_6extend15ListVecConsumerNCNvMNtNtCsaYfPqFfImBE_4dprs4life8model_2dINtB6B_14LatticeModel2DNtNtB6D_10life_model9LifeModelE23next_iteration_parallel0EE0NCB3R_s_0BV_BV_E0BU_E00E0B6F_, symObjAddr: 0xB38, symBinAddr: 0x21B90, symSize: 0x48 }
  - { offsetInCU: 0x1A1B, offset: 0x81860, size: 0x8, addend: 0x0, symName: __RNCINvMs7_NtCs9PXnr41oVbh_10rayon_core3jobINtB8_9JobResultTINtNtNtNtCslkboY0IC5z6_5rayon4iter7collect8consumer13CollectResultbEBV_EE4callNCINvMs4_NtBa_8registryNtB2k_8Registry15in_worker_crossNCINvNtBa_4join12join_contextNCINvNvNtB12_8plumbing24bridge_producer_consumer6helperINtNtB14_5range12IterProducerjEINtNtB12_3map11MapConsumerINtBY_15CollectConsumerbENCNvMNtNtCsaYfPqFfImBE_4dprs4life8model_2dINtB5P_14LatticeModel2DNtNtB5R_10life_model9LifeModelE23next_iteration_parallel0EE0NCB3z_s_0BV_BV_E0BU_E0E0B5T_, symObjAddr: 0xB80, symBinAddr: 0x21BD8, symSize: 0x48 }
  - { offsetInCU: 0x1A5B, offset: 0x818A0, size: 0x8, addend: 0x0, symName: __RNCINvMs7_NtCs9PXnr41oVbh_10rayon_core3jobINtB8_9JobResultTINtNtNtNtCslkboY0IC5z6_5rayon4iter7collect8consumer13CollectResultbEBV_EE4callNCNCINvMs4_NtBa_8registryNtB2m_8Registry14in_worker_coldNCINvNtBa_4join12join_contextNCINvNvNtB12_8plumbing24bridge_producer_consumer6helperINtNtB14_5range12IterProducerjEINtNtB12_3map11MapConsumerINtBY_15CollectConsumerbENCNvMNtNtCsaYfPqFfImBE_4dprs4life8model_2dINtB5Q_14LatticeModel2DNtNtB5S_10life_model9LifeModelE23next_iteration_parallel0EE0NCB3A_s_0BV_BV_E0BU_E00E0B5U_, symObjAddr: 0xBC8, symBinAddr: 0x21C20, symSize: 0x48 }
  - { offsetInCU: 0x1A9B, offset: 0x818E0, size: 0x8, addend: 0x0, symName: __RNCINvMs7_NtCs9PXnr41oVbh_10rayon_core3jobINtB8_9JobResultTjINtNtCs9xDkXAC1PNF_5alloc3vec3VecIBX_bEEEE4callNCINvMs4_NtBa_8registryNtB1Q_8Registry15in_worker_crossNCINvMNtBa_11thread_poolNtB2G_10ThreadPool7installNCNvNtCsaYfPqFfImBE_4dprs2dp14run_simulation0BU_E0BU_E0E0B3u_, symObjAddr: 0xC10, symBinAddr: 0x21C68, symSize: 0x48 }
  - { offsetInCU: 0x1ADB, offset: 0x81920, size: 0x8, addend: 0x0, symName: __RNCINvMs7_NtCs9PXnr41oVbh_10rayon_core3jobINtB8_9JobResultTjINtNtCs9xDkXAC1PNF_5alloc3vec3VecIBX_bEEEE4callNCINvMs4_NtBa_8registryNtB1Q_8Registry15in_worker_crossNCINvMNtBa_11thread_poolNtB2G_10ThreadPool7installNCNvNtCsaYfPqFfImBE_4dprs4life14run_simulation0BU_E0BU_E0E0B3u_, symObjAddr: 0xC58, symBinAddr: 0x21CB0, symSize: 0x48 }
  - { offsetInCU: 0x1B1B, offset: 0x81960, size: 0x8, addend: 0x0, symName: __RNCINvMs7_NtCs9PXnr41oVbh_10rayon_core3jobINtB8_9JobResultTjINtNtCs9xDkXAC1PNF_5alloc3vec3VecIBX_bEEEE4callNCNCINvMs4_NtBa_8registryNtB1S_8Registry14in_worker_coldNCINvMNtBa_11thread_poolNtB2H_10ThreadPool7installNCNvNtCsaYfPqFfImBE_4dprs2dp14run_simulation0BU_E0BU_E00E0B3v_, symObjAddr: 0xCA0, symBinAddr: 0x21CF8, symSize: 0x48 }
  - { offsetInCU: 0x1B5B, offset: 0x819A0, size: 0x8, addend: 0x0, symName: __RNCINvMs7_NtCs9PXnr41oVbh_10rayon_core3jobINtB8_9JobResultTjINtNtCs9xDkXAC1PNF_5alloc3vec3VecIBX_bEEEE4callNCNCINvMs4_NtBa_8registryNtB1S_8Registry14in_worker_coldNCINvMNtBa_11thread_poolNtB2H_10ThreadPool7installNCNvNtCsaYfPqFfImBE_4dprs4life14run_simulation0BU_E0BU_E00E0B3v_, symObjAddr: 0xCE8, symBinAddr: 0x21D40, symSize: 0x48 }
  - { offsetInCU: 0x1B9B, offset: 0x819E0, size: 0x8, addend: 0x0, symName: __RNCINvMs7_NtCs9PXnr41oVbh_10rayon_core3jobINtB8_9JobResultTuuEE4callNCINvMs4_NtBa_8registryNtB1d_8Registry15in_worker_crossNCINvNtBa_4join12join_contextNCINvNvNtNtCslkboY0IC5z6_5rayon4iter8plumbing24bridge_producer_consumer6helperINtNtB2z_9enumerate17EnumerateProducerINtNtNtB2B_5slice6chunks17ChunksMutProducerbEEINtNtB2z_8for_each15ForEachConsumerNCNvMNtNtCsaYfPqFfImBE_4dprs4life8model_2dINtB5G_14LatticeModel2DNtNtB5I_10life_model9LifeModelE31next_iteration_parallel_chunked0EE0NCB2s_s_0uuE0BU_E0E0B5K_, symObjAddr: 0xD30, symBinAddr: 0x21D88, symSize: 0x40 }
  - { offsetInCU: 0x1BD7, offset: 0x81A1C, size: 0x8, addend: 0x0, symName: __RNCINvMs7_NtCs9PXnr41oVbh_10rayon_core3jobINtB8_9JobResultTuuEE4callNCNCINvMs4_NtBa_8registryNtB1f_8Registry14in_worker_coldNCINvNtBa_4join12join_contextNCINvNvNtNtCslkboY0IC5z6_5rayon4iter8plumbing24bridge_producer_consumer6helperINtNtB2A_9enumerate17EnumerateProducerINtNtNtB2C_5slice6chunks17ChunksMutProducerbEEINtNtB2A_8for_each15ForEachConsumerNCNvMNtNtCsaYfPqFfImBE_4dprs4life8model_2dINtB5H_14LatticeModel2DNtNtB5J_10life_model9LifeModelE31next_iteration_parallel_chunked0EE0NCB2t_s_0uuE0BU_E00E0B5L_, symObjAddr: 0xD70, symBinAddr: 0x21DC8, symSize: 0x40 }
  - { offsetInCU: 0x1C13, offset: 0x81A58, size: 0x8, addend: 0x0, symName: __RNCINvMs7_NtCs9PXnr41oVbh_10rayon_core3jobINtB8_9JobResultuE4callNCINvNvNtBa_4join12join_context6call_buNCINvNvNtNtCslkboY0IC5z6_5rayon4iter8plumbing24bridge_producer_consumer6helperINtNtB1N_9enumerate17EnumerateProducerINtNtNtB1P_5slice6chunks17ChunksMutProducerbEEINtNtB1N_8for_each15ForEachConsumerNCNvMNtNtCsaYfPqFfImBE_4dprs4life8model_2dINtB4U_14LatticeModel2DNtNtB4W_10life_model9LifeModelE31next_iteration_parallel_chunked0EEs_0E0E0B4Y_, symObjAddr: 0xDB0, symBinAddr: 0x21E08, symSize: 0x40 }
  - { offsetInCU: 0x1C56, offset: 0x81A9B, size: 0x8, addend: 0x0, symName: __RNvXs2_NtCs9PXnr41oVbh_10rayon_core3jobINtB5_8StackJobINtNtB7_5latch8LatchRefNtBT_9LockLatchENCNCINvMs4_NtB7_8registryNtB1E_8Registry14in_worker_coldNCINvMNtB7_11thread_poolNtB2t_10ThreadPool7installNCNvNtCsaYfPqFfImBE_4dprs2dp14run_simulation0TjINtNtCs9xDkXAC1PNF_5alloc3vec3VecIB3X_bEEEE0B3U_E00B3U_ENtB5_3Job7executeB3h_, symObjAddr: 0x2624, symBinAddr: 0x2367C, symSize: 0x2F4 }
  - { offsetInCU: 0x1D34, offset: 0x81B79, size: 0x8, addend: 0x0, symName: __RNvXs2_NtCs9PXnr41oVbh_10rayon_core3jobINtB5_8StackJobINtNtB7_5latch8LatchRefNtBT_9LockLatchENCNCINvMs4_NtB7_8registryNtB1E_8Registry14in_worker_coldNCINvMNtB7_11thread_poolNtB2t_10ThreadPool7installNCNvNtCsaYfPqFfImBE_4dprs4life14run_simulation0TjINtNtCs9xDkXAC1PNF_5alloc3vec3VecIB3Z_bEEEE0B3W_E00B3W_ENtB5_3Job7executeB3h_, symObjAddr: 0x2918, symBinAddr: 0x23970, symSize: 0x2F4 }
  - { offsetInCU: 0x1E12, offset: 0x81C57, size: 0x8, addend: 0x0, symName: __RNvXs2_NtCs9PXnr41oVbh_10rayon_core3jobINtB5_8StackJobINtNtB7_5latch8LatchRefNtBT_9LockLatchENCNCINvMs4_NtB7_8registryNtB1E_8Registry14in_worker_coldNCINvNtB7_4join12join_contextNCINvNvNtNtCslkboY0IC5z6_5rayon4iter8plumbing24bridge_producer_consumer6helperINtNtB2Z_9enumerate17EnumerateProducerINtNtNtB31_5slice6chunks17ChunksMutProducerbEEINtNtB2Z_8for_each15ForEachConsumerNCNvMNtNtCsaYfPqFfImBE_4dprs4life8model_2dINtB66_14LatticeModel2DNtNtB68_10life_model9LifeModelE31next_iteration_parallel_chunked0EE0NCB2S_s_0uuE0TuuEE00B8n_ENtB5_3Job7executeB6a_, symObjAddr: 0x2C0C, symBinAddr: 0x23C64, symSize: 0x2F4 }
  - { offsetInCU: 0x1EF0, offset: 0x81D35, size: 0x8, addend: 0x0, symName: __RNvXs2_NtCs9PXnr41oVbh_10rayon_core3jobINtB5_8StackJobINtNtB7_5latch8LatchRefNtBT_9LockLatchENCNCINvMs4_NtB7_8registryNtB1E_8Registry14in_worker_coldNCINvNtB7_4join12join_contextNCINvNvNtNtCslkboY0IC5z6_5rayon4iter8plumbing24bridge_producer_consumer6helperINtNtB31_5range12IterProducerjEINtNtB2Z_3map11MapConsumerINtNtNtB2Z_7collect8consumer15CollectConsumerbENCNvMNtNtCsaYfPqFfImBE_4dprs4life8model_2dINtB5R_14LatticeModel2DNtNtB5T_10life_model9LifeModelE23next_iteration_parallel0EE0NCB2S_s_0INtB54_13CollectResultbEB7W_E0TB7W_B7W_EE00B8q_ENtB5_3Job7executeB5V_, symObjAddr: 0x2F00, symBinAddr: 0x23F58, symSize: 0x2E4 }
  - { offsetInCU: 0x1FCE, offset: 0x81E13, size: 0x8, addend: 0x0, symName: __RNvXs2_NtCs9PXnr41oVbh_10rayon_core3jobINtB5_8StackJobINtNtB7_5latch8LatchRefNtBT_9LockLatchENCNCINvMs4_NtB7_8registryNtB1E_8Registry14in_worker_coldNCINvNtB7_4join12join_contextNCINvNvNtNtCslkboY0IC5z6_5rayon4iter8plumbing24bridge_producer_consumer6helperINtNtB31_5range12IterProducerjEINtNtB2Z_3map11MapConsumerNtNtB2Z_6extend15ListVecConsumerNCNvMNtNtCsaYfPqFfImBE_4dprs4life8model_2dINtB5C_14LatticeModel2DNtNtB5E_10life_model9LifeModelE23next_iteration_parallel0EE0NCB2S_s_0INtNtNtCs9xDkXAC1PNF_5alloc11collections11linked_list10LinkedListINtNtB7O_3vec3VecbEEB7H_E0TB7H_B7H_EE00B9a_ENtB5_3Job7executeB5G_, symObjAddr: 0x31E4, symBinAddr: 0x2423C, symSize: 0x2E4 }
  - { offsetInCU: 0x20AC, offset: 0x81EF1, size: 0x8, addend: 0x0, symName: __RNvXs2_NtCs9PXnr41oVbh_10rayon_core3jobINtB5_8StackJobNtNtB7_5latch9SpinLatchNCINvMs4_NtB7_8registryNtB1m_8Registry15in_worker_crossNCINvMNtB7_11thread_poolNtB2c_10ThreadPool7installNCNvNtCsaYfPqFfImBE_4dprs2dp14run_simulation0TjINtNtCs9xDkXAC1PNF_5alloc3vec3VecIB3G_bEEEE0B3D_E0B3D_ENtB5_3Job7executeB30_, symObjAddr: 0x34C8, symBinAddr: 0x24520, symSize: 0x2F4 }
  - { offsetInCU: 0x218A, offset: 0x81FCF, size: 0x8, addend: 0x0, symName: __RNvXs2_NtCs9PXnr41oVbh_10rayon_core3jobINtB5_8StackJobNtNtB7_5latch9SpinLatchNCINvMs4_NtB7_8registryNtB1m_8Registry15in_worker_crossNCINvMNtB7_11thread_poolNtB2c_10ThreadPool7installNCNvNtCsaYfPqFfImBE_4dprs4life14run_simulation0TjINtNtCs9xDkXAC1PNF_5alloc3vec3VecIB3I_bEEEE0B3F_E0B3F_ENtB5_3Job7executeB30_, symObjAddr: 0x37BC, symBinAddr: 0x24814, symSize: 0x2F4 }
  - { offsetInCU: 0x2268, offset: 0x820AD, size: 0x8, addend: 0x0, symName: __RNvXs2_NtCs9PXnr41oVbh_10rayon_core3jobINtB5_8StackJobNtNtB7_5latch9SpinLatchNCINvMs4_NtB7_8registryNtB1m_8Registry15in_worker_crossNCINvNtB7_4join12join_contextNCINvNvNtNtCslkboY0IC5z6_5rayon4iter8plumbing24bridge_producer_consumer6helperINtNtB2I_9enumerate17EnumerateProducerINtNtNtB2K_5slice6chunks17ChunksMutProducerbEEINtNtB2I_8for_each15ForEachConsumerNCNvMNtNtCsaYfPqFfImBE_4dprs4life8model_2dINtB5P_14LatticeModel2DNtNtB5R_10life_model9LifeModelE31next_iteration_parallel_chunked0EE0NCB2B_s_0uuE0TuuEE0B86_ENtB5_3Job7executeB5T_, symObjAddr: 0x3AB0, symBinAddr: 0x24B08, symSize: 0x2F0 }
  - { offsetInCU: 0x2346, offset: 0x8218B, size: 0x8, addend: 0x0, symName: __RNvXs2_NtCs9PXnr41oVbh_10rayon_core3jobINtB5_8StackJobNtNtB7_5latch9SpinLatchNCINvMs4_NtB7_8registryNtB1m_8Registry15in_worker_crossNCINvNtB7_4join12join_contextNCINvNvNtNtCslkboY0IC5z6_5rayon4iter8plumbing24bridge_producer_consumer6helperINtNtB2K_5range12IterProducerjEINtNtB2I_3map11MapConsumerINtNtNtB2I_7collect8consumer15CollectConsumerbENCNvMNtNtCsaYfPqFfImBE_4dprs4life8model_2dINtB5A_14LatticeModel2DNtNtB5C_10life_model9LifeModelE23next_iteration_parallel0EE0NCB2B_s_0INtB4N_13CollectResultbEB7F_E0TB7F_B7F_EE0B89_ENtB5_3Job7executeB5E_, symObjAddr: 0x3DA0, symBinAddr: 0x24DF8, symSize: 0x2DC }
  - { offsetInCU: 0x2424, offset: 0x82269, size: 0x8, addend: 0x0, symName: __RNvXs2_NtCs9PXnr41oVbh_10rayon_core3jobINtB5_8StackJobNtNtB7_5latch9SpinLatchNCINvMs4_NtB7_8registryNtB1m_8Registry15in_worker_crossNCINvNtB7_4join12join_contextNCINvNvNtNtCslkboY0IC5z6_5rayon4iter8plumbing24bridge_producer_consumer6helperINtNtB2K_5range12IterProducerjEINtNtB2I_3map11MapConsumerNtNtB2I_6extend15ListVecConsumerNCNvMNtNtCsaYfPqFfImBE_4dprs4life8model_2dINtB5l_14LatticeModel2DNtNtB5n_10life_model9LifeModelE23next_iteration_parallel0EE0NCB2B_s_0INtNtNtCs9xDkXAC1PNF_5alloc11collections11linked_list10LinkedListINtNtB7x_3vec3VecbEEB7q_E0TB7q_B7q_EE0B8T_ENtB5_3Job7executeB5p_, symObjAddr: 0x407C, symBinAddr: 0x250D4, symSize: 0x2DC }
  - { offsetInCU: 0x2502, offset: 0x82347, size: 0x8, addend: 0x0, symName: __RNvXs2_NtCs9PXnr41oVbh_10rayon_core3jobINtB5_8StackJobNtNtB7_5latch9SpinLatchNCINvNvNtB7_4join12join_context6call_bINtNtNtCs9xDkXAC1PNF_5alloc11collections11linked_list10LinkedListINtNtB1W_3vec3VecbEENCINvNvNtNtCslkboY0IC5z6_5rayon4iter8plumbing24bridge_producer_consumer6helperINtNtB3n_5range12IterProducerjEINtNtB3l_3map11MapConsumerNtNtB3l_6extend15ListVecConsumerNCNvMNtNtCsaYfPqFfImBE_4dprs4life8model_2dINtB5Y_14LatticeModel2DNtNtB60_10life_model9LifeModelE23next_iteration_parallel0EEs_0E0B1P_ENtB5_3Job7executeB62_, symObjAddr: 0x4358, symBinAddr: 0x253B0, symSize: 0x2E8 }
  - { offsetInCU: 0x25E0, offset: 0x82425, size: 0x8, addend: 0x0, symName: __RNvXs2_NtCs9PXnr41oVbh_10rayon_core3jobINtB5_8StackJobNtNtB7_5latch9SpinLatchNCINvNvNtB7_4join12join_context6call_bINtNtNtNtCslkboY0IC5z6_5rayon4iter7collect8consumer13CollectResultbENCINvNvNtB1W_8plumbing24bridge_producer_consumer6helperINtNtB1Y_5range12IterProducerjEINtNtB1W_3map11MapConsumerINtB1S_15CollectConsumerbENCNvMNtNtCsaYfPqFfImBE_4dprs4life8model_2dINtB5e_14LatticeModel2DNtNtB5g_10life_model9LifeModelE23next_iteration_parallel0EEs_0E0B1P_ENtB5_3Job7executeB5i_, symObjAddr: 0x4640, symBinAddr: 0x25698, symSize: 0x2F0 }
  - { offsetInCU: 0x26BE, offset: 0x82503, size: 0x8, addend: 0x0, symName: __RNvXs2_NtCs9PXnr41oVbh_10rayon_core3jobINtB5_8StackJobNtNtB7_5latch9SpinLatchNCINvNvNtB7_4join12join_context6call_buNCINvNvNtNtCslkboY0IC5z6_5rayon4iter8plumbing24bridge_producer_consumer6helperINtNtB1Z_9enumerate17EnumerateProducerINtNtNtB21_5slice6chunks17ChunksMutProducerbEEINtNtB1Z_8for_each15ForEachConsumerNCNvMNtNtCsaYfPqFfImBE_4dprs4life8model_2dINtB56_14LatticeModel2DNtNtB58_10life_model9LifeModelE31next_iteration_parallel_chunked0EEs_0E0uENtB5_3Job7executeB5a_, symObjAddr: 0x4930, symBinAddr: 0x25988, symSize: 0x2F0 }
  - { offsetInCU: 0x4927, offset: 0x8476C, size: 0x8, addend: 0x0, symName: __RINvMs0_NtCs9PXnr41oVbh_10rayon_core3jobNtB6_6JobRef3newINtB6_8StackJobINtNtB8_5latch8LatchRefNtB1a_9LockLatchENCNCINvMs4_NtB8_8registryNtB1W_8Registry14in_worker_coldNCINvMNtB8_11thread_poolNtB2L_10ThreadPool7installNCNvNtCsaYfPqFfImBE_4dprs2dp14run_simulation0TjINtNtCs9xDkXAC1PNF_5alloc3vec3VecIB4f_bEEEE0B4c_E00B4c_EEB3z_, symObjAddr: 0x0, symBinAddr: 0x21058, symSize: 0x20 }
  - { offsetInCU: 0x495F, offset: 0x847A4, size: 0x8, addend: 0x0, symName: __RINvMs0_NtCs9PXnr41oVbh_10rayon_core3jobNtB6_6JobRef3newINtB6_8StackJobINtNtB8_5latch8LatchRefNtB1a_9LockLatchENCNCINvMs4_NtB8_8registryNtB1W_8Registry14in_worker_coldNCINvMNtB8_11thread_poolNtB2L_10ThreadPool7installNCNvNtCsaYfPqFfImBE_4dprs4life14run_simulation0TjINtNtCs9xDkXAC1PNF_5alloc3vec3VecIB4h_bEEEE0B4e_E00B4e_EEB3z_, symObjAddr: 0x20, symBinAddr: 0x21078, symSize: 0x20 }
  - { offsetInCU: 0x4D7A, offset: 0x84BBF, size: 0x8, addend: 0x0, symName: __RINvMs0_NtCs9PXnr41oVbh_10rayon_core3jobNtB6_6JobRef3newINtB6_8StackJobINtNtB8_5latch8LatchRefNtB1a_9LockLatchENCNCINvMs4_NtB8_8registryNtB1W_8Registry14in_worker_coldNCINvNtB8_4join12join_contextNCINvNvNtNtCslkboY0IC5z6_5rayon4iter8plumbing24bridge_producer_consumer6helperINtNtB3h_9enumerate17EnumerateProducerINtNtNtB3j_5slice6chunks17ChunksMutProducerbEEINtNtB3h_8for_each15ForEachConsumerNCNvMNtNtCsaYfPqFfImBE_4dprs4life8model_2dINtB6o_14LatticeModel2DNtNtB6q_10life_model9LifeModelE31next_iteration_parallel_chunked0EE0NCB3a_s_0uuE0TuuEE00B8F_EEB6s_, symObjAddr: 0x40, symBinAddr: 0x21098, symSize: 0x20 }
  - { offsetInCU: 0x4E04, offset: 0x84C49, size: 0x8, addend: 0x0, symName: __RINvMs0_NtCs9PXnr41oVbh_10rayon_core3jobNtB6_6JobRef3newINtB6_8StackJobINtNtB8_5latch8LatchRefNtB1a_9LockLatchENCNCINvMs4_NtB8_8registryNtB1W_8Registry14in_worker_coldNCINvNtB8_4join12join_contextNCINvNvNtNtCslkboY0IC5z6_5rayon4iter8plumbing24bridge_producer_consumer6helperINtNtB3j_5range12IterProducerjEINtNtB3h_3map11MapConsumerINtNtNtB3h_7collect8consumer15CollectConsumerbENCNvMNtNtCsaYfPqFfImBE_4dprs4life8model_2dINtB69_14LatticeModel2DNtNtB6b_10life_model9LifeModelE23next_iteration_parallel0EE0NCB3a_s_0INtB5m_13CollectResultbEB8e_E0TB8e_B8e_EE00B8I_EEB6d_, symObjAddr: 0x60, symBinAddr: 0x210B8, symSize: 0x20 }
  - { offsetInCU: 0x4E74, offset: 0x84CB9, size: 0x8, addend: 0x0, symName: __RINvMs0_NtCs9PXnr41oVbh_10rayon_core3jobNtB6_6JobRef3newINtB6_8StackJobINtNtB8_5latch8LatchRefNtB1a_9LockLatchENCNCINvMs4_NtB8_8registryNtB1W_8Registry14in_worker_coldNCINvNtB8_4join12join_contextNCINvNvNtNtCslkboY0IC5z6_5rayon4iter8plumbing24bridge_producer_consumer6helperINtNtB3j_5range12IterProducerjEINtNtB3h_3map11MapConsumerNtNtB3h_6extend15ListVecConsumerNCNvMNtNtCsaYfPqFfImBE_4dprs4life8model_2dINtB5U_14LatticeModel2DNtNtB5W_10life_model9LifeModelE23next_iteration_parallel0EE0NCB3a_s_0INtNtNtCs9xDkXAC1PNF_5alloc11collections11linked_list10LinkedListINtNtB86_3vec3VecbEEB7Z_E0TB7Z_B7Z_EE00B9s_EEB5Y_, symObjAddr: 0x80, symBinAddr: 0x210D8, symSize: 0x20 }
  - { offsetInCU: 0x5051, offset: 0x84E96, size: 0x8, addend: 0x0, symName: __RINvMs0_NtCs9PXnr41oVbh_10rayon_core3jobNtB6_6JobRef3newINtB6_8StackJobNtNtB8_5latch9SpinLatchNCINvMs4_NtB8_8registryNtB1D_8Registry15in_worker_crossNCINvMNtB8_11thread_poolNtB2t_10ThreadPool7installNCNvNtCsaYfPqFfImBE_4dprs2dp14run_simulation0TjINtNtCs9xDkXAC1PNF_5alloc3vec3VecIB3X_bEEEE0B3U_E0B3U_EEB3h_, symObjAddr: 0xA0, symBinAddr: 0x210F8, symSize: 0x20 }
  - { offsetInCU: 0x5089, offset: 0x84ECE, size: 0x8, addend: 0x0, symName: __RINvMs0_NtCs9PXnr41oVbh_10rayon_core3jobNtB6_6JobRef3newINtB6_8StackJobNtNtB8_5latch9SpinLatchNCINvMs4_NtB8_8registryNtB1D_8Registry15in_worker_crossNCINvMNtB8_11thread_poolNtB2t_10ThreadPool7installNCNvNtCsaYfPqFfImBE_4dprs4life14run_simulation0TjINtNtCs9xDkXAC1PNF_5alloc3vec3VecIB3Z_bEEEE0B3W_E0B3W_EEB3h_, symObjAddr: 0xC0, symBinAddr: 0x21118, symSize: 0x20 }
  - { offsetInCU: 0x50C1, offset: 0x84F06, size: 0x8, addend: 0x0, symName: __RINvMs0_NtCs9PXnr41oVbh_10rayon_core3jobNtB6_6JobRef3newINtB6_8StackJobNtNtB8_5latch9SpinLatchNCINvMs4_NtB8_8registryNtB1D_8Registry15in_worker_crossNCINvNtB8_4join12join_contextNCINvNvNtNtCslkboY0IC5z6_5rayon4iter8plumbing24bridge_producer_consumer6helperINtNtB2Z_9enumerate17EnumerateProducerINtNtNtB31_5slice6chunks17ChunksMutProducerbEEINtNtB2Z_8for_each15ForEachConsumerNCNvMNtNtCsaYfPqFfImBE_4dprs4life8model_2dINtB66_14LatticeModel2DNtNtB68_10life_model9LifeModelE31next_iteration_parallel_chunked0EE0NCB2S_s_0uuE0TuuEE0B8n_EEB6a_, symObjAddr: 0xE0, symBinAddr: 0x21138, symSize: 0x20 }
  - { offsetInCU: 0x50F9, offset: 0x84F3E, size: 0x8, addend: 0x0, symName: __RINvMs0_NtCs9PXnr41oVbh_10rayon_core3jobNtB6_6JobRef3newINtB6_8StackJobNtNtB8_5latch9SpinLatchNCINvMs4_NtB8_8registryNtB1D_8Registry15in_worker_crossNCINvNtB8_4join12join_contextNCINvNvNtNtCslkboY0IC5z6_5rayon4iter8plumbing24bridge_producer_consumer6helperINtNtB31_5range12IterProducerjEINtNtB2Z_3map11MapConsumerINtNtNtB2Z_7collect8consumer15CollectConsumerbENCNvMNtNtCsaYfPqFfImBE_4dprs4life8model_2dINtB5R_14LatticeModel2DNtNtB5T_10life_model9LifeModelE23next_iteration_parallel0EE0NCB2S_s_0INtB54_13CollectResultbEB7W_E0TB7W_B7W_EE0B8q_EEB5V_, symObjAddr: 0x100, symBinAddr: 0x21158, symSize: 0x20 }
  - { offsetInCU: 0x5131, offset: 0x84F76, size: 0x8, addend: 0x0, symName: __RINvMs0_NtCs9PXnr41oVbh_10rayon_core3jobNtB6_6JobRef3newINtB6_8StackJobNtNtB8_5latch9SpinLatchNCINvMs4_NtB8_8registryNtB1D_8Registry15in_worker_crossNCINvNtB8_4join12join_contextNCINvNvNtNtCslkboY0IC5z6_5rayon4iter8plumbing24bridge_producer_consumer6helperINtNtB31_5range12IterProducerjEINtNtB2Z_3map11MapConsumerNtNtB2Z_6extend15ListVecConsumerNCNvMNtNtCsaYfPqFfImBE_4dprs4life8model_2dINtB5C_14LatticeModel2DNtNtB5E_10life_model9LifeModelE23next_iteration_parallel0EE0NCB2S_s_0INtNtNtCs9xDkXAC1PNF_5alloc11collections11linked_list10LinkedListINtNtB7O_3vec3VecbEEB7H_E0TB7H_B7H_EE0B9a_EEB5G_, symObjAddr: 0x120, symBinAddr: 0x21178, symSize: 0x20 }
  - { offsetInCU: 0x5169, offset: 0x84FAE, size: 0x8, addend: 0x0, symName: __RINvMs0_NtCs9PXnr41oVbh_10rayon_core3jobNtB6_6JobRef3newINtB6_8StackJobNtNtB8_5latch9SpinLatchNCINvNvNtB8_4join12join_context6call_bINtNtNtCs9xDkXAC1PNF_5alloc11collections11linked_list10LinkedListINtNtB2d_3vec3VecbEENCINvNvNtNtCslkboY0IC5z6_5rayon4iter8plumbing24bridge_producer_consumer6helperINtNtB3E_5range12IterProducerjEINtNtB3C_3map11MapConsumerNtNtB3C_6extend15ListVecConsumerNCNvMNtNtCsaYfPqFfImBE_4dprs4life8model_2dINtB6f_14LatticeModel2DNtNtB6h_10life_model9LifeModelE23next_iteration_parallel0EEs_0E0B26_EEB6j_, symObjAddr: 0x140, symBinAddr: 0x21198, symSize: 0x20 }
  - { offsetInCU: 0x51A1, offset: 0x84FE6, size: 0x8, addend: 0x0, symName: __RINvMs0_NtCs9PXnr41oVbh_10rayon_core3jobNtB6_6JobRef3newINtB6_8StackJobNtNtB8_5latch9SpinLatchNCINvNvNtB8_4join12join_context6call_bINtNtNtNtCslkboY0IC5z6_5rayon4iter7collect8consumer13CollectResultbENCINvNvNtB2d_8plumbing24bridge_producer_consumer6helperINtNtB2f_5range12IterProducerjEINtNtB2d_3map11MapConsumerINtB29_15CollectConsumerbENCNvMNtNtCsaYfPqFfImBE_4dprs4life8model_2dINtB5v_14LatticeModel2DNtNtB5x_10life_model9LifeModelE23next_iteration_parallel0EEs_0E0B26_EEB5z_, symObjAddr: 0x160, symBinAddr: 0x211B8, symSize: 0x20 }
  - { offsetInCU: 0x51D9, offset: 0x8501E, size: 0x8, addend: 0x0, symName: __RINvMs0_NtCs9PXnr41oVbh_10rayon_core3jobNtB6_6JobRef3newINtB6_8StackJobNtNtB8_5latch9SpinLatchNCINvNvNtB8_4join12join_context6call_buNCINvNvNtNtCslkboY0IC5z6_5rayon4iter8plumbing24bridge_producer_consumer6helperINtNtB2g_9enumerate17EnumerateProducerINtNtNtB2i_5slice6chunks17ChunksMutProducerbEEINtNtB2g_8for_each15ForEachConsumerNCNvMNtNtCsaYfPqFfImBE_4dprs4life8model_2dINtB5n_14LatticeModel2DNtNtB5p_10life_model9LifeModelE31next_iteration_parallel_chunked0EEs_0E0uEEB5r_, symObjAddr: 0x180, symBinAddr: 0x211D8, symSize: 0x20 }
  - { offsetInCU: 0x5204, offset: 0x85049, size: 0x8, addend: 0x0, symName: __RINvMs7_NtCs9PXnr41oVbh_10rayon_core3jobINtB6_9JobResultINtNtNtCs9xDkXAC1PNF_5alloc11collections11linked_list10LinkedListINtNtBZ_3vec3VecbEEE4callNCINvNvNtB8_4join12join_context6call_bBS_NCINvNvNtNtCslkboY0IC5z6_5rayon4iter8plumbing24bridge_producer_consumer6helperINtNtB3a_5range12IterProducerjEINtNtB38_3map11MapConsumerNtNtB38_6extend15ListVecConsumerNCNvMNtNtCsaYfPqFfImBE_4dprs4life8model_2dINtB5L_14LatticeModel2DNtNtB5N_10life_model9LifeModelE23next_iteration_parallel0EEs_0E0EB5P_, symObjAddr: 0x1A0, symBinAddr: 0x211F8, symSize: 0xA8 }
  - { offsetInCU: 0x5273, offset: 0x850B8, size: 0x8, addend: 0x0, symName: __RINvMs7_NtCs9PXnr41oVbh_10rayon_core3jobINtB6_9JobResultINtNtNtNtCslkboY0IC5z6_5rayon4iter7collect8consumer13CollectResultbEE4callNCINvNvNtB8_4join12join_context6call_bBS_NCINvNvNtBZ_8plumbing24bridge_producer_consumer6helperINtNtB11_5range12IterProducerjEINtNtBZ_3map11MapConsumerINtBV_15CollectConsumerbENCNvMNtNtCsaYfPqFfImBE_4dprs4life8model_2dINtB4Z_14LatticeModel2DNtNtB51_10life_model9LifeModelE23next_iteration_parallel0EEs_0E0EB53_, symObjAddr: 0x248, symBinAddr: 0x212A0, symSize: 0xA8 }
  - { offsetInCU: 0x52E2, offset: 0x85127, size: 0x8, addend: 0x0, symName: __RINvMs7_NtCs9PXnr41oVbh_10rayon_core3jobINtB6_9JobResultTINtNtNtCs9xDkXAC1PNF_5alloc11collections11linked_list10LinkedListINtNtB10_3vec3VecbEEBT_EE4callNCINvMs4_NtB8_8registryNtB2z_8Registry15in_worker_crossNCINvNtB8_4join12join_contextNCINvNvNtNtCslkboY0IC5z6_5rayon4iter8plumbing24bridge_producer_consumer6helperINtNtB3X_5range12IterProducerjEINtNtB3V_3map11MapConsumerNtNtB3V_6extend15ListVecConsumerNCNvMNtNtCsaYfPqFfImBE_4dprs4life8model_2dINtB6y_14LatticeModel2DNtNtB6A_10life_model9LifeModelE23next_iteration_parallel0EE0NCB3O_s_0BT_BT_E0BS_E0EB6C_, symObjAddr: 0x2F0, symBinAddr: 0x21348, symSize: 0xC0 }
  - { offsetInCU: 0x5352, offset: 0x85197, size: 0x8, addend: 0x0, symName: __RINvMs7_NtCs9PXnr41oVbh_10rayon_core3jobINtB6_9JobResultTINtNtNtCs9xDkXAC1PNF_5alloc11collections11linked_list10LinkedListINtNtB10_3vec3VecbEEBT_EE4callNCNCINvMs4_NtB8_8registryNtB2B_8Registry14in_worker_coldNCINvNtB8_4join12join_contextNCINvNvNtNtCslkboY0IC5z6_5rayon4iter8plumbing24bridge_producer_consumer6helperINtNtB3Y_5range12IterProducerjEINtNtB3W_3map11MapConsumerNtNtB3W_6extend15ListVecConsumerNCNvMNtNtCsaYfPqFfImBE_4dprs4life8model_2dINtB6z_14LatticeModel2DNtNtB6B_10life_model9LifeModelE23next_iteration_parallel0EE0NCB3P_s_0BT_BT_E0BS_E00EB6D_, symObjAddr: 0x3B0, symBinAddr: 0x21408, symSize: 0xC0 }
  - { offsetInCU: 0x53C2, offset: 0x85207, size: 0x8, addend: 0x0, symName: __RINvMs7_NtCs9PXnr41oVbh_10rayon_core3jobINtB6_9JobResultTINtNtNtNtCslkboY0IC5z6_5rayon4iter7collect8consumer13CollectResultbEBT_EE4callNCINvMs4_NtB8_8registryNtB2i_8Registry15in_worker_crossNCINvNtB8_4join12join_contextNCINvNvNtB10_8plumbing24bridge_producer_consumer6helperINtNtB12_5range12IterProducerjEINtNtB10_3map11MapConsumerINtBW_15CollectConsumerbENCNvMNtNtCsaYfPqFfImBE_4dprs4life8model_2dINtB5N_14LatticeModel2DNtNtB5P_10life_model9LifeModelE23next_iteration_parallel0EE0NCB3x_s_0BT_BT_E0BS_E0EB5R_, symObjAddr: 0x470, symBinAddr: 0x214C8, symSize: 0xC0 }
  - { offsetInCU: 0x5432, offset: 0x85277, size: 0x8, addend: 0x0, symName: __RINvMs7_NtCs9PXnr41oVbh_10rayon_core3jobINtB6_9JobResultTINtNtNtNtCslkboY0IC5z6_5rayon4iter7collect8consumer13CollectResultbEBT_EE4callNCNCINvMs4_NtB8_8registryNtB2k_8Registry14in_worker_coldNCINvNtB8_4join12join_contextNCINvNvNtB10_8plumbing24bridge_producer_consumer6helperINtNtB12_5range12IterProducerjEINtNtB10_3map11MapConsumerINtBW_15CollectConsumerbENCNvMNtNtCsaYfPqFfImBE_4dprs4life8model_2dINtB5O_14LatticeModel2DNtNtB5Q_10life_model9LifeModelE23next_iteration_parallel0EE0NCB3y_s_0BT_BT_E0BS_E00EB5S_, symObjAddr: 0x530, symBinAddr: 0x21588, symSize: 0xC0 }
  - { offsetInCU: 0x54A2, offset: 0x852E7, size: 0x8, addend: 0x0, symName: __RINvMs7_NtCs9PXnr41oVbh_10rayon_core3jobINtB6_9JobResultTjINtNtCs9xDkXAC1PNF_5alloc3vec3VecIBV_bEEEE4callNCINvMs4_NtB8_8registryNtB1O_8Registry15in_worker_crossNCINvMNtB8_11thread_poolNtB2E_10ThreadPool7installNCNvNtCsaYfPqFfImBE_4dprs2dp14run_simulation0BS_E0BS_E0EB3s_, symObjAddr: 0x5F0, symBinAddr: 0x21648, symSize: 0xB0 }
  - { offsetInCU: 0x5511, offset: 0x85356, size: 0x8, addend: 0x0, symName: __RINvMs7_NtCs9PXnr41oVbh_10rayon_core3jobINtB6_9JobResultTjINtNtCs9xDkXAC1PNF_5alloc3vec3VecIBV_bEEEE4callNCINvMs4_NtB8_8registryNtB1O_8Registry15in_worker_crossNCINvMNtB8_11thread_poolNtB2E_10ThreadPool7installNCNvNtCsaYfPqFfImBE_4dprs4life14run_simulation0BS_E0BS_E0EB3s_, symObjAddr: 0x6A0, symBinAddr: 0x216F8, symSize: 0xB0 }
  - { offsetInCU: 0x5580, offset: 0x853C5, size: 0x8, addend: 0x0, symName: __RINvMs7_NtCs9PXnr41oVbh_10rayon_core3jobINtB6_9JobResultTjINtNtCs9xDkXAC1PNF_5alloc3vec3VecIBV_bEEEE4callNCNCINvMs4_NtB8_8registryNtB1Q_8Registry14in_worker_coldNCINvMNtB8_11thread_poolNtB2F_10ThreadPool7installNCNvNtCsaYfPqFfImBE_4dprs2dp14run_simulation0BS_E0BS_E00EB3t_, symObjAddr: 0x750, symBinAddr: 0x217A8, symSize: 0xB0 }
  - { offsetInCU: 0x55EF, offset: 0x85434, size: 0x8, addend: 0x0, symName: __RINvMs7_NtCs9PXnr41oVbh_10rayon_core3jobINtB6_9JobResultTjINtNtCs9xDkXAC1PNF_5alloc3vec3VecIBV_bEEEE4callNCNCINvMs4_NtB8_8registryNtB1Q_8Registry14in_worker_coldNCINvMNtB8_11thread_poolNtB2F_10ThreadPool7installNCNvNtCsaYfPqFfImBE_4dprs4life14run_simulation0BS_E0BS_E00EB3t_, symObjAddr: 0x800, symBinAddr: 0x21858, symSize: 0xB0 }
  - { offsetInCU: 0x565E, offset: 0x854A3, size: 0x8, addend: 0x0, symName: __RINvMs7_NtCs9PXnr41oVbh_10rayon_core3jobINtB6_9JobResultTuuEE4callNCINvMs4_NtB8_8registryNtB1b_8Registry15in_worker_crossNCINvNtB8_4join12join_contextNCINvNvNtNtCslkboY0IC5z6_5rayon4iter8plumbing24bridge_producer_consumer6helperINtNtB2x_9enumerate17EnumerateProducerINtNtNtB2z_5slice6chunks17ChunksMutProducerbEEINtNtB2x_8for_each15ForEachConsumerNCNvMNtNtCsaYfPqFfImBE_4dprs4life8model_2dINtB5E_14LatticeModel2DNtNtB5G_10life_model9LifeModelE31next_iteration_parallel_chunked0EE0NCB2q_s_0uuE0BS_E0EB5I_, symObjAddr: 0x8B0, symBinAddr: 0x21908, symSize: 0x90 }
  - { offsetInCU: 0x56CD, offset: 0x85512, size: 0x8, addend: 0x0, symName: __RINvMs7_NtCs9PXnr41oVbh_10rayon_core3jobINtB6_9JobResultTuuEE4callNCNCINvMs4_NtB8_8registryNtB1d_8Registry14in_worker_coldNCINvNtB8_4join12join_contextNCINvNvNtNtCslkboY0IC5z6_5rayon4iter8plumbing24bridge_producer_consumer6helperINtNtB2y_9enumerate17EnumerateProducerINtNtNtB2A_5slice6chunks17ChunksMutProducerbEEINtNtB2y_8for_each15ForEachConsumerNCNvMNtNtCsaYfPqFfImBE_4dprs4life8model_2dINtB5F_14LatticeModel2DNtNtB5H_10life_model9LifeModelE31next_iteration_parallel_chunked0EE0NCB2r_s_0uuE0BS_E00EB5J_, symObjAddr: 0x940, symBinAddr: 0x21998, symSize: 0x90 }
  - { offsetInCU: 0x573C, offset: 0x85581, size: 0x8, addend: 0x0, symName: __RINvMs7_NtCs9PXnr41oVbh_10rayon_core3jobINtB6_9JobResultuE4callNCINvNvNtB8_4join12join_context6call_buNCINvNvNtNtCslkboY0IC5z6_5rayon4iter8plumbing24bridge_producer_consumer6helperINtNtB1L_9enumerate17EnumerateProducerINtNtNtB1N_5slice6chunks17ChunksMutProducerbEEINtNtB1L_8for_each15ForEachConsumerNCNvMNtNtCsaYfPqFfImBE_4dprs4life8model_2dINtB4S_14LatticeModel2DNtNtB4U_10life_model9LifeModelE31next_iteration_parallel_chunked0EEs_0E0EB4W_, symObjAddr: 0x9D0, symBinAddr: 0x21A28, symSize: 0x90 }
  - { offsetInCU: 0x57B8, offset: 0x855FD, size: 0x8, addend: 0x0, symName: __RNvMs1_NtCs9PXnr41oVbh_10rayon_core3jobINtB5_8StackJobINtNtB7_5latch8LatchRefNtBT_9LockLatchENCNCINvMs4_NtB7_8registryNtB1E_8Registry14in_worker_coldNCINvMNtB7_11thread_poolNtB2t_10ThreadPool7installNCNvNtCsaYfPqFfImBE_4dprs2dp14run_simulation0TjINtNtCs9xDkXAC1PNF_5alloc3vec3VecIB3X_bEEEE0B3U_E00B3U_E10as_job_refB3h_, symObjAddr: 0xDF0, symBinAddr: 0x21E48, symSize: 0x24 }
  - { offsetInCU: 0x5811, offset: 0x85656, size: 0x8, addend: 0x0, symName: __RNvMs1_NtCs9PXnr41oVbh_10rayon_core3jobINtB5_8StackJobINtNtB7_5latch8LatchRefNtBT_9LockLatchENCNCINvMs4_NtB7_8registryNtB1E_8Registry14in_worker_coldNCINvMNtB7_11thread_poolNtB2t_10ThreadPool7installNCNvNtCsaYfPqFfImBE_4dprs2dp14run_simulation0TjINtNtCs9xDkXAC1PNF_5alloc3vec3VecIB3X_bEEEE0B3U_E00B3U_E11into_resultB3h_, symObjAddr: 0xE14, symBinAddr: 0x21E6C, symSize: 0x90 }
  - { offsetInCU: 0x58A4, offset: 0x856E9, size: 0x8, addend: 0x0, symName: __RNvMs1_NtCs9PXnr41oVbh_10rayon_core3jobINtB5_8StackJobINtNtB7_5latch8LatchRefNtBT_9LockLatchENCNCINvMs4_NtB7_8registryNtB1E_8Registry14in_worker_coldNCINvMNtB7_11thread_poolNtB2t_10ThreadPool7installNCNvNtCsaYfPqFfImBE_4dprs2dp14run_simulation0TjINtNtCs9xDkXAC1PNF_5alloc3vec3VecIB3X_bEEEE0B3U_E00B3U_E3newB3h_, symObjAddr: 0xEA4, symBinAddr: 0x21EFC, symSize: 0xC0 }
  - { offsetInCU: 0x5939, offset: 0x8577E, size: 0x8, addend: 0x0, symName: __RNvMs1_NtCs9PXnr41oVbh_10rayon_core3jobINtB5_8StackJobINtNtB7_5latch8LatchRefNtBT_9LockLatchENCNCINvMs4_NtB7_8registryNtB1E_8Registry14in_worker_coldNCINvMNtB7_11thread_poolNtB2t_10ThreadPool7installNCNvNtCsaYfPqFfImBE_4dprs4life14run_simulation0TjINtNtCs9xDkXAC1PNF_5alloc3vec3VecIB3Z_bEEEE0B3W_E00B3W_E10as_job_refB3h_, symObjAddr: 0xF64, symBinAddr: 0x21FBC, symSize: 0x24 }
  - { offsetInCU: 0x5976, offset: 0x857BB, size: 0x8, addend: 0x0, symName: __RNvMs1_NtCs9PXnr41oVbh_10rayon_core3jobINtB5_8StackJobINtNtB7_5latch8LatchRefNtBT_9LockLatchENCNCINvMs4_NtB7_8registryNtB1E_8Registry14in_worker_coldNCINvMNtB7_11thread_poolNtB2t_10ThreadPool7installNCNvNtCsaYfPqFfImBE_4dprs4life14run_simulation0TjINtNtCs9xDkXAC1PNF_5alloc3vec3VecIB3Z_bEEEE0B3W_E00B3W_E11into_resultB3h_, symObjAddr: 0xF88, symBinAddr: 0x21FE0, symSize: 0x88 }
  - { offsetInCU: 0x59ED, offset: 0x85832, size: 0x8, addend: 0x0, symName: __RNvMs1_NtCs9PXnr41oVbh_10rayon_core3jobINtB5_8StackJobINtNtB7_5latch8LatchRefNtBT_9LockLatchENCNCINvMs4_NtB7_8registryNtB1E_8Registry14in_worker_coldNCINvMNtB7_11thread_poolNtB2t_10ThreadPool7installNCNvNtCsaYfPqFfImBE_4dprs4life14run_simulation0TjINtNtCs9xDkXAC1PNF_5alloc3vec3VecIB3Z_bEEEE0B3W_E00B3W_E3newB3h_, symObjAddr: 0x1010, symBinAddr: 0x22068, symSize: 0xBC }
  - { offsetInCU: 0x5A82, offset: 0x858C7, size: 0x8, addend: 0x0, symName: __RNvMs1_NtCs9PXnr41oVbh_10rayon_core3jobINtB5_8StackJobINtNtB7_5latch8LatchRefNtBT_9LockLatchENCNCINvMs4_NtB7_8registryNtB1E_8Registry14in_worker_coldNCINvNtB7_4join12join_contextNCINvNvNtNtCslkboY0IC5z6_5rayon4iter8plumbing24bridge_producer_consumer6helperINtNtB2Z_9enumerate17EnumerateProducerINtNtNtB31_5slice6chunks17ChunksMutProducerbEEINtNtB2Z_8for_each15ForEachConsumerNCNvMNtNtCsaYfPqFfImBE_4dprs4life8model_2dINtB66_14LatticeModel2DNtNtB68_10life_model9LifeModelE31next_iteration_parallel_chunked0EE0NCB2S_s_0uuE0TuuEE00B8n_E10as_job_refB6a_, symObjAddr: 0x10CC, symBinAddr: 0x22124, symSize: 0x24 }
  - { offsetInCU: 0x5ADB, offset: 0x85920, size: 0x8, addend: 0x0, symName: __RNvMs1_NtCs9PXnr41oVbh_10rayon_core3jobINtB5_8StackJobINtNtB7_5latch8LatchRefNtBT_9LockLatchENCNCINvMs4_NtB7_8registryNtB1E_8Registry14in_worker_coldNCINvNtB7_4join12join_contextNCINvNvNtNtCslkboY0IC5z6_5rayon4iter8plumbing24bridge_producer_consumer6helperINtNtB2Z_9enumerate17EnumerateProducerINtNtNtB31_5slice6chunks17ChunksMutProducerbEEINtNtB2Z_8for_each15ForEachConsumerNCNvMNtNtCsaYfPqFfImBE_4dprs4life8model_2dINtB66_14LatticeModel2DNtNtB68_10life_model9LifeModelE31next_iteration_parallel_chunked0EE0NCB2S_s_0uuE0TuuEE00B8n_E11into_resultB6a_, symObjAddr: 0x10F0, symBinAddr: 0x22148, symSize: 0x68 }
  - { offsetInCU: 0x5B6E, offset: 0x859B3, size: 0x8, addend: 0x0, symName: __RNvMs1_NtCs9PXnr41oVbh_10rayon_core3jobINtB5_8StackJobINtNtB7_5latch8LatchRefNtBT_9LockLatchENCNCINvMs4_NtB7_8registryNtB1E_8Registry14in_worker_coldNCINvNtB7_4join12join_contextNCINvNvNtNtCslkboY0IC5z6_5rayon4iter8plumbing24bridge_producer_consumer6helperINtNtB2Z_9enumerate17EnumerateProducerINtNtNtB31_5slice6chunks17ChunksMutProducerbEEINtNtB2Z_8for_each15ForEachConsumerNCNvMNtNtCsaYfPqFfImBE_4dprs4life8model_2dINtB66_14LatticeModel2DNtNtB68_10life_model9LifeModelE31next_iteration_parallel_chunked0EE0NCB2S_s_0uuE0TuuEE00B8n_E3newB6a_, symObjAddr: 0x1158, symBinAddr: 0x221B0, symSize: 0xB0 }
  - { offsetInCU: 0x5C02, offset: 0x85A47, size: 0x8, addend: 0x0, symName: __RNvMs1_NtCs9PXnr41oVbh_10rayon_core3jobINtB5_8StackJobINtNtB7_5latch8LatchRefNtBT_9LockLatchENCNCINvMs4_NtB7_8registryNtB1E_8Registry14in_worker_coldNCINvNtB7_4join12join_contextNCINvNvNtNtCslkboY0IC5z6_5rayon4iter8plumbing24bridge_producer_consumer6helperINtNtB31_5range12IterProducerjEINtNtB2Z_3map11MapConsumerINtNtNtB2Z_7collect8consumer15CollectConsumerbENCNvMNtNtCsaYfPqFfImBE_4dprs4life8model_2dINtB5R_14LatticeModel2DNtNtB5T_10life_model9LifeModelE23next_iteration_parallel0EE0NCB2S_s_0INtB54_13CollectResultbEB7W_E0TB7W_B7W_EE00B8q_E10as_job_refB5V_, symObjAddr: 0x1208, symBinAddr: 0x22260, symSize: 0x24 }
  - { offsetInCU: 0x5C5B, offset: 0x85AA0, size: 0x8, addend: 0x0, symName: __RNvMs1_NtCs9PXnr41oVbh_10rayon_core3jobINtB5_8StackJobINtNtB7_5latch8LatchRefNtBT_9LockLatchENCNCINvMs4_NtB7_8registryNtB1E_8Registry14in_worker_coldNCINvNtB7_4join12join_contextNCINvNvNtNtCslkboY0IC5z6_5rayon4iter8plumbing24bridge_producer_consumer6helperINtNtB31_5range12IterProducerjEINtNtB2Z_3map11MapConsumerINtNtNtB2Z_7collect8consumer15CollectConsumerbENCNvMNtNtCsaYfPqFfImBE_4dprs4life8model_2dINtB5R_14LatticeModel2DNtNtB5T_10life_model9LifeModelE23next_iteration_parallel0EE0NCB2S_s_0INtB54_13CollectResultbEB7W_E0TB7W_B7W_EE00B8q_E11into_resultB5V_, symObjAddr: 0x122C, symBinAddr: 0x22284, symSize: 0x7C }
  - { offsetInCU: 0x5CEF, offset: 0x85B34, size: 0x8, addend: 0x0, symName: __RNvMs1_NtCs9PXnr41oVbh_10rayon_core3jobINtB5_8StackJobINtNtB7_5latch8LatchRefNtBT_9LockLatchENCNCINvMs4_NtB7_8registryNtB1E_8Registry14in_worker_coldNCINvNtB7_4join12join_contextNCINvNvNtNtCslkboY0IC5z6_5rayon4iter8plumbing24bridge_producer_consumer6helperINtNtB31_5range12IterProducerjEINtNtB2Z_3map11MapConsumerINtNtNtB2Z_7collect8consumer15CollectConsumerbENCNvMNtNtCsaYfPqFfImBE_4dprs4life8model_2dINtB5R_14LatticeModel2DNtNtB5T_10life_model9LifeModelE23next_iteration_parallel0EE0NCB2S_s_0INtB54_13CollectResultbEB7W_E0TB7W_B7W_EE00B8q_E3newB5V_, symObjAddr: 0x12A8, symBinAddr: 0x22300, symSize: 0xB8 }
  - { offsetInCU: 0x5D84, offset: 0x85BC9, size: 0x8, addend: 0x0, symName: __RNvMs1_NtCs9PXnr41oVbh_10rayon_core3jobINtB5_8StackJobINtNtB7_5latch8LatchRefNtBT_9LockLatchENCNCINvMs4_NtB7_8registryNtB1E_8Registry14in_worker_coldNCINvNtB7_4join12join_contextNCINvNvNtNtCslkboY0IC5z6_5rayon4iter8plumbing24bridge_producer_consumer6helperINtNtB31_5range12IterProducerjEINtNtB2Z_3map11MapConsumerNtNtB2Z_6extend15ListVecConsumerNCNvMNtNtCsaYfPqFfImBE_4dprs4life8model_2dINtB5C_14LatticeModel2DNtNtB5E_10life_model9LifeModelE23next_iteration_parallel0EE0NCB2S_s_0INtNtNtCs9xDkXAC1PNF_5alloc11collections11linked_list10LinkedListINtNtB7O_3vec3VecbEEB7H_E0TB7H_B7H_EE00B9a_E10as_job_refB5G_, symObjAddr: 0x1360, symBinAddr: 0x223B8, symSize: 0x24 }
  - { offsetInCU: 0x5DDD, offset: 0x85C22, size: 0x8, addend: 0x0, symName: __RNvMs1_NtCs9PXnr41oVbh_10rayon_core3jobINtB5_8StackJobINtNtB7_5latch8LatchRefNtBT_9LockLatchENCNCINvMs4_NtB7_8registryNtB1E_8Registry14in_worker_coldNCINvNtB7_4join12join_contextNCINvNvNtNtCslkboY0IC5z6_5rayon4iter8plumbing24bridge_producer_consumer6helperINtNtB31_5range12IterProducerjEINtNtB2Z_3map11MapConsumerNtNtB2Z_6extend15ListVecConsumerNCNvMNtNtCsaYfPqFfImBE_4dprs4life8model_2dINtB5C_14LatticeModel2DNtNtB5E_10life_model9LifeModelE23next_iteration_parallel0EE0NCB2S_s_0INtNtNtCs9xDkXAC1PNF_5alloc11collections11linked_list10LinkedListINtNtB7O_3vec3VecbEEB7H_E0TB7H_B7H_EE00B9a_E11into_resultB5G_, symObjAddr: 0x1384, symBinAddr: 0x223DC, symSize: 0x7C }
  - { offsetInCU: 0x5E71, offset: 0x85CB6, size: 0x8, addend: 0x0, symName: __RNvMs1_NtCs9PXnr41oVbh_10rayon_core3jobINtB5_8StackJobINtNtB7_5latch8LatchRefNtBT_9LockLatchENCNCINvMs4_NtB7_8registryNtB1E_8Registry14in_worker_coldNCINvNtB7_4join12join_contextNCINvNvNtNtCslkboY0IC5z6_5rayon4iter8plumbing24bridge_producer_consumer6helperINtNtB31_5range12IterProducerjEINtNtB2Z_3map11MapConsumerNtNtB2Z_6extend15ListVecConsumerNCNvMNtNtCsaYfPqFfImBE_4dprs4life8model_2dINtB5C_14LatticeModel2DNtNtB5E_10life_model9LifeModelE23next_iteration_parallel0EE0NCB2S_s_0INtNtNtCs9xDkXAC1PNF_5alloc11collections11linked_list10LinkedListINtNtB7O_3vec3VecbEEB7H_E0TB7H_B7H_EE00B9a_E3newB5G_, symObjAddr: 0x1400, symBinAddr: 0x22458, symSize: 0xB8 }
  - { offsetInCU: 0x5F06, offset: 0x85D4B, size: 0x8, addend: 0x0, symName: __RNvMs1_NtCs9PXnr41oVbh_10rayon_core3jobINtB5_8StackJobNtNtB7_5latch9SpinLatchNCINvMs4_NtB7_8registryNtB1m_8Registry15in_worker_crossNCINvMNtB7_11thread_poolNtB2c_10ThreadPool7installNCNvNtCsaYfPqFfImBE_4dprs2dp14run_simulation0TjINtNtCs9xDkXAC1PNF_5alloc3vec3VecIB3G_bEEEE0B3D_E0B3D_E10as_job_refB30_, symObjAddr: 0x14B8, symBinAddr: 0x22510, symSize: 0x24 }
  - { offsetInCU: 0x5F43, offset: 0x85D88, size: 0x8, addend: 0x0, symName: __RNvMs1_NtCs9PXnr41oVbh_10rayon_core3jobINtB5_8StackJobNtNtB7_5latch9SpinLatchNCINvMs4_NtB7_8registryNtB1m_8Registry15in_worker_crossNCINvMNtB7_11thread_poolNtB2c_10ThreadPool7installNCNvNtCsaYfPqFfImBE_4dprs2dp14run_simulation0TjINtNtCs9xDkXAC1PNF_5alloc3vec3VecIB3G_bEEEE0B3D_E0B3D_E11into_resultB30_, symObjAddr: 0x14DC, symBinAddr: 0x22534, symSize: 0x90 }
  - { offsetInCU: 0x5FBA, offset: 0x85DFF, size: 0x8, addend: 0x0, symName: __RNvMs1_NtCs9PXnr41oVbh_10rayon_core3jobINtB5_8StackJobNtNtB7_5latch9SpinLatchNCINvMs4_NtB7_8registryNtB1m_8Registry15in_worker_crossNCINvMNtB7_11thread_poolNtB2c_10ThreadPool7installNCNvNtCsaYfPqFfImBE_4dprs2dp14run_simulation0TjINtNtCs9xDkXAC1PNF_5alloc3vec3VecIB3G_bEEEE0B3D_E0B3D_E3newB30_, symObjAddr: 0x156C, symBinAddr: 0x225C4, symSize: 0xC4 }
  - { offsetInCU: 0x604F, offset: 0x85E94, size: 0x8, addend: 0x0, symName: __RNvMs1_NtCs9PXnr41oVbh_10rayon_core3jobINtB5_8StackJobNtNtB7_5latch9SpinLatchNCINvMs4_NtB7_8registryNtB1m_8Registry15in_worker_crossNCINvMNtB7_11thread_poolNtB2c_10ThreadPool7installNCNvNtCsaYfPqFfImBE_4dprs4life14run_simulation0TjINtNtCs9xDkXAC1PNF_5alloc3vec3VecIB3I_bEEEE0B3F_E0B3F_E10as_job_refB30_, symObjAddr: 0x1630, symBinAddr: 0x22688, symSize: 0x24 }
  - { offsetInCU: 0x608C, offset: 0x85ED1, size: 0x8, addend: 0x0, symName: __RNvMs1_NtCs9PXnr41oVbh_10rayon_core3jobINtB5_8StackJobNtNtB7_5latch9SpinLatchNCINvMs4_NtB7_8registryNtB1m_8Registry15in_worker_crossNCINvMNtB7_11thread_poolNtB2c_10ThreadPool7installNCNvNtCsaYfPqFfImBE_4dprs4life14run_simulation0TjINtNtCs9xDkXAC1PNF_5alloc3vec3VecIB3I_bEEEE0B3F_E0B3F_E11into_resultB30_, symObjAddr: 0x1654, symBinAddr: 0x226AC, symSize: 0x88 }
  - { offsetInCU: 0x6103, offset: 0x85F48, size: 0x8, addend: 0x0, symName: __RNvMs1_NtCs9PXnr41oVbh_10rayon_core3jobINtB5_8StackJobNtNtB7_5latch9SpinLatchNCINvMs4_NtB7_8registryNtB1m_8Registry15in_worker_crossNCINvMNtB7_11thread_poolNtB2c_10ThreadPool7installNCNvNtCsaYfPqFfImBE_4dprs4life14run_simulation0TjINtNtCs9xDkXAC1PNF_5alloc3vec3VecIB3I_bEEEE0B3F_E0B3F_E3newB30_, symObjAddr: 0x16DC, symBinAddr: 0x22734, symSize: 0xC0 }
  - { offsetInCU: 0x6198, offset: 0x85FDD, size: 0x8, addend: 0x0, symName: __RNvMs1_NtCs9PXnr41oVbh_10rayon_core3jobINtB5_8StackJobNtNtB7_5latch9SpinLatchNCINvMs4_NtB7_8registryNtB1m_8Registry15in_worker_crossNCINvNtB7_4join12join_contextNCINvNvNtNtCslkboY0IC5z6_5rayon4iter8plumbing24bridge_producer_consumer6helperINtNtB2I_9enumerate17EnumerateProducerINtNtNtB2K_5slice6chunks17ChunksMutProducerbEEINtNtB2I_8for_each15ForEachConsumerNCNvMNtNtCsaYfPqFfImBE_4dprs4life8model_2dINtB5P_14LatticeModel2DNtNtB5R_10life_model9LifeModelE31next_iteration_parallel_chunked0EE0NCB2B_s_0uuE0TuuEE0B86_E10as_job_refB5T_, symObjAddr: 0x179C, symBinAddr: 0x227F4, symSize: 0x24 }
  - { offsetInCU: 0x61D5, offset: 0x8601A, size: 0x8, addend: 0x0, symName: __RNvMs1_NtCs9PXnr41oVbh_10rayon_core3jobINtB5_8StackJobNtNtB7_5latch9SpinLatchNCINvMs4_NtB7_8registryNtB1m_8Registry15in_worker_crossNCINvNtB7_4join12join_contextNCINvNvNtNtCslkboY0IC5z6_5rayon4iter8plumbing24bridge_producer_consumer6helperINtNtB2I_9enumerate17EnumerateProducerINtNtNtB2K_5slice6chunks17ChunksMutProducerbEEINtNtB2I_8for_each15ForEachConsumerNCNvMNtNtCsaYfPqFfImBE_4dprs4life8model_2dINtB5P_14LatticeModel2DNtNtB5R_10life_model9LifeModelE31next_iteration_parallel_chunked0EE0NCB2B_s_0uuE0TuuEE0B86_E11into_resultB5T_, symObjAddr: 0x17C0, symBinAddr: 0x22818, symSize: 0x68 }
  - { offsetInCU: 0x624C, offset: 0x86091, size: 0x8, addend: 0x0, symName: __RNvMs1_NtCs9PXnr41oVbh_10rayon_core3jobINtB5_8StackJobNtNtB7_5latch9SpinLatchNCINvMs4_NtB7_8registryNtB1m_8Registry15in_worker_crossNCINvNtB7_4join12join_contextNCINvNvNtNtCslkboY0IC5z6_5rayon4iter8plumbing24bridge_producer_consumer6helperINtNtB2I_9enumerate17EnumerateProducerINtNtNtB2K_5slice6chunks17ChunksMutProducerbEEINtNtB2I_8for_each15ForEachConsumerNCNvMNtNtCsaYfPqFfImBE_4dprs4life8model_2dINtB5P_14LatticeModel2DNtNtB5R_10life_model9LifeModelE31next_iteration_parallel_chunked0EE0NCB2B_s_0uuE0TuuEE0B86_E3newB5T_, symObjAddr: 0x1828, symBinAddr: 0x22880, symSize: 0xBC }
  - { offsetInCU: 0x62E1, offset: 0x86126, size: 0x8, addend: 0x0, symName: __RNvMs1_NtCs9PXnr41oVbh_10rayon_core3jobINtB5_8StackJobNtNtB7_5latch9SpinLatchNCINvMs4_NtB7_8registryNtB1m_8Registry15in_worker_crossNCINvNtB7_4join12join_contextNCINvNvNtNtCslkboY0IC5z6_5rayon4iter8plumbing24bridge_producer_consumer6helperINtNtB2K_5range12IterProducerjEINtNtB2I_3map11MapConsumerINtNtNtB2I_7collect8consumer15CollectConsumerbENCNvMNtNtCsaYfPqFfImBE_4dprs4life8model_2dINtB5A_14LatticeModel2DNtNtB5C_10life_model9LifeModelE23next_iteration_parallel0EE0NCB2B_s_0INtB4N_13CollectResultbEB7F_E0TB7F_B7F_EE0B89_E10as_job_refB5E_, symObjAddr: 0x18E4, symBinAddr: 0x2293C, symSize: 0x24 }
  - { offsetInCU: 0x631E, offset: 0x86163, size: 0x8, addend: 0x0, symName: __RNvMs1_NtCs9PXnr41oVbh_10rayon_core3jobINtB5_8StackJobNtNtB7_5latch9SpinLatchNCINvMs4_NtB7_8registryNtB1m_8Registry15in_worker_crossNCINvNtB7_4join12join_contextNCINvNvNtNtCslkboY0IC5z6_5rayon4iter8plumbing24bridge_producer_consumer6helperINtNtB2K_5range12IterProducerjEINtNtB2I_3map11MapConsumerINtNtNtB2I_7collect8consumer15CollectConsumerbENCNvMNtNtCsaYfPqFfImBE_4dprs4life8model_2dINtB5A_14LatticeModel2DNtNtB5C_10life_model9LifeModelE23next_iteration_parallel0EE0NCB2B_s_0INtB4N_13CollectResultbEB7F_E0TB7F_B7F_EE0B89_E11into_resultB5E_, symObjAddr: 0x1908, symBinAddr: 0x22960, symSize: 0x7C }
  - { offsetInCU: 0x6396, offset: 0x861DB, size: 0x8, addend: 0x0, symName: __RNvMs1_NtCs9PXnr41oVbh_10rayon_core3jobINtB5_8StackJobNtNtB7_5latch9SpinLatchNCINvMs4_NtB7_8registryNtB1m_8Registry15in_worker_crossNCINvNtB7_4join12join_contextNCINvNvNtNtCslkboY0IC5z6_5rayon4iter8plumbing24bridge_producer_consumer6helperINtNtB2K_5range12IterProducerjEINtNtB2I_3map11MapConsumerINtNtNtB2I_7collect8consumer15CollectConsumerbENCNvMNtNtCsaYfPqFfImBE_4dprs4life8model_2dINtB5A_14LatticeModel2DNtNtB5C_10life_model9LifeModelE23next_iteration_parallel0EE0NCB2B_s_0INtB4N_13CollectResultbEB7F_E0TB7F_B7F_EE0B89_E3newB5E_, symObjAddr: 0x1984, symBinAddr: 0x229DC, symSize: 0xC4 }
  - { offsetInCU: 0x642C, offset: 0x86271, size: 0x8, addend: 0x0, symName: __RNvMs1_NtCs9PXnr41oVbh_10rayon_core3jobINtB5_8StackJobNtNtB7_5latch9SpinLatchNCINvMs4_NtB7_8registryNtB1m_8Registry15in_worker_crossNCINvNtB7_4join12join_contextNCINvNvNtNtCslkboY0IC5z6_5rayon4iter8plumbing24bridge_producer_consumer6helperINtNtB2K_5range12IterProducerjEINtNtB2I_3map11MapConsumerNtNtB2I_6extend15ListVecConsumerNCNvMNtNtCsaYfPqFfImBE_4dprs4life8model_2dINtB5l_14LatticeModel2DNtNtB5n_10life_model9LifeModelE23next_iteration_parallel0EE0NCB2B_s_0INtNtNtCs9xDkXAC1PNF_5alloc11collections11linked_list10LinkedListINtNtB7x_3vec3VecbEEB7q_E0TB7q_B7q_EE0B8T_E10as_job_refB5p_, symObjAddr: 0x1A48, symBinAddr: 0x22AA0, symSize: 0x24 }
  - { offsetInCU: 0x6469, offset: 0x862AE, size: 0x8, addend: 0x0, symName: __RNvMs1_NtCs9PXnr41oVbh_10rayon_core3jobINtB5_8StackJobNtNtB7_5latch9SpinLatchNCINvMs4_NtB7_8registryNtB1m_8Registry15in_worker_crossNCINvNtB7_4join12join_contextNCINvNvNtNtCslkboY0IC5z6_5rayon4iter8plumbing24bridge_producer_consumer6helperINtNtB2K_5range12IterProducerjEINtNtB2I_3map11MapConsumerNtNtB2I_6extend15ListVecConsumerNCNvMNtNtCsaYfPqFfImBE_4dprs4life8model_2dINtB5l_14LatticeModel2DNtNtB5n_10life_model9LifeModelE23next_iteration_parallel0EE0NCB2B_s_0INtNtNtCs9xDkXAC1PNF_5alloc11collections11linked_list10LinkedListINtNtB7x_3vec3VecbEEB7q_E0TB7q_B7q_EE0B8T_E11into_resultB5p_, symObjAddr: 0x1A6C, symBinAddr: 0x22AC4, symSize: 0x7C }
  - { offsetInCU: 0x64E1, offset: 0x86326, size: 0x8, addend: 0x0, symName: __RNvMs1_NtCs9PXnr41oVbh_10rayon_core3jobINtB5_8StackJobNtNtB7_5latch9SpinLatchNCINvMs4_NtB7_8registryNtB1m_8Registry15in_worker_crossNCINvNtB7_4join12join_contextNCINvNvNtNtCslkboY0IC5z6_5rayon4iter8plumbing24bridge_producer_consumer6helperINtNtB2K_5range12IterProducerjEINtNtB2I_3map11MapConsumerNtNtB2I_6extend15ListVecConsumerNCNvMNtNtCsaYfPqFfImBE_4dprs4life8model_2dINtB5l_14LatticeModel2DNtNtB5n_10life_model9LifeModelE23next_iteration_parallel0EE0NCB2B_s_0INtNtNtCs9xDkXAC1PNF_5alloc11collections11linked_list10LinkedListINtNtB7x_3vec3VecbEEB7q_E0TB7q_B7q_EE0B8T_E3newB5p_, symObjAddr: 0x1AE8, symBinAddr: 0x22B40, symSize: 0xC4 }
  - { offsetInCU: 0x6577, offset: 0x863BC, size: 0x8, addend: 0x0, symName: __RNvMs1_NtCs9PXnr41oVbh_10rayon_core3jobINtB5_8StackJobNtNtB7_5latch9SpinLatchNCINvNvNtB7_4join12join_context6call_bINtNtNtCs9xDkXAC1PNF_5alloc11collections11linked_list10LinkedListINtNtB1W_3vec3VecbEENCINvNvNtNtCslkboY0IC5z6_5rayon4iter8plumbing24bridge_producer_consumer6helperINtNtB3n_5range12IterProducerjEINtNtB3l_3map11MapConsumerNtNtB3l_6extend15ListVecConsumerNCNvMNtNtCsaYfPqFfImBE_4dprs4life8model_2dINtB5Y_14LatticeModel2DNtNtB60_10life_model9LifeModelE23next_iteration_parallel0EEs_0E0B1P_E10as_job_refB62_, symObjAddr: 0x1BAC, symBinAddr: 0x22C04, symSize: 0x24 }
  - { offsetInCU: 0x6654, offset: 0x86499, size: 0x8, addend: 0x0, symName: __RNvMs1_NtCs9PXnr41oVbh_10rayon_core3jobINtB5_8StackJobNtNtB7_5latch9SpinLatchNCINvNvNtB7_4join12join_context6call_bINtNtNtCs9xDkXAC1PNF_5alloc11collections11linked_list10LinkedListINtNtB1W_3vec3VecbEENCINvNvNtNtCslkboY0IC5z6_5rayon4iter8plumbing24bridge_producer_consumer6helperINtNtB3n_5range12IterProducerjEINtNtB3l_3map11MapConsumerNtNtB3l_6extend15ListVecConsumerNCNvMNtNtCsaYfPqFfImBE_4dprs4life8model_2dINtB5Y_14LatticeModel2DNtNtB60_10life_model9LifeModelE23next_iteration_parallel0EEs_0E0B1P_E10run_inlineB62_, symObjAddr: 0x1BD0, symBinAddr: 0x22C28, symSize: 0xE0 }
  - { offsetInCU: 0x66F8, offset: 0x8653D, size: 0x8, addend: 0x0, symName: __RNvMs1_NtCs9PXnr41oVbh_10rayon_core3jobINtB5_8StackJobNtNtB7_5latch9SpinLatchNCINvNvNtB7_4join12join_context6call_bINtNtNtCs9xDkXAC1PNF_5alloc11collections11linked_list10LinkedListINtNtB1W_3vec3VecbEENCINvNvNtNtCslkboY0IC5z6_5rayon4iter8plumbing24bridge_producer_consumer6helperINtNtB3n_5range12IterProducerjEINtNtB3l_3map11MapConsumerNtNtB3l_6extend15ListVecConsumerNCNvMNtNtCsaYfPqFfImBE_4dprs4life8model_2dINtB5Y_14LatticeModel2DNtNtB60_10life_model9LifeModelE23next_iteration_parallel0EEs_0E0B1P_E11into_resultB62_, symObjAddr: 0x1CB0, symBinAddr: 0x22D08, symSize: 0x70 }
  - { offsetInCU: 0x678B, offset: 0x865D0, size: 0x8, addend: 0x0, symName: __RNvMs1_NtCs9PXnr41oVbh_10rayon_core3jobINtB5_8StackJobNtNtB7_5latch9SpinLatchNCINvNvNtB7_4join12join_context6call_bINtNtNtCs9xDkXAC1PNF_5alloc11collections11linked_list10LinkedListINtNtB1W_3vec3VecbEENCINvNvNtNtCslkboY0IC5z6_5rayon4iter8plumbing24bridge_producer_consumer6helperINtNtB3n_5range12IterProducerjEINtNtB3l_3map11MapConsumerNtNtB3l_6extend15ListVecConsumerNCNvMNtNtCsaYfPqFfImBE_4dprs4life8model_2dINtB5Y_14LatticeModel2DNtNtB60_10life_model9LifeModelE23next_iteration_parallel0EEs_0E0B1P_E3newB62_, symObjAddr: 0x1D20, symBinAddr: 0x22D78, symSize: 0xC0 }
  - { offsetInCU: 0x6820, offset: 0x86665, size: 0x8, addend: 0x0, symName: __RNvMs1_NtCs9PXnr41oVbh_10rayon_core3jobINtB5_8StackJobNtNtB7_5latch9SpinLatchNCINvNvNtB7_4join12join_context6call_bINtNtNtNtCslkboY0IC5z6_5rayon4iter7collect8consumer13CollectResultbENCINvNvNtB1W_8plumbing24bridge_producer_consumer6helperINtNtB1Y_5range12IterProducerjEINtNtB1W_3map11MapConsumerINtB1S_15CollectConsumerbENCNvMNtNtCsaYfPqFfImBE_4dprs4life8model_2dINtB5e_14LatticeModel2DNtNtB5g_10life_model9LifeModelE23next_iteration_parallel0EEs_0E0B1P_E10as_job_refB5i_, symObjAddr: 0x1DE0, symBinAddr: 0x22E38, symSize: 0x24 }
  - { offsetInCU: 0x68A4, offset: 0x866E9, size: 0x8, addend: 0x0, symName: __RNvMs1_NtCs9PXnr41oVbh_10rayon_core3jobINtB5_8StackJobNtNtB7_5latch9SpinLatchNCINvNvNtB7_4join12join_context6call_bINtNtNtNtCslkboY0IC5z6_5rayon4iter7collect8consumer13CollectResultbENCINvNvNtB1W_8plumbing24bridge_producer_consumer6helperINtNtB1Y_5range12IterProducerjEINtNtB1W_3map11MapConsumerINtB1S_15CollectConsumerbENCNvMNtNtCsaYfPqFfImBE_4dprs4life8model_2dINtB5e_14LatticeModel2DNtNtB5g_10life_model9LifeModelE23next_iteration_parallel0EEs_0E0B1P_E10run_inlineB5i_, symObjAddr: 0x1E04, symBinAddr: 0x22E5C, symSize: 0xF4 }
  - { offsetInCU: 0x6948, offset: 0x8678D, size: 0x8, addend: 0x0, symName: __RNvMs1_NtCs9PXnr41oVbh_10rayon_core3jobINtB5_8StackJobNtNtB7_5latch9SpinLatchNCINvNvNtB7_4join12join_context6call_bINtNtNtNtCslkboY0IC5z6_5rayon4iter7collect8consumer13CollectResultbENCINvNvNtB1W_8plumbing24bridge_producer_consumer6helperINtNtB1Y_5range12IterProducerjEINtNtB1W_3map11MapConsumerINtB1S_15CollectConsumerbENCNvMNtNtCsaYfPqFfImBE_4dprs4life8model_2dINtB5e_14LatticeModel2DNtNtB5g_10life_model9LifeModelE23next_iteration_parallel0EEs_0E0B1P_E11into_resultB5i_, symObjAddr: 0x1EF8, symBinAddr: 0x22F50, symSize: 0x70 }
  - { offsetInCU: 0x69DB, offset: 0x86820, size: 0x8, addend: 0x0, symName: __RNvMs1_NtCs9PXnr41oVbh_10rayon_core3jobINtB5_8StackJobNtNtB7_5latch9SpinLatchNCINvNvNtB7_4join12join_context6call_bINtNtNtNtCslkboY0IC5z6_5rayon4iter7collect8consumer13CollectResultbENCINvNvNtB1W_8plumbing24bridge_producer_consumer6helperINtNtB1Y_5range12IterProducerjEINtNtB1W_3map11MapConsumerINtB1S_15CollectConsumerbENCNvMNtNtCsaYfPqFfImBE_4dprs4life8model_2dINtB5e_14LatticeModel2DNtNtB5g_10life_model9LifeModelE23next_iteration_parallel0EEs_0E0B1P_E3newB5i_, symObjAddr: 0x1F68, symBinAddr: 0x22FC0, symSize: 0xBC }
  - { offsetInCU: 0x6A70, offset: 0x868B5, size: 0x8, addend: 0x0, symName: __RNvMs1_NtCs9PXnr41oVbh_10rayon_core3jobINtB5_8StackJobNtNtB7_5latch9SpinLatchNCINvNvNtB7_4join12join_context6call_buNCINvNvNtNtCslkboY0IC5z6_5rayon4iter8plumbing24bridge_producer_consumer6helperINtNtB1Z_9enumerate17EnumerateProducerINtNtNtB21_5slice6chunks17ChunksMutProducerbEEINtNtB1Z_8for_each15ForEachConsumerNCNvMNtNtCsaYfPqFfImBE_4dprs4life8model_2dINtB56_14LatticeModel2DNtNtB58_10life_model9LifeModelE31next_iteration_parallel_chunked0EEs_0E0uE10as_job_refB5a_, symObjAddr: 0x2024, symBinAddr: 0x2307C, symSize: 0x24 }
  - { offsetInCU: 0x6AF4, offset: 0x86939, size: 0x8, addend: 0x0, symName: __RNvMs1_NtCs9PXnr41oVbh_10rayon_core3jobINtB5_8StackJobNtNtB7_5latch9SpinLatchNCINvNvNtB7_4join12join_context6call_buNCINvNvNtNtCslkboY0IC5z6_5rayon4iter8plumbing24bridge_producer_consumer6helperINtNtB1Z_9enumerate17EnumerateProducerINtNtNtB21_5slice6chunks17ChunksMutProducerbEEINtNtB1Z_8for_each15ForEachConsumerNCNvMNtNtCsaYfPqFfImBE_4dprs4life8model_2dINtB56_14LatticeModel2DNtNtB58_10life_model9LifeModelE31next_iteration_parallel_chunked0EEs_0E0uE10run_inlineB5a_, symObjAddr: 0x2048, symBinAddr: 0x230A0, symSize: 0xEC }
  - { offsetInCU: 0x6B98, offset: 0x869DD, size: 0x8, addend: 0x0, symName: __RNvMs1_NtCs9PXnr41oVbh_10rayon_core3jobINtB5_8StackJobNtNtB7_5latch9SpinLatchNCINvNvNtB7_4join12join_context6call_buNCINvNvNtNtCslkboY0IC5z6_5rayon4iter8plumbing24bridge_producer_consumer6helperINtNtB1Z_9enumerate17EnumerateProducerINtNtNtB21_5slice6chunks17ChunksMutProducerbEEINtNtB1Z_8for_each15ForEachConsumerNCNvMNtNtCsaYfPqFfImBE_4dprs4life8model_2dINtB56_14LatticeModel2DNtNtB58_10life_model9LifeModelE31next_iteration_parallel_chunked0EEs_0E0uE11into_resultB5a_, symObjAddr: 0x2134, symBinAddr: 0x2318C, symSize: 0x68 }
  - { offsetInCU: 0x6C2B, offset: 0x86A70, size: 0x8, addend: 0x0, symName: __RNvMs1_NtCs9PXnr41oVbh_10rayon_core3jobINtB5_8StackJobNtNtB7_5latch9SpinLatchNCINvNvNtB7_4join12join_context6call_buNCINvNvNtNtCslkboY0IC5z6_5rayon4iter8plumbing24bridge_producer_consumer6helperINtNtB1Z_9enumerate17EnumerateProducerINtNtNtB21_5slice6chunks17ChunksMutProducerbEEINtNtB1Z_8for_each15ForEachConsumerNCNvMNtNtCsaYfPqFfImBE_4dprs4life8model_2dINtB56_14LatticeModel2DNtNtB58_10life_model9LifeModelE31next_iteration_parallel_chunked0EEs_0E0uE3newB5a_, symObjAddr: 0x219C, symBinAddr: 0x231F4, symSize: 0xBC }
  - { offsetInCU: 0x6CB3, offset: 0x86AF8, size: 0x8, addend: 0x0, symName: __RNvMs7_NtCs9PXnr41oVbh_10rayon_core3jobINtB5_9JobResultINtNtNtCs9xDkXAC1PNF_5alloc11collections11linked_list10LinkedListINtNtBY_3vec3VecbEEE17into_return_valueCsaYfPqFfImBE_4dprs, symObjAddr: 0x2258, symBinAddr: 0x232B0, symSize: 0x90 }
  - { offsetInCU: 0x6CFC, offset: 0x86B41, size: 0x8, addend: 0x0, symName: __RNvMs7_NtCs9PXnr41oVbh_10rayon_core3jobINtB5_9JobResultINtNtNtNtCslkboY0IC5z6_5rayon4iter7collect8consumer13CollectResultbEE17into_return_valueCsaYfPqFfImBE_4dprs, symObjAddr: 0x22E8, symBinAddr: 0x23340, symSize: 0x90 }
  - { offsetInCU: 0x6D45, offset: 0x86B8A, size: 0x8, addend: 0x0, symName: __RNvMs7_NtCs9PXnr41oVbh_10rayon_core3jobINtB5_9JobResultTINtNtNtCs9xDkXAC1PNF_5alloc11collections11linked_list10LinkedListINtNtBZ_3vec3VecbEEBS_EE17into_return_valueCsaYfPqFfImBE_4dprs, symObjAddr: 0x2378, symBinAddr: 0x233D0, symSize: 0x90 }
  - { offsetInCU: 0x6D8E, offset: 0x86BD3, size: 0x8, addend: 0x0, symName: __RNvMs7_NtCs9PXnr41oVbh_10rayon_core3jobINtB5_9JobResultTINtNtNtNtCslkboY0IC5z6_5rayon4iter7collect8consumer13CollectResultbEBS_EE17into_return_valueCsaYfPqFfImBE_4dprs, symObjAddr: 0x2408, symBinAddr: 0x23460, symSize: 0x90 }
  - { offsetInCU: 0x6DD7, offset: 0x86C1C, size: 0x8, addend: 0x0, symName: __RNvMs7_NtCs9PXnr41oVbh_10rayon_core3jobINtB5_9JobResultTjINtNtCs9xDkXAC1PNF_5alloc3vec3VecIBU_bEEEE17into_return_valueCsaYfPqFfImBE_4dprs, symObjAddr: 0x2498, symBinAddr: 0x234F0, symSize: 0xA4 }
  - { offsetInCU: 0x6E20, offset: 0x86C65, size: 0x8, addend: 0x0, symName: __RNvMs7_NtCs9PXnr41oVbh_10rayon_core3jobINtB5_9JobResultTuuEE17into_return_valueCsaYfPqFfImBE_4dprs, symObjAddr: 0x253C, symBinAddr: 0x23594, symSize: 0x74 }
  - { offsetInCU: 0x6E69, offset: 0x86CAE, size: 0x8, addend: 0x0, symName: __RNvMs7_NtCs9PXnr41oVbh_10rayon_core3jobINtB5_9JobResultuE17into_return_valueCsaYfPqFfImBE_4dprs, symObjAddr: 0x25B0, symBinAddr: 0x23608, symSize: 0x74 }
  - { offsetInCU: 0x1E, offset: 0x872FB, size: 0x8, addend: 0x0, symName: __RINvMNtCs2tD97QJu26F_4core5sliceSb8as_arrayKj3_ECsaYfPqFfImBE_4dprs, symObjAddr: 0x0, symBinAddr: 0x25C78, symSize: 0x4C }
  - { offsetInCU: 0x870, offset: 0x87B4D, size: 0x8, addend: 0x0, symName: __RINvMNtCs2tD97QJu26F_4core5sliceSb8as_arrayKj3_ECsaYfPqFfImBE_4dprs, symObjAddr: 0x0, symBinAddr: 0x25C78, symSize: 0x4C }
  - { offsetInCU: 0x98B, offset: 0x87C68, size: 0x8, addend: 0x0, symName: __RNvMNtCs2tD97QJu26F_4core5sliceSb10chunks_mutCsaYfPqFfImBE_4dprs, symObjAddr: 0xF8, symBinAddr: 0x25D70, symSize: 0x84 }
  - { offsetInCU: 0xA2A, offset: 0x87D07, size: 0x8, addend: 0x0, symName: __RNvMNtCs2tD97QJu26F_4core5sliceSb12split_at_mutCsaYfPqFfImBE_4dprs, symObjAddr: 0x17C, symBinAddr: 0x25DF4, symSize: 0xAC }
  - { offsetInCU: 0xAB5, offset: 0x87D92, size: 0x8, addend: 0x0, symName: __RNvMNtCs2tD97QJu26F_4core5sliceSb18split_at_uncheckedCsaYfPqFfImBE_4dprs, symObjAddr: 0x228, symBinAddr: 0x25EA0, symSize: 0xE8 }
  - { offsetInCU: 0xBEE, offset: 0x87ECB, size: 0x8, addend: 0x0, symName: __RNvMNtCs2tD97QJu26F_4core5sliceSb22split_at_mut_uncheckedCsaYfPqFfImBE_4dprs, symObjAddr: 0x310, symBinAddr: 0x25F88, symSize: 0xE8 }
  - { offsetInCU: 0xD00, offset: 0x87FDD, size: 0x8, addend: 0x0, symName: __RNvMNtCs2tD97QJu26F_4core5sliceSb4iterCsaYfPqFfImBE_4dprs, symObjAddr: 0x3F8, symBinAddr: 0x26070, symSize: 0x28 }
  - { offsetInCU: 0xD37, offset: 0x88014, size: 0x8, addend: 0x0, symName: __RNvMNtCs2tD97QJu26F_4core5sliceSb6chunksCsaYfPqFfImBE_4dprs, symObjAddr: 0x420, symBinAddr: 0x26098, symSize: 0x84 }
  - { offsetInCU: 0xDA3, offset: 0x88080, size: 0x8, addend: 0x0, symName: __RNvMNtCs2tD97QJu26F_4core5sliceSb7windowsCsaYfPqFfImBE_4dprs, symObjAddr: 0x4A4, symBinAddr: 0x2611C, symSize: 0x98 }
  - { offsetInCU: 0xE69, offset: 0x88146, size: 0x8, addend: 0x0, symName: __RNvMNtCs2tD97QJu26F_4core5sliceSb8iter_mutCsaYfPqFfImBE_4dprs, symObjAddr: 0x53C, symBinAddr: 0x261B4, symSize: 0x28 }
  - { offsetInCU: 0xED3, offset: 0x881B0, size: 0x8, addend: 0x0, symName: __RNvMNtCs2tD97QJu26F_4core5sliceSb8split_atCsaYfPqFfImBE_4dprs, symObjAddr: 0x564, symBinAddr: 0x261DC, symSize: 0xAC }
  - { offsetInCU: 0xF38, offset: 0x88215, size: 0x8, addend: 0x0, symName: __RINvNtCs2tD97QJu26F_4core5slice20copy_from_slice_implINtNtB4_6option6OptionINtNtCsF7gmULBm3O_4pyo38instance8BorrowedNtNtNtB1g_5types3any5PyAnyEEECsaYfPqFfImBE_4dprs, symObjAddr: 0x4C, symBinAddr: 0x25CC4, symSize: 0xAC }
  - { offsetInCU: 0x1E, offset: 0x89A84, size: 0x8, addend: 0x0, symName: __RNCNvNtNtNtCsF7gmULBm3O_4pyo35impl_10trampoline9unaryfunc5inner0CsaYfPqFfImBE_4dprs, symObjAddr: 0x0, symBinAddr: 0x26288, symSize: 0x34 }
  - { offsetInCU: 0x14C8, offset: 0x8AF2E, size: 0x8, addend: 0x0, symName: __RNCNvNtNtNtCsF7gmULBm3O_4pyo35impl_10trampoline9unaryfunc5inner0CsaYfPqFfImBE_4dprs, symObjAddr: 0x0, symBinAddr: 0x26288, symSize: 0x34 }
  - { offsetInCU: 0x1E, offset: 0x8B806, size: 0x8, addend: 0x0, symName: __RNvMs3_NtCsF7gmULBm3O_4pyo34syncNtB5_8Interned3getCsaYfPqFfImBE_4dprs, symObjAddr: 0x0, symBinAddr: 0x262BC, symSize: 0x48 }
  - { offsetInCU: 0x1E08, offset: 0x8D5F0, size: 0x8, addend: 0x0, symName: __RNvMs3_NtCsF7gmULBm3O_4pyo34syncNtB5_8Interned3getCsaYfPqFfImBE_4dprs, symObjAddr: 0x0, symBinAddr: 0x262BC, symSize: 0x48 }
  - { offsetInCU: 0x1E, offset: 0x8D649, size: 0x8, addend: 0x0, symName: __RNvMNtCs2tD97QJu26F_4core4timeNtB2_8Duration11as_secs_f64CsaYfPqFfImBE_4dprs, symObjAddr: 0x0, symBinAddr: 0x26304, symSize: 0x3C }
  - { offsetInCU: 0xB1, offset: 0x8D6DC, size: 0x8, addend: 0x0, symName: __RNvMNtCs2tD97QJu26F_4core4timeNtB2_8Duration11as_secs_f64CsaYfPqFfImBE_4dprs, symObjAddr: 0x0, symBinAddr: 0x26304, symSize: 0x3C }
  - { offsetInCU: 0x1E, offset: 0x8D71D, size: 0x8, addend: 0x0, symName: __RINvXs0_NtNtCslkboY0IC5z6_5rayon4iter6extendINtB6_13ListVecFolderbEINtNtB8_8plumbing6FolderbE12consume_iterINtNtNtNtCs2tD97QJu26F_4core4iter8adapters3map3MapINtNtNtB1Q_3ops5range5RangejERNCNvMNtNtCsaYfPqFfImBE_4dprs4life8model_2dINtB34_14LatticeModel2DNtNtB36_10life_model9LifeModelE23next_iteration_parallel0EEB38_, symObjAddr: 0x0, symBinAddr: 0x26340, symSize: 0x80 }
  - { offsetInCU: 0x3F, offset: 0x8D73E, size: 0x8, addend: 0x0, symName: __RINvXs0_NtNtCslkboY0IC5z6_5rayon4iter6extendINtB6_13ListVecFolderbEINtNtB8_8plumbing6FolderbE12consume_iterINtNtNtNtCs2tD97QJu26F_4core4iter8adapters3map3MapINtNtNtB1Q_3ops5range5RangejERNCNvMNtNtCsaYfPqFfImBE_4dprs4life8model_2dINtB34_14LatticeModel2DNtNtB36_10life_model9LifeModelE23next_iteration_parallel0EEB38_, symObjAddr: 0x0, symBinAddr: 0x26340, symSize: 0x80 }
  - { offsetInCU: 0x8D, offset: 0x8D78C, size: 0x8, addend: 0x0, symName: __RNvXs0_NtNtCslkboY0IC5z6_5rayon4iter6extendINtB5_13ListVecFolderbEINtNtB7_8plumbing6FolderbE8completeCsaYfPqFfImBE_4dprs, symObjAddr: 0xE0, symBinAddr: 0x26420, symSize: 0xFC }
  - { offsetInCU: 0xDE, offset: 0x8D7DD, size: 0x8, addend: 0x0, symName: __RNvXNtNtCslkboY0IC5z6_5rayon4iter6extendNtB2_15ListVecConsumerINtNtB4_8plumbing8ConsumerbE11into_folderCsaYfPqFfImBE_4dprs, symObjAddr: 0x80, symBinAddr: 0x263C0, symSize: 0x38 }
  - { offsetInCU: 0x11E, offset: 0x8D81D, size: 0x8, addend: 0x0, symName: __RNvXNtNtCslkboY0IC5z6_5rayon4iter6extendNtB2_15ListVecConsumerINtNtB4_8plumbing8ConsumerbE4fullCsaYfPqFfImBE_4dprs, symObjAddr: 0xB8, symBinAddr: 0x263F8, symSize: 0x18 }
  - { offsetInCU: 0x153, offset: 0x8D852, size: 0x8, addend: 0x0, symName: __RNvXNtNtCslkboY0IC5z6_5rayon4iter6extendNtB2_15ListVecConsumerINtNtB4_8plumbing8ConsumerbE8split_atCsaYfPqFfImBE_4dprs, symObjAddr: 0xD0, symBinAddr: 0x26410, symSize: 0x10 }
  - { offsetInCU: 0x1A3, offset: 0x8D8A2, size: 0x8, addend: 0x0, symName: __RNvXsg_NtNtCslkboY0IC5z6_5rayon4iter6extendNtB5_11ListReducerINtNtB7_8plumbing7ReducerINtNtNtCs9xDkXAC1PNF_5alloc11collections11linked_list10LinkedListINtNtB1t_3vec3VecbEEE6reduceCsaYfPqFfImBE_4dprs, symObjAddr: 0x1DC, symBinAddr: 0x2651C, symSize: 0xB0 }
  - { offsetInCU: 0x1E, offset: 0x8DD52, size: 0x8, addend: 0x0, symName: __RNvXs1_NtNtCsF7gmULBm3O_4pyo35types3anyNtB5_5PyAnyNtNtB9_11type_object10PyTypeInfo15type_object_rawCsaYfPqFfImBE_4dprs, symObjAddr: 0x0, symBinAddr: 0x265CC, symSize: 0x24 }
  - { offsetInCU: 0x115B, offset: 0x8EE8F, size: 0x8, addend: 0x0, symName: __RNvXs1_NtNtCsF7gmULBm3O_4pyo35types3anyNtB5_5PyAnyNtNtB9_11type_object10PyTypeInfo15type_object_rawCsaYfPqFfImBE_4dprs, symObjAddr: 0x0, symBinAddr: 0x265CC, symSize: 0x24 }
  - { offsetInCU: 0x1E, offset: 0x8F3E3, size: 0x8, addend: 0x0, symName: __RNvMNtNtCsF7gmULBm3O_4pyo38internal5stateNtB2_11AttachGuard6pythonCsaYfPqFfImBE_4dprs, symObjAddr: 0x0, symBinAddr: 0x265F0, symSize: 0x20 }
  - { offsetInCU: 0xD4, offset: 0x8F499, size: 0x8, addend: 0x0, symName: __RNvMNtNtCsF7gmULBm3O_4pyo38internal5stateNtB2_11AttachGuard6pythonCsaYfPqFfImBE_4dprs, symObjAddr: 0x0, symBinAddr: 0x265F0, symSize: 0x20 }
  - { offsetInCU: 0x1E, offset: 0x8F4D9, size: 0x8, addend: 0x0, symName: __RNvXsn_NtNtCs2tD97QJu26F_4core5panic11unwind_safeINtB5_16AssertUnwindSafeNCINvMs7_NtCs9PXnr41oVbh_10rayon_core3jobINtB1i_9JobResultINtNtNtCs9xDkXAC1PNF_5alloc11collections11linked_list10LinkedListINtNtB2c_3vec3VecbEEE4callNCINvNvNtB1k_4join12join_context6call_bB25_NCINvNvNtNtCslkboY0IC5z6_5rayon4iter8plumbing24bridge_producer_consumer6helperINtNtB4q_5range12IterProducerjEINtNtB4o_3map11MapConsumerNtNtB4o_6extend15ListVecConsumerNCNvMNtNtCsaYfPqFfImBE_4dprs4life8model_2dINtB71_14LatticeModel2DNtNtB73_10life_model9LifeModelE23next_iteration_parallel0EEs_0E0E0EINtNtNtB9_3ops8function6FnOnceuE9call_onceB75_, symObjAddr: 0x0, symBinAddr: 0x26610, symSize: 0x40 }
  - { offsetInCU: 0x34B, offset: 0x8F806, size: 0x8, addend: 0x0, symName: __RNvXsn_NtNtCs2tD97QJu26F_4core5panic11unwind_safeINtB5_16AssertUnwindSafeNCINvMs7_NtCs9PXnr41oVbh_10rayon_core3jobINtB1i_9JobResultINtNtNtCs9xDkXAC1PNF_5alloc11collections11linked_list10LinkedListINtNtB2c_3vec3VecbEEE4callNCINvNvNtB1k_4join12join_context6call_bB25_NCINvNvNtNtCslkboY0IC5z6_5rayon4iter8plumbing24bridge_producer_consumer6helperINtNtB4q_5range12IterProducerjEINtNtB4o_3map11MapConsumerNtNtB4o_6extend15ListVecConsumerNCNvMNtNtCsaYfPqFfImBE_4dprs4life8model_2dINtB71_14LatticeModel2DNtNtB73_10life_model9LifeModelE23next_iteration_parallel0EEs_0E0E0EINtNtNtB9_3ops8function6FnOnceuE9call_onceB75_, symObjAddr: 0x0, symBinAddr: 0x26610, symSize: 0x40 }
  - { offsetInCU: 0x3A7, offset: 0x8F862, size: 0x8, addend: 0x0, symName: __RNvXsn_NtNtCs2tD97QJu26F_4core5panic11unwind_safeINtB5_16AssertUnwindSafeNCINvMs7_NtCs9PXnr41oVbh_10rayon_core3jobINtB1i_9JobResultINtNtNtNtCslkboY0IC5z6_5rayon4iter7collect8consumer13CollectResultbEE4callNCINvNvNtB1k_4join12join_context6call_bB25_NCINvNvNtB2c_8plumbing24bridge_producer_consumer6helperINtNtB2e_5range12IterProducerjEINtNtB2c_3map11MapConsumerINtB28_15CollectConsumerbENCNvMNtNtCsaYfPqFfImBE_4dprs4life8model_2dINtB6h_14LatticeModel2DNtNtB6j_10life_model9LifeModelE23next_iteration_parallel0EEs_0E0E0EINtNtNtB9_3ops8function6FnOnceuE9call_onceB6l_, symObjAddr: 0x40, symBinAddr: 0x26650, symSize: 0x40 }
  - { offsetInCU: 0x403, offset: 0x8F8BE, size: 0x8, addend: 0x0, symName: __RNvXsn_NtNtCs2tD97QJu26F_4core5panic11unwind_safeINtB5_16AssertUnwindSafeNCINvMs7_NtCs9PXnr41oVbh_10rayon_core3jobINtB1i_9JobResultTINtNtNtCs9xDkXAC1PNF_5alloc11collections11linked_list10LinkedListINtNtB2d_3vec3VecbEEB26_EE4callNCINvMs4_NtB1k_8registryNtB3N_8Registry15in_worker_crossNCINvNtB1k_4join12join_contextNCINvNvNtNtCslkboY0IC5z6_5rayon4iter8plumbing24bridge_producer_consumer6helperINtNtB5d_5range12IterProducerjEINtNtB5b_3map11MapConsumerNtNtB5b_6extend15ListVecConsumerNCNvMNtNtCsaYfPqFfImBE_4dprs4life8model_2dINtB7O_14LatticeModel2DNtNtB7Q_10life_model9LifeModelE23next_iteration_parallel0EE0NCB54_s_0B26_B26_E0B25_E0E0EINtNtNtB9_3ops8function6FnOnceuE9call_onceB7S_, symObjAddr: 0x80, symBinAddr: 0x26690, symSize: 0x40 }
  - { offsetInCU: 0x45F, offset: 0x8F91A, size: 0x8, addend: 0x0, symName: __RNvXsn_NtNtCs2tD97QJu26F_4core5panic11unwind_safeINtB5_16AssertUnwindSafeNCINvMs7_NtCs9PXnr41oVbh_10rayon_core3jobINtB1i_9JobResultTINtNtNtCs9xDkXAC1PNF_5alloc11collections11linked_list10LinkedListINtNtB2d_3vec3VecbEEB26_EE4callNCNCINvMs4_NtB1k_8registryNtB3P_8Registry14in_worker_coldNCINvNtB1k_4join12join_contextNCINvNvNtNtCslkboY0IC5z6_5rayon4iter8plumbing24bridge_producer_consumer6helperINtNtB5e_5range12IterProducerjEINtNtB5c_3map11MapConsumerNtNtB5c_6extend15ListVecConsumerNCNvMNtNtCsaYfPqFfImBE_4dprs4life8model_2dINtB7P_14LatticeModel2DNtNtB7R_10life_model9LifeModelE23next_iteration_parallel0EE0NCB55_s_0B26_B26_E0B25_E00E0EINtNtNtB9_3ops8function6FnOnceuE9call_onceB7T_, symObjAddr: 0xC0, symBinAddr: 0x266D0, symSize: 0x40 }
  - { offsetInCU: 0x4BB, offset: 0x8F976, size: 0x8, addend: 0x0, symName: __RNvXsn_NtNtCs2tD97QJu26F_4core5panic11unwind_safeINtB5_16AssertUnwindSafeNCINvMs7_NtCs9PXnr41oVbh_10rayon_core3jobINtB1i_9JobResultTINtNtNtNtCslkboY0IC5z6_5rayon4iter7collect8consumer13CollectResultbEB26_EE4callNCINvMs4_NtB1k_8registryNtB3w_8Registry15in_worker_crossNCINvNtB1k_4join12join_contextNCINvNvNtB2d_8plumbing24bridge_producer_consumer6helperINtNtB2f_5range12IterProducerjEINtNtB2d_3map11MapConsumerINtB29_15CollectConsumerbENCNvMNtNtCsaYfPqFfImBE_4dprs4life8model_2dINtB74_14LatticeModel2DNtNtB76_10life_model9LifeModelE23next_iteration_parallel0EE0NCB4N_s_0B26_B26_E0B25_E0E0EINtNtNtB9_3ops8function6FnOnceuE9call_onceB78_, symObjAddr: 0x100, symBinAddr: 0x26710, symSize: 0x40 }
  - { offsetInCU: 0x517, offset: 0x8F9D2, size: 0x8, addend: 0x0, symName: __RNvXsn_NtNtCs2tD97QJu26F_4core5panic11unwind_safeINtB5_16AssertUnwindSafeNCINvMs7_NtCs9PXnr41oVbh_10rayon_core3jobINtB1i_9JobResultTINtNtNtNtCslkboY0IC5z6_5rayon4iter7collect8consumer13CollectResultbEB26_EE4callNCNCINvMs4_NtB1k_8registryNtB3y_8Registry14in_worker_coldNCINvNtB1k_4join12join_contextNCINvNvNtB2d_8plumbing24bridge_producer_consumer6helperINtNtB2f_5range12IterProducerjEINtNtB2d_3map11MapConsumerINtB29_15CollectConsumerbENCNvMNtNtCsaYfPqFfImBE_4dprs4life8model_2dINtB75_14LatticeModel2DNtNtB77_10life_model9LifeModelE23next_iteration_parallel0EE0NCB4O_s_0B26_B26_E0B25_E00E0EINtNtNtB9_3ops8function6FnOnceuE9call_onceB79_, symObjAddr: 0x140, symBinAddr: 0x26750, symSize: 0x40 }
  - { offsetInCU: 0x573, offset: 0x8FA2E, size: 0x8, addend: 0x0, symName: __RNvXsn_NtNtCs2tD97QJu26F_4core5panic11unwind_safeINtB5_16AssertUnwindSafeNCINvMs7_NtCs9PXnr41oVbh_10rayon_core3jobINtB1i_9JobResultTjINtNtCs9xDkXAC1PNF_5alloc3vec3VecIB28_bEEEE4callNCINvMs4_NtB1k_8registryNtB32_8Registry15in_worker_crossNCINvMNtB1k_11thread_poolNtB3T_10ThreadPool7installNCNvNtCsaYfPqFfImBE_4dprs2dp14run_simulation0B25_E0B25_E0E0EINtNtNtB9_3ops8function6FnOnceuE9call_onceB4I_, symObjAddr: 0x180, symBinAddr: 0x26790, symSize: 0x40 }
  - { offsetInCU: 0x5CF, offset: 0x8FA8A, size: 0x8, addend: 0x0, symName: __RNvXsn_NtNtCs2tD97QJu26F_4core5panic11unwind_safeINtB5_16AssertUnwindSafeNCINvMs7_NtCs9PXnr41oVbh_10rayon_core3jobINtB1i_9JobResultTjINtNtCs9xDkXAC1PNF_5alloc3vec3VecIB28_bEEEE4callNCINvMs4_NtB1k_8registryNtB32_8Registry15in_worker_crossNCINvMNtB1k_11thread_poolNtB3T_10ThreadPool7installNCNvNtCsaYfPqFfImBE_4dprs4life14run_simulation0B25_E0B25_E0E0EINtNtNtB9_3ops8function6FnOnceuE9call_onceB4I_, symObjAddr: 0x1C0, symBinAddr: 0x267D0, symSize: 0x40 }
  - { offsetInCU: 0x62B, offset: 0x8FAE6, size: 0x8, addend: 0x0, symName: __RNvXsn_NtNtCs2tD97QJu26F_4core5panic11unwind_safeINtB5_16AssertUnwindSafeNCINvMs7_NtCs9PXnr41oVbh_10rayon_core3jobINtB1i_9JobResultTjINtNtCs9xDkXAC1PNF_5alloc3vec3VecIB28_bEEEE4callNCNCINvMs4_NtB1k_8registryNtB34_8Registry14in_worker_coldNCINvMNtB1k_11thread_poolNtB3U_10ThreadPool7installNCNvNtCsaYfPqFfImBE_4dprs2dp14run_simulation0B25_E0B25_E00E0EINtNtNtB9_3ops8function6FnOnceuE9call_onceB4J_, symObjAddr: 0x200, symBinAddr: 0x26810, symSize: 0x40 }
  - { offsetInCU: 0x687, offset: 0x8FB42, size: 0x8, addend: 0x0, symName: __RNvXsn_NtNtCs2tD97QJu26F_4core5panic11unwind_safeINtB5_16AssertUnwindSafeNCINvMs7_NtCs9PXnr41oVbh_10rayon_core3jobINtB1i_9JobResultTjINtNtCs9xDkXAC1PNF_5alloc3vec3VecIB28_bEEEE4callNCNCINvMs4_NtB1k_8registryNtB34_8Registry14in_worker_coldNCINvMNtB1k_11thread_poolNtB3U_10ThreadPool7installNCNvNtCsaYfPqFfImBE_4dprs4life14run_simulation0B25_E0B25_E00E0EINtNtNtB9_3ops8function6FnOnceuE9call_onceB4J_, symObjAddr: 0x240, symBinAddr: 0x26850, symSize: 0x40 }
  - { offsetInCU: 0x6E3, offset: 0x8FB9E, size: 0x8, addend: 0x0, symName: __RNvXsn_NtNtCs2tD97QJu26F_4core5panic11unwind_safeINtB5_16AssertUnwindSafeNCINvMs7_NtCs9PXnr41oVbh_10rayon_core3jobINtB1i_9JobResultTuuEE4callNCINvMs4_NtB1k_8registryNtB2o_8Registry15in_worker_crossNCINvNtB1k_4join12join_contextNCINvNvNtNtCslkboY0IC5z6_5rayon4iter8plumbing24bridge_producer_consumer6helperINtNtB3M_9enumerate17EnumerateProducerINtNtNtB3O_5slice6chunks17ChunksMutProducerbEEINtNtB3M_8for_each15ForEachConsumerNCNvMNtNtCsaYfPqFfImBE_4dprs4life8model_2dINtB6T_14LatticeModel2DNtNtB6V_10life_model9LifeModelE31next_iteration_parallel_chunked0EE0NCB3F_s_0uuE0B25_E0E0EINtNtNtB9_3ops8function6FnOnceuE9call_onceB6X_, symObjAddr: 0x280, symBinAddr: 0x26890, symSize: 0x38 }
  - { offsetInCU: 0x73B, offset: 0x8FBF6, size: 0x8, addend: 0x0, symName: __RNvXsn_NtNtCs2tD97QJu26F_4core5panic11unwind_safeINtB5_16AssertUnwindSafeNCINvMs7_NtCs9PXnr41oVbh_10rayon_core3jobINtB1i_9JobResultTuuEE4callNCNCINvMs4_NtB1k_8registryNtB2q_8Registry14in_worker_coldNCINvNtB1k_4join12join_contextNCINvNvNtNtCslkboY0IC5z6_5rayon4iter8plumbing24bridge_producer_consumer6helperINtNtB3N_9enumerate17EnumerateProducerINtNtNtB3P_5slice6chunks17ChunksMutProducerbEEINtNtB3N_8for_each15ForEachConsumerNCNvMNtNtCsaYfPqFfImBE_4dprs4life8model_2dINtB6U_14LatticeModel2DNtNtB6W_10life_model9LifeModelE31next_iteration_parallel_chunked0EE0NCB3G_s_0uuE0B25_E00E0EINtNtNtB9_3ops8function6FnOnceuE9call_onceB6Y_, symObjAddr: 0x2B8, symBinAddr: 0x268C8, symSize: 0x38 }
  - { offsetInCU: 0x793, offset: 0x8FC4E, size: 0x8, addend: 0x0, symName: __RNvXsn_NtNtCs2tD97QJu26F_4core5panic11unwind_safeINtB5_16AssertUnwindSafeNCINvMs7_NtCs9PXnr41oVbh_10rayon_core3jobINtB1i_9JobResultuE4callNCINvNvNtB1k_4join12join_context6call_buNCINvNvNtNtCslkboY0IC5z6_5rayon4iter8plumbing24bridge_producer_consumer6helperINtNtB2Z_9enumerate17EnumerateProducerINtNtNtB31_5slice6chunks17ChunksMutProducerbEEINtNtB2Z_8for_each15ForEachConsumerNCNvMNtNtCsaYfPqFfImBE_4dprs4life8model_2dINtB66_14LatticeModel2DNtNtB68_10life_model9LifeModelE31next_iteration_parallel_chunked0EEs_0E0E0EINtNtNtB9_3ops8function6FnOnceuE9call_onceB6a_, symObjAddr: 0x2F0, symBinAddr: 0x26900, symSize: 0x38 }
  - { offsetInCU: 0x7EB, offset: 0x8FCA6, size: 0x8, addend: 0x0, symName: __RNvXsn_NtNtCs2tD97QJu26F_4core5panic11unwind_safeINtB5_16AssertUnwindSafeNCINvNvNtCs9PXnr41oVbh_10rayon_core4join12join_context6call_aINtNtNtCs9xDkXAC1PNF_5alloc11collections11linked_list10LinkedListINtNtB2f_3vec3VecbEENCINvNvNtNtCslkboY0IC5z6_5rayon4iter8plumbing24bridge_producer_consumer6helperINtNtB3G_5range12IterProducerjEINtNtB3E_3map11MapConsumerNtNtB3E_6extend15ListVecConsumerNCNvMNtNtCsaYfPqFfImBE_4dprs4life8model_2dINtB6h_14LatticeModel2DNtNtB6j_10life_model9LifeModelE23next_iteration_parallel0EE0E0EINtNtNtB9_3ops8function6FnOnceuE9call_onceB6l_, symObjAddr: 0x328, symBinAddr: 0x26938, symSize: 0x40 }
  - { offsetInCU: 0x847, offset: 0x8FD02, size: 0x8, addend: 0x0, symName: __RNvXsn_NtNtCs2tD97QJu26F_4core5panic11unwind_safeINtB5_16AssertUnwindSafeNCINvNvNtCs9PXnr41oVbh_10rayon_core4join12join_context6call_aINtNtNtNtCslkboY0IC5z6_5rayon4iter7collect8consumer13CollectResultbENCINvNvNtB2f_8plumbing24bridge_producer_consumer6helperINtNtB2h_5range12IterProducerjEINtNtB2f_3map11MapConsumerINtB2b_15CollectConsumerbENCNvMNtNtCsaYfPqFfImBE_4dprs4life8model_2dINtB5x_14LatticeModel2DNtNtB5z_10life_model9LifeModelE23next_iteration_parallel0EE0E0EINtNtNtB9_3ops8function6FnOnceuE9call_onceB5B_, symObjAddr: 0x368, symBinAddr: 0x26978, symSize: 0x40 }
  - { offsetInCU: 0x8A3, offset: 0x8FD5E, size: 0x8, addend: 0x0, symName: __RNvXsn_NtNtCs2tD97QJu26F_4core5panic11unwind_safeINtB5_16AssertUnwindSafeNCINvNvNtCs9PXnr41oVbh_10rayon_core4join12join_context6call_auNCINvNvNtNtCslkboY0IC5z6_5rayon4iter8plumbing24bridge_producer_consumer6helperINtNtB2i_9enumerate17EnumerateProducerINtNtNtB2k_5slice6chunks17ChunksMutProducerbEEINtNtB2i_8for_each15ForEachConsumerNCNvMNtNtCsaYfPqFfImBE_4dprs4life8model_2dINtB5p_14LatticeModel2DNtNtB5r_10life_model9LifeModelE31next_iteration_parallel_chunked0EE0E0EINtNtNtB9_3ops8function6FnOnceuE9call_onceB5t_, symObjAddr: 0x3A8, symBinAddr: 0x269B8, symSize: 0x38 }
  - { offsetInCU: 0x1E, offset: 0x90B6E, size: 0x8, addend: 0x0, symName: __RINvYNtNtNtCsF7gmULBm3O_4pyo35types5tuple21BorrowedTupleIteratorNtNtNtNtCs2tD97QJu26F_4core4iter6traits8iterator8Iterator3zipINtNtNtB16_8adapters6copied6CopiedINtNtNtB18_5slice4iter4IterINtNtB9_8instance8BorrowedNtNtB7_3any5PyAnyEEEECsaYfPqFfImBE_4dprs, symObjAddr: 0x0, symBinAddr: 0x269F0, symSize: 0xB4 }
  - { offsetInCU: 0x8FA, offset: 0x9144A, size: 0x8, addend: 0x0, symName: __RINvYNtNtNtCsF7gmULBm3O_4pyo35types5tuple21BorrowedTupleIteratorNtNtNtNtCs2tD97QJu26F_4core4iter6traits8iterator8Iterator3zipINtNtNtB16_8adapters6copied6CopiedINtNtNtB18_5slice4iter4IterINtNtB9_8instance8BorrowedNtNtB7_3any5PyAnyEEEECsaYfPqFfImBE_4dprs, symObjAddr: 0x0, symBinAddr: 0x269F0, symSize: 0xB4 }
  - { offsetInCU: 0x1838, offset: 0x92388, size: 0x8, addend: 0x0, symName: __RNvXst_NtNtCsF7gmULBm3O_4pyo35types5tupleTbbENtNtB9_10conversion12FromPyObject7extractCsaYfPqFfImBE_4dprs, symObjAddr: 0xB4, symBinAddr: 0x26AA4, symSize: 0x280 }
  - { offsetInCU: 0x337, offset: 0x93161, size: 0x8, addend: 0x0, symName: __RINvNtCs2tD97QJu26F_4core3ptr13drop_in_placeINtNtB4_4cell10UnsafeCellINtNtB4_6option6OptionNCINvMs4_NtCs9PXnr41oVbh_10rayon_core8registryNtB1A_8Registry15in_worker_crossNCINvMNtB1C_11thread_poolNtB2N_10ThreadPool7installNCNvNtCsaYfPqFfImBE_4dprs2dp14run_simulation0TjINtNtCs9xDkXAC1PNF_5alloc3vec3VecIB4i_bEEEE0B4f_E0EEEB3C_, symObjAddr: 0x344, symBinAddr: 0x26D24, symSize: 0x24 }
  - { offsetInCU: 0x366, offset: 0x93190, size: 0x8, addend: 0x0, symName: __RINvNtCs2tD97QJu26F_4core3ptr13drop_in_placeINtNtB4_4cell10UnsafeCellINtNtB4_6option6OptionNCINvMs4_NtCs9PXnr41oVbh_10rayon_core8registryNtB1A_8Registry15in_worker_crossNCINvMNtB1C_11thread_poolNtB2N_10ThreadPool7installNCNvNtCsaYfPqFfImBE_4dprs4life14run_simulation0TjINtNtCs9xDkXAC1PNF_5alloc3vec3VecIB4k_bEEEE0B4h_E0EEEB3C_, symObjAddr: 0x368, symBinAddr: 0x26D48, symSize: 0x24 }
  - { offsetInCU: 0x395, offset: 0x931BF, size: 0x8, addend: 0x0, symName: __RINvNtCs2tD97QJu26F_4core3ptr13drop_in_placeINtNtB4_4cell10UnsafeCellINtNtB4_6option6OptionNCNCINvMs4_NtCs9PXnr41oVbh_10rayon_core8registryNtB1C_8Registry14in_worker_coldNCINvMNtB1E_11thread_poolNtB2O_10ThreadPool7installNCNvNtCsaYfPqFfImBE_4dprs2dp14run_simulation0TjINtNtCs9xDkXAC1PNF_5alloc3vec3VecIB4j_bEEEE0B4g_E00EEEB3D_, symObjAddr: 0x38C, symBinAddr: 0x26D6C, symSize: 0x24 }
  - { offsetInCU: 0x3C4, offset: 0x931EE, size: 0x8, addend: 0x0, symName: __RINvNtCs2tD97QJu26F_4core3ptr13drop_in_placeINtNtB4_4cell10UnsafeCellINtNtB4_6option6OptionNCNCINvMs4_NtCs9PXnr41oVbh_10rayon_core8registryNtB1C_8Registry14in_worker_coldNCINvMNtB1E_11thread_poolNtB2O_10ThreadPool7installNCNvNtCsaYfPqFfImBE_4dprs4life14run_simulation0TjINtNtCs9xDkXAC1PNF_5alloc3vec3VecIB4l_bEEEE0B4i_E00EEEB3D_, symObjAddr: 0x3B0, symBinAddr: 0x26D90, symSize: 0x24 }
  - { offsetInCU: 0x3F3, offset: 0x9321D, size: 0x8, addend: 0x0, symName: __RINvNtCs2tD97QJu26F_4core3ptr13drop_in_placeINtNtB4_4cell10UnsafeCellINtNtCs9PXnr41oVbh_10rayon_core3job9JobResultINtNtNtCs9xDkXAC1PNF_5alloc11collections11linked_list10LinkedListINtNtB1V_3vec3VecbEEEEECsaYfPqFfImBE_4dprs, symObjAddr: 0x3D4, symBinAddr: 0x26DB4, symSize: 0x24 }
  - { offsetInCU: 0x422, offset: 0x9324C, size: 0x8, addend: 0x0, symName: __RINvNtCs2tD97QJu26F_4core3ptr13drop_in_placeINtNtB4_4cell10UnsafeCellINtNtCs9PXnr41oVbh_10rayon_core3job9JobResultINtNtNtNtCslkboY0IC5z6_5rayon4iter7collect8consumer13CollectResultbEEEECsaYfPqFfImBE_4dprs, symObjAddr: 0x3F8, symBinAddr: 0x26DD8, symSize: 0x24 }
  - { offsetInCU: 0x451, offset: 0x9327B, size: 0x8, addend: 0x0, symName: __RINvNtCs2tD97QJu26F_4core3ptr13drop_in_placeINtNtB4_4cell10UnsafeCellINtNtCs9PXnr41oVbh_10rayon_core3job9JobResultTINtNtNtCs9xDkXAC1PNF_5alloc11collections11linked_list10LinkedListINtNtB1W_3vec3VecbEEB1P_EEEECsaYfPqFfImBE_4dprs, symObjAddr: 0x41C, symBinAddr: 0x26DFC, symSize: 0x24 }
  - { offsetInCU: 0x480, offset: 0x932AA, size: 0x8, addend: 0x0, symName: __RINvNtCs2tD97QJu26F_4core3ptr13drop_in_placeINtNtB4_4cell10UnsafeCellINtNtCs9PXnr41oVbh_10rayon_core3job9JobResultTINtNtNtNtCslkboY0IC5z6_5rayon4iter7collect8consumer13CollectResultbEB1P_EEEECsaYfPqFfImBE_4dprs, symObjAddr: 0x440, symBinAddr: 0x26E20, symSize: 0x24 }
  - { offsetInCU: 0x4AF, offset: 0x932D9, size: 0x8, addend: 0x0, symName: __RINvNtCs2tD97QJu26F_4core3ptr13drop_in_placeINtNtB4_4cell10UnsafeCellINtNtCs9PXnr41oVbh_10rayon_core3job9JobResultTjINtNtCs9xDkXAC1PNF_5alloc3vec3VecIB1R_bEEEEEECsaYfPqFfImBE_4dprs, symObjAddr: 0x464, symBinAddr: 0x26E44, symSize: 0x24 }
  - { offsetInCU: 0x4DE, offset: 0x93308, size: 0x8, addend: 0x0, symName: __RINvNtCs2tD97QJu26F_4core3ptr13drop_in_placeINtNtB4_4cell10UnsafeCellINtNtCs9PXnr41oVbh_10rayon_core3job9JobResultTuuEEEECsaYfPqFfImBE_4dprs, symObjAddr: 0x488, symBinAddr: 0x26E68, symSize: 0x24 }
  - { offsetInCU: 0x50D, offset: 0x93337, size: 0x8, addend: 0x0, symName: __RINvNtCs2tD97QJu26F_4core3ptr13drop_in_placeINtNtB4_4cell10UnsafeCellINtNtCs9PXnr41oVbh_10rayon_core3job9JobResultuEEECsaYfPqFfImBE_4dprs, symObjAddr: 0x4AC, symBinAddr: 0x26E8C, symSize: 0x24 }
  - { offsetInCU: 0x53C, offset: 0x93366, size: 0x8, addend: 0x0, symName: __RINvNtCs2tD97QJu26F_4core3ptr13drop_in_placeINtNtB4_6option6OptionINtNtCs9xDkXAC1PNF_5alloc5boxed3BoxINtNtNtB17_11collections11linked_list4NodeINtNtB17_3vec3VecbEERNtNtB17_5alloc6GlobalEEECsaYfPqFfImBE_4dprs, symObjAddr: 0x4F4, symBinAddr: 0x26EB0, symSize: 0x44 }
  - { offsetInCU: 0x56B, offset: 0x93395, size: 0x8, addend: 0x0, symName: __RINvNtCs2tD97QJu26F_4core3ptr13drop_in_placeINtNtB4_6option6OptionINtNtCsF7gmULBm3O_4pyo38instance2PyNtNtCsaYfPqFfImBE_4dprs10parameters10ProcessingEEEB1F_, symObjAddr: 0x538, symBinAddr: 0x26EF4, symSize: 0x44 }
  - { offsetInCU: 0x59A, offset: 0x933C4, size: 0x8, addend: 0x0, symName: __RINvNtCs2tD97QJu26F_4core3ptr13drop_in_placeINtNtB4_6option6OptionINtNtCsF7gmULBm3O_4pyo38instance2PyNtNtCsaYfPqFfImBE_4dprs10parameters17BoundaryConditionEEEB1F_, symObjAddr: 0x57C, symBinAddr: 0x26F38, symSize: 0x44 }
  - { offsetInCU: 0x5C9, offset: 0x933F3, size: 0x8, addend: 0x0, symName: __RINvNtCs2tD97QJu26F_4core3ptr13drop_in_placeINtNtB4_6option6OptionINtNtCsF7gmULBm3O_4pyo38instance2PyNtNtCsaYfPqFfImBE_4dprs10parameters8TopologyEEEB1F_, symObjAddr: 0x5C0, symBinAddr: 0x26F7C, symSize: 0x44 }
  - { offsetInCU: 0x5F8, offset: 0x93422, size: 0x8, addend: 0x0, symName: __RINvNtCs2tD97QJu26F_4core3ptr13drop_in_placeINtNtB4_6option6OptionINtNtCsF7gmULBm3O_4pyo38instance2PyNtNtCsaYfPqFfImBE_4dprs10parameters9DimensionEEEB1F_, symObjAddr: 0x604, symBinAddr: 0x26FC0, symSize: 0x44 }
  - { offsetInCU: 0x627, offset: 0x93451, size: 0x8, addend: 0x0, symName: __RINvNtCs2tD97QJu26F_4core3ptr13drop_in_placeINtNtB4_6option6OptionINtNtNtCsF7gmULBm3O_4pyo37pyclass5guard12PyClassGuardNtNtCsaYfPqFfImBE_4dprs10parameters10ProcessingEEEB1X_, symObjAddr: 0x648, symBinAddr: 0x27004, symSize: 0x44 }
  - { offsetInCU: 0x656, offset: 0x93480, size: 0x8, addend: 0x0, symName: __RINvNtCs2tD97QJu26F_4core3ptr13drop_in_placeINtNtB4_6option6OptionINtNtNtCsF7gmULBm3O_4pyo37pyclass5guard12PyClassGuardNtNtCsaYfPqFfImBE_4dprs10parameters17BoundaryConditionEEEB1X_, symObjAddr: 0x68C, symBinAddr: 0x27048, symSize: 0x44 }
  - { offsetInCU: 0x685, offset: 0x934AF, size: 0x8, addend: 0x0, symName: __RINvNtCs2tD97QJu26F_4core3ptr13drop_in_placeINtNtB4_6option6OptionINtNtNtCsF7gmULBm3O_4pyo37pyclass5guard12PyClassGuardNtNtCsaYfPqFfImBE_4dprs10parameters8TopologyEEEB1X_, symObjAddr: 0x6D0, symBinAddr: 0x2708C, symSize: 0x44 }
  - { offsetInCU: 0x6B4, offset: 0x934DE, size: 0x8, addend: 0x0, symName: __RINvNtCs2tD97QJu26F_4core3ptr13drop_in_placeINtNtB4_6option6OptionINtNtNtCsF7gmULBm3O_4pyo37pyclass5guard12PyClassGuardNtNtCsaYfPqFfImBE_4dprs10parameters9DimensionEEEB1X_, symObjAddr: 0x714, symBinAddr: 0x270D0, symSize: 0x44 }
  - { offsetInCU: 0x6E3, offset: 0x9350D, size: 0x8, addend: 0x0, symName: __RINvNtCs2tD97QJu26F_4core3ptr13drop_in_placeINtNtB4_6option6OptionNCINvMs4_NtCs9PXnr41oVbh_10rayon_core8registryNtB1b_8Registry15in_worker_crossNCINvMNtB1d_11thread_poolNtB2o_10ThreadPool7installNCNvNtCsaYfPqFfImBE_4dprs2dp14run_simulation0TjINtNtCs9xDkXAC1PNF_5alloc3vec3VecIB3T_bEEEE0B3Q_E0EEB3d_, symObjAddr: 0x758, symBinAddr: 0x27114, symSize: 0x48 }
  - { offsetInCU: 0x712, offset: 0x9353C, size: 0x8, addend: 0x0, symName: __RINvNtCs2tD97QJu26F_4core3ptr13drop_in_placeINtNtB4_6option6OptionNCINvMs4_NtCs9PXnr41oVbh_10rayon_core8registryNtB1b_8Registry15in_worker_crossNCINvMNtB1d_11thread_poolNtB2o_10ThreadPool7installNCNvNtCsaYfPqFfImBE_4dprs4life14run_simulation0TjINtNtCs9xDkXAC1PNF_5alloc3vec3VecIB3V_bEEEE0B3S_E0EEB3d_, symObjAddr: 0x7A0, symBinAddr: 0x2715C, symSize: 0x48 }
  - { offsetInCU: 0x741, offset: 0x9356B, size: 0x8, addend: 0x0, symName: __RINvNtCs2tD97QJu26F_4core3ptr13drop_in_placeINtNtB4_6option6OptionNCINvNtNtCsF7gmULBm3O_4pyo34sync9once_lock30try_init_once_cell_py_attachedNCNvXs4_NtCsaYfPqFfImBE_4dprs10parametersNtB2m_9DimensionNtNtB1b_10conversion12IntoPyObject13into_pyobject0INtNtB1b_8instance2PyB2T_ENtNtB1b_3err5PyErrE0EEB2o_, symObjAddr: 0x7E8, symBinAddr: 0x271A4, symSize: 0x44 }
  - { offsetInCU: 0x770, offset: 0x9359A, size: 0x8, addend: 0x0, symName: __RINvNtCs2tD97QJu26F_4core3ptr13drop_in_placeINtNtB4_6option6OptionNCINvNtNtCsF7gmULBm3O_4pyo34sync9once_lock30try_init_once_cell_py_attachedNCNvXsE_NtCsaYfPqFfImBE_4dprs10parametersNtB2m_10ProcessingNtNtB1b_10conversion12IntoPyObject13into_pyobject0INtNtB1b_8instance2PyB2T_ENtNtB1b_3err5PyErrE0EEB2o_, symObjAddr: 0x82C, symBinAddr: 0x271E8, symSize: 0x44 }
  - { offsetInCU: 0x79F, offset: 0x935C9, size: 0x8, addend: 0x0, symName: __RINvNtCs2tD97QJu26F_4core3ptr13drop_in_placeINtNtB4_6option6OptionNCINvNtNtCsF7gmULBm3O_4pyo34sync9once_lock30try_init_once_cell_py_attachedNCNvXsg_NtCsaYfPqFfImBE_4dprs10parametersNtB2m_8TopologyNtNtB1b_10conversion12IntoPyObject13into_pyobject0INtNtB1b_8instance2PyB2T_ENtNtB1b_3err5PyErrE0EEB2o_, symObjAddr: 0x870, symBinAddr: 0x2722C, symSize: 0x44 }
  - { offsetInCU: 0x7CE, offset: 0x935F8, size: 0x8, addend: 0x0, symName: __RINvNtCs2tD97QJu26F_4core3ptr13drop_in_placeINtNtB4_6option6OptionNCINvNtNtCsF7gmULBm3O_4pyo34sync9once_lock30try_init_once_cell_py_attachedNCNvXss_NtCsaYfPqFfImBE_4dprs10parametersNtB2m_17BoundaryConditionNtNtB1b_10conversion12IntoPyObject13into_pyobject0INtNtB1b_8instance2PyB2T_ENtNtB1b_3err5PyErrE0EEB2o_, symObjAddr: 0x8B4, symBinAddr: 0x27270, symSize: 0x44 }
  - { offsetInCU: 0x7FD, offset: 0x93627, size: 0x8, addend: 0x0, symName: __RINvNtCs2tD97QJu26F_4core3ptr13drop_in_placeINtNtB4_6option6OptionNCNCINvMs4_NtCs9PXnr41oVbh_10rayon_core8registryNtB1d_8Registry14in_worker_coldNCINvMNtB1f_11thread_poolNtB2p_10ThreadPool7installNCNvNtCsaYfPqFfImBE_4dprs2dp14run_simulation0TjINtNtCs9xDkXAC1PNF_5alloc3vec3VecIB3U_bEEEE0B3R_E00EEB3e_, symObjAddr: 0x8F8, symBinAddr: 0x272B4, symSize: 0x48 }
  - { offsetInCU: 0x82C, offset: 0x93656, size: 0x8, addend: 0x0, symName: __RINvNtCs2tD97QJu26F_4core3ptr13drop_in_placeINtNtB4_6option6OptionNCNCINvMs4_NtCs9PXnr41oVbh_10rayon_core8registryNtB1d_8Registry14in_worker_coldNCINvMNtB1f_11thread_poolNtB2p_10ThreadPool7installNCNvNtCsaYfPqFfImBE_4dprs4life14run_simulation0TjINtNtCs9xDkXAC1PNF_5alloc3vec3VecIB3W_bEEEE0B3T_E00EEB3e_, symObjAddr: 0x940, symBinAddr: 0x272FC, symSize: 0x48 }
  - { offsetInCU: 0x85B, offset: 0x93685, size: 0x8, addend: 0x0, symName: __RINvNtCs2tD97QJu26F_4core3ptr13drop_in_placeINtNtB4_6option6OptionNtNtNtCsF7gmULBm3O_4pyo33err10cast_error9CastErrorEECsaYfPqFfImBE_4dprs, symObjAddr: 0x988, symBinAddr: 0x27344, symSize: 0x44 }
  - { offsetInCU: 0x88A, offset: 0x936B4, size: 0x8, addend: 0x0, symName: __RINvNtCs2tD97QJu26F_4core3ptr13drop_in_placeINtNtB4_6result6ResultINtNtCsF7gmULBm3O_4pyo38instance2PyNtNtNtB17_5types3any5PyAnyENtNtB17_3err5PyErrEECsaYfPqFfImBE_4dprs, symObjAddr: 0x9CC, symBinAddr: 0x27388, symSize: 0x50 }
  - { offsetInCU: 0x8B9, offset: 0x936E3, size: 0x8, addend: 0x0, symName: __RINvNtCs2tD97QJu26F_4core3ptr13drop_in_placeINtNtB4_6result6ResultNtNtCsF7gmULBm3O_4pyo37pyclass9CompareOpNtNtB16_3err5PyErrEECsaYfPqFfImBE_4dprs, symObjAddr: 0xA1C, symBinAddr: 0x273D8, symSize: 0x40 }
  - { offsetInCU: 0x8E8, offset: 0x93712, size: 0x8, addend: 0x0, symName: __RINvNtCs2tD97QJu26F_4core3ptr13drop_in_placeINtNtB4_6result6ResultRINtNtCsF7gmULBm3O_4pyo38instance5BoundNtNtCsaYfPqFfImBE_4dprs10parameters10ProcessingENtNtNtB18_3err10cast_error9CastErrorEEB1J_, symObjAddr: 0xA5C, symBinAddr: 0x27418, symSize: 0x44 }
  - { offsetInCU: 0x917, offset: 0x93741, size: 0x8, addend: 0x0, symName: __RINvNtCs2tD97QJu26F_4core3ptr13drop_in_placeINtNtB4_6result6ResultRINtNtCsF7gmULBm3O_4pyo38instance5BoundNtNtCsaYfPqFfImBE_4dprs10parameters17BoundaryConditionENtNtNtB18_3err10cast_error9CastErrorEEB1J_, symObjAddr: 0xAA0, symBinAddr: 0x2745C, symSize: 0x44 }
  - { offsetInCU: 0x946, offset: 0x93770, size: 0x8, addend: 0x0, symName: __RINvNtCs2tD97QJu26F_4core3ptr13drop_in_placeINtNtB4_6result6ResultRINtNtCsF7gmULBm3O_4pyo38instance5BoundNtNtCsaYfPqFfImBE_4dprs10parameters8TopologyENtNtNtB18_3err10cast_error9CastErrorEEB1J_, symObjAddr: 0xAE4, symBinAddr: 0x274A0, symSize: 0x44 }
  - { offsetInCU: 0x975, offset: 0x9379F, size: 0x8, addend: 0x0, symName: __RINvNtCs2tD97QJu26F_4core3ptr13drop_in_placeINtNtB4_6result6ResultRINtNtCsF7gmULBm3O_4pyo38instance5BoundNtNtCsaYfPqFfImBE_4dprs10parameters9DimensionENtNtNtB18_3err10cast_error9CastErrorEEB1J_, symObjAddr: 0xB28, symBinAddr: 0x274E4, symSize: 0x44 }
  - { offsetInCU: 0x9A4, offset: 0x937CE, size: 0x8, addend: 0x0, symName: __RINvNtCs2tD97QJu26F_4core3ptr13drop_in_placeINtNtB4_6result6ResultRINtNtCsF7gmULBm3O_4pyo38instance5BoundNtNtNtB18_5types3any5PyAnyENtNtB18_3err5PyErrEECsaYfPqFfImBE_4dprs, symObjAddr: 0xB6C, symBinAddr: 0x27528, symSize: 0x40 }
  - { offsetInCU: 0x9D3, offset: 0x937FD, size: 0x8, addend: 0x0, symName: __RINvNtCs2tD97QJu26F_4core3ptr13drop_in_placeINtNtB4_6result6ResultRNtNtCsaYfPqFfImBE_4dprs10parameters10ProcessingNtNtCsF7gmULBm3O_4pyo33err5PyErrEEB17_, symObjAddr: 0xBAC, symBinAddr: 0x27568, symSize: 0x40 }
  - { offsetInCU: 0xA02, offset: 0x9382C, size: 0x8, addend: 0x0, symName: __RINvNtCs2tD97QJu26F_4core3ptr13drop_in_placeINtNtB4_6result6ResultRNtNtCsaYfPqFfImBE_4dprs10parameters17BoundaryConditionNtNtCsF7gmULBm3O_4pyo33err5PyErrEEB17_, symObjAddr: 0xBEC, symBinAddr: 0x275A8, symSize: 0x40 }
  - { offsetInCU: 0xA31, offset: 0x9385B, size: 0x8, addend: 0x0, symName: __RINvNtCs2tD97QJu26F_4core3ptr13drop_in_placeINtNtB4_6result6ResultRNtNtCsaYfPqFfImBE_4dprs10parameters8TopologyNtNtCsF7gmULBm3O_4pyo33err5PyErrEEB17_, symObjAddr: 0xC2C, symBinAddr: 0x275E8, symSize: 0x40 }
  - { offsetInCU: 0xA60, offset: 0x9388A, size: 0x8, addend: 0x0, symName: __RINvNtCs2tD97QJu26F_4core3ptr13drop_in_placeINtNtB4_6result6ResultRNtNtCsaYfPqFfImBE_4dprs10parameters9DimensionNtNtCsF7gmULBm3O_4pyo33err5PyErrEEB17_, symObjAddr: 0xC6C, symBinAddr: 0x27628, symSize: 0x40 }
  - { offsetInCU: 0xA8F, offset: 0x938B9, size: 0x8, addend: 0x0, symName: __RINvNtCs2tD97QJu26F_4core3ptr13drop_in_placeINtNtB4_6result6ResultTjINtNtCs9xDkXAC1PNF_5alloc3vec3VecIB15_bEEENtNtCsF7gmULBm3O_4pyo33err5PyErrEECsaYfPqFfImBE_4dprs, symObjAddr: 0xCAC, symBinAddr: 0x27668, symSize: 0x50 }
  - { offsetInCU: 0xABE, offset: 0x938E8, size: 0x8, addend: 0x0, symName: __RINvNtCs2tD97QJu26F_4core3ptr13drop_in_placeINtNtB4_6result6ResultiNtNtNtCsF7gmULBm3O_4pyo33err10cast_error9CastErrorEECsaYfPqFfImBE_4dprs, symObjAddr: 0xCFC, symBinAddr: 0x276B8, symSize: 0x44 }
  - { offsetInCU: 0xAED, offset: 0x93917, size: 0x8, addend: 0x0, symName: __RINvNtCs2tD97QJu26F_4core3ptr13drop_in_placeINtNtCs9PXnr41oVbh_10rayon_core3job8StackJobINtNtBL_5latch8LatchRefNtB1r_9LockLatchENCNCINvMs4_NtBL_8registryNtB2d_8Registry14in_worker_coldNCINvMNtBL_11thread_poolNtB32_10ThreadPool7installNCNvNtCsaYfPqFfImBE_4dprs2dp14run_simulation0TjINtNtCs9xDkXAC1PNF_5alloc3vec3VecIB4w_bEEEE0B4t_E00B4t_EEB3Q_, symObjAddr: 0xD40, symBinAddr: 0x276FC, symSize: 0x5C }
  - { offsetInCU: 0xB1C, offset: 0x93946, size: 0x8, addend: 0x0, symName: __RINvNtCs2tD97QJu26F_4core3ptr13drop_in_placeINtNtCs9PXnr41oVbh_10rayon_core3job8StackJobINtNtBL_5latch8LatchRefNtB1r_9LockLatchENCNCINvMs4_NtBL_8registryNtB2d_8Registry14in_worker_coldNCINvMNtBL_11thread_poolNtB32_10ThreadPool7installNCNvNtCsaYfPqFfImBE_4dprs4life14run_simulation0TjINtNtCs9xDkXAC1PNF_5alloc3vec3VecIB4y_bEEEE0B4v_E00B4v_EEB3Q_, symObjAddr: 0xD9C, symBinAddr: 0x27758, symSize: 0x60 }
  - { offsetInCU: 0xB4B, offset: 0x93975, size: 0x8, addend: 0x0, symName: __RINvNtCs2tD97QJu26F_4core3ptr13drop_in_placeINtNtCs9PXnr41oVbh_10rayon_core3job8StackJobINtNtBL_5latch8LatchRefNtB1r_9LockLatchENCNCINvMs4_NtBL_8registryNtB2d_8Registry14in_worker_coldNCINvNtBL_4join12join_contextNCINvNvNtNtCslkboY0IC5z6_5rayon4iter8plumbing24bridge_producer_consumer6helperINtNtB3A_5range12IterProducerjEINtNtB3y_3map11MapConsumerINtNtNtB3y_7collect8consumer15CollectConsumerbENCNvMNtNtCsaYfPqFfImBE_4dprs4life8model_2dINtB6q_14LatticeModel2DNtNtB6s_10life_model9LifeModelE23next_iteration_parallel0EE0NCB3r_s_0INtB5D_13CollectResultbEB8v_E0TB8v_B8v_EE00B8Z_EEB6u_, symObjAddr: 0xDFC, symBinAddr: 0x277B8, symSize: 0x24 }
  - { offsetInCU: 0xB7A, offset: 0x939A4, size: 0x8, addend: 0x0, symName: __RINvNtCs2tD97QJu26F_4core3ptr13drop_in_placeINtNtCs9PXnr41oVbh_10rayon_core3job8StackJobINtNtBL_5latch8LatchRefNtB1r_9LockLatchENCNCINvMs4_NtBL_8registryNtB2d_8Registry14in_worker_coldNCINvNtBL_4join12join_contextNCINvNvNtNtCslkboY0IC5z6_5rayon4iter8plumbing24bridge_producer_consumer6helperINtNtB3A_5range12IterProducerjEINtNtB3y_3map11MapConsumerNtNtB3y_6extend15ListVecConsumerNCNvMNtNtCsaYfPqFfImBE_4dprs4life8model_2dINtB6b_14LatticeModel2DNtNtB6d_10life_model9LifeModelE23next_iteration_parallel0EE0NCB3r_s_0INtNtNtCs9xDkXAC1PNF_5alloc11collections11linked_list10LinkedListINtNtB8n_3vec3VecbEEB8g_E0TB8g_B8g_EE00B9J_EEB6f_, symObjAddr: 0xE20, symBinAddr: 0x277DC, symSize: 0x24 }
  - { offsetInCU: 0xBA9, offset: 0x939D3, size: 0x8, addend: 0x0, symName: __RINvNtCs2tD97QJu26F_4core3ptr13drop_in_placeINtNtCs9PXnr41oVbh_10rayon_core3job8StackJobINtNtBL_5latch8LatchRefNtB1r_9LockLatchENCNCINvMs4_NtBL_8registryNtB2d_8Registry14in_worker_coldNCINvNtBL_4join12join_contextNCINvNvNtNtCslkboY0IC5z6_5rayon4iter8plumbing24bridge_producer_consumer6helperINtNtB3y_9enumerate17EnumerateProducerINtNtNtB3A_5slice6chunks17ChunksMutProducerbEEINtNtB3y_8for_each15ForEachConsumerNCNvMNtNtCsaYfPqFfImBE_4dprs4life8model_2dINtB6F_14LatticeModel2DNtNtB6H_10life_model9LifeModelE31next_iteration_parallel_chunked0EE0NCB3r_s_0uuE0TuuEE00B8W_EEB6J_, symObjAddr: 0xE44, symBinAddr: 0x27800, symSize: 0x24 }
  - { offsetInCU: 0xBD8, offset: 0x93A02, size: 0x8, addend: 0x0, symName: __RINvNtCs2tD97QJu26F_4core3ptr13drop_in_placeINtNtCs9PXnr41oVbh_10rayon_core3job8StackJobNtNtBL_5latch9SpinLatchNCINvMs4_NtBL_8registryNtB1U_8Registry15in_worker_crossNCINvMNtBL_11thread_poolNtB2K_10ThreadPool7installNCNvNtCsaYfPqFfImBE_4dprs2dp14run_simulation0TjINtNtCs9xDkXAC1PNF_5alloc3vec3VecIB4e_bEEEE0B4b_E0B4b_EEB3y_, symObjAddr: 0xE68, symBinAddr: 0x27824, symSize: 0x5C }
  - { offsetInCU: 0xC07, offset: 0x93A31, size: 0x8, addend: 0x0, symName: __RINvNtCs2tD97QJu26F_4core3ptr13drop_in_placeINtNtCs9PXnr41oVbh_10rayon_core3job8StackJobNtNtBL_5latch9SpinLatchNCINvMs4_NtBL_8registryNtB1U_8Registry15in_worker_crossNCINvMNtBL_11thread_poolNtB2K_10ThreadPool7installNCNvNtCsaYfPqFfImBE_4dprs4life14run_simulation0TjINtNtCs9xDkXAC1PNF_5alloc3vec3VecIB4g_bEEEE0B4d_E0B4d_EEB3y_, symObjAddr: 0xEC4, symBinAddr: 0x27880, symSize: 0x60 }
  - { offsetInCU: 0xC36, offset: 0x93A60, size: 0x8, addend: 0x0, symName: __RINvNtCs2tD97QJu26F_4core3ptr13drop_in_placeINtNtCs9PXnr41oVbh_10rayon_core3job8StackJobNtNtBL_5latch9SpinLatchNCINvMs4_NtBL_8registryNtB1U_8Registry15in_worker_crossNCINvNtBL_4join12join_contextNCINvNvNtNtCslkboY0IC5z6_5rayon4iter8plumbing24bridge_producer_consumer6helperINtNtB3g_9enumerate17EnumerateProducerINtNtNtB3i_5slice6chunks17ChunksMutProducerbEEINtNtB3g_8for_each15ForEachConsumerNCNvMNtNtCsaYfPqFfImBE_4dprs4life8model_2dINtB6n_14LatticeModel2DNtNtB6p_10life_model9LifeModelE31next_iteration_parallel_chunked0EE0NCB39_s_0uuE0TuuEE0B8E_EEB6r_, symObjAddr: 0xF24, symBinAddr: 0x278E0, symSize: 0x24 }
  - { offsetInCU: 0xC65, offset: 0x93A8F, size: 0x8, addend: 0x0, symName: __RINvNtCs2tD97QJu26F_4core3ptr13drop_in_placeINtNtCs9PXnr41oVbh_10rayon_core3job8StackJobNtNtBL_5latch9SpinLatchNCINvMs4_NtBL_8registryNtB1U_8Registry15in_worker_crossNCINvNtBL_4join12join_contextNCINvNvNtNtCslkboY0IC5z6_5rayon4iter8plumbing24bridge_producer_consumer6helperINtNtB3i_5range12IterProducerjEINtNtB3g_3map11MapConsumerINtNtNtB3g_7collect8consumer15CollectConsumerbENCNvMNtNtCsaYfPqFfImBE_4dprs4life8model_2dINtB68_14LatticeModel2DNtNtB6a_10life_model9LifeModelE23next_iteration_parallel0EE0NCB39_s_0INtB5l_13CollectResultbEB8d_E0TB8d_B8d_EE0B8H_EEB6c_, symObjAddr: 0xF48, symBinAddr: 0x27904, symSize: 0x24 }
  - { offsetInCU: 0xC94, offset: 0x93ABE, size: 0x8, addend: 0x0, symName: __RINvNtCs2tD97QJu26F_4core3ptr13drop_in_placeINtNtCs9PXnr41oVbh_10rayon_core3job8StackJobNtNtBL_5latch9SpinLatchNCINvMs4_NtBL_8registryNtB1U_8Registry15in_worker_crossNCINvNtBL_4join12join_contextNCINvNvNtNtCslkboY0IC5z6_5rayon4iter8plumbing24bridge_producer_consumer6helperINtNtB3i_5range12IterProducerjEINtNtB3g_3map11MapConsumerNtNtB3g_6extend15ListVecConsumerNCNvMNtNtCsaYfPqFfImBE_4dprs4life8model_2dINtB5T_14LatticeModel2DNtNtB5V_10life_model9LifeModelE23next_iteration_parallel0EE0NCB39_s_0INtNtNtCs9xDkXAC1PNF_5alloc11collections11linked_list10LinkedListINtNtB85_3vec3VecbEEB7Y_E0TB7Y_B7Y_EE0B9r_EEB5X_, symObjAddr: 0xF6C, symBinAddr: 0x27928, symSize: 0x24 }
  - { offsetInCU: 0xCC3, offset: 0x93AED, size: 0x8, addend: 0x0, symName: __RINvNtCs2tD97QJu26F_4core3ptr13drop_in_placeINtNtCs9PXnr41oVbh_10rayon_core3job8StackJobNtNtBL_5latch9SpinLatchNCINvNvNtBL_4join12join_context6call_bINtNtNtCs9xDkXAC1PNF_5alloc11collections11linked_list10LinkedListINtNtB2u_3vec3VecbEENCINvNvNtNtCslkboY0IC5z6_5rayon4iter8plumbing24bridge_producer_consumer6helperINtNtB3V_5range12IterProducerjEINtNtB3T_3map11MapConsumerNtNtB3T_6extend15ListVecConsumerNCNvMNtNtCsaYfPqFfImBE_4dprs4life8model_2dINtB6w_14LatticeModel2DNtNtB6y_10life_model9LifeModelE23next_iteration_parallel0EEs_0E0B2n_EEB6A_, symObjAddr: 0xF90, symBinAddr: 0x2794C, symSize: 0x24 }
  - { offsetInCU: 0xCF2, offset: 0x93B1C, size: 0x8, addend: 0x0, symName: __RINvNtCs2tD97QJu26F_4core3ptr13drop_in_placeINtNtCs9PXnr41oVbh_10rayon_core3job8StackJobNtNtBL_5latch9SpinLatchNCINvNvNtBL_4join12join_context6call_bINtNtNtNtCslkboY0IC5z6_5rayon4iter7collect8consumer13CollectResultbENCINvNvNtB2u_8plumbing24bridge_producer_consumer6helperINtNtB2w_5range12IterProducerjEINtNtB2u_3map11MapConsumerINtB2q_15CollectConsumerbENCNvMNtNtCsaYfPqFfImBE_4dprs4life8model_2dINtB5M_14LatticeModel2DNtNtB5O_10life_model9LifeModelE23next_iteration_parallel0EEs_0E0B2n_EEB5Q_, symObjAddr: 0xFB4, symBinAddr: 0x27970, symSize: 0x24 }
  - { offsetInCU: 0xD21, offset: 0x93B4B, size: 0x8, addend: 0x0, symName: __RINvNtCs2tD97QJu26F_4core3ptr13drop_in_placeINtNtCs9PXnr41oVbh_10rayon_core3job8StackJobNtNtBL_5latch9SpinLatchNCINvNvNtBL_4join12join_context6call_buNCINvNvNtNtCslkboY0IC5z6_5rayon4iter8plumbing24bridge_producer_consumer6helperINtNtB2x_9enumerate17EnumerateProducerINtNtNtB2z_5slice6chunks17ChunksMutProducerbEEINtNtB2x_8for_each15ForEachConsumerNCNvMNtNtCsaYfPqFfImBE_4dprs4life8model_2dINtB5E_14LatticeModel2DNtNtB5G_10life_model9LifeModelE31next_iteration_parallel_chunked0EEs_0E0uEEB5I_, symObjAddr: 0xFD8, symBinAddr: 0x27994, symSize: 0x24 }
  - { offsetInCU: 0xD50, offset: 0x93B7A, size: 0x8, addend: 0x0, symName: __RINvNtCs2tD97QJu26F_4core3ptr13drop_in_placeINtNtCs9PXnr41oVbh_10rayon_core3job9JobResultINtNtNtCs9xDkXAC1PNF_5alloc11collections11linked_list10LinkedListINtNtB1w_3vec3VecbEEEECsaYfPqFfImBE_4dprs, symObjAddr: 0xFFC, symBinAddr: 0x279B8, symSize: 0x64 }
  - { offsetInCU: 0xD7F, offset: 0x93BA9, size: 0x8, addend: 0x0, symName: __RINvNtCs2tD97QJu26F_4core3ptr13drop_in_placeINtNtCs9PXnr41oVbh_10rayon_core3job9JobResultINtNtNtNtCslkboY0IC5z6_5rayon4iter7collect8consumer13CollectResultbEEECsaYfPqFfImBE_4dprs, symObjAddr: 0x1060, symBinAddr: 0x27A1C, symSize: 0x64 }
  - { offsetInCU: 0xDAE, offset: 0x93BD8, size: 0x8, addend: 0x0, symName: __RINvNtCs2tD97QJu26F_4core3ptr13drop_in_placeINtNtCs9PXnr41oVbh_10rayon_core3job9JobResultTINtNtNtCs9xDkXAC1PNF_5alloc11collections11linked_list10LinkedListINtNtB1x_3vec3VecbEEB1q_EEECsaYfPqFfImBE_4dprs, symObjAddr: 0x10C4, symBinAddr: 0x27A80, symSize: 0x64 }
  - { offsetInCU: 0xDDD, offset: 0x93C07, size: 0x8, addend: 0x0, symName: __RINvNtCs2tD97QJu26F_4core3ptr13drop_in_placeINtNtCs9PXnr41oVbh_10rayon_core3job9JobResultTINtNtNtNtCslkboY0IC5z6_5rayon4iter7collect8consumer13CollectResultbEB1q_EEECsaYfPqFfImBE_4dprs, symObjAddr: 0x1128, symBinAddr: 0x27AE4, symSize: 0x64 }
  - { offsetInCU: 0xE0C, offset: 0x93C36, size: 0x8, addend: 0x0, symName: __RINvNtCs2tD97QJu26F_4core3ptr13drop_in_placeINtNtCs9PXnr41oVbh_10rayon_core3job9JobResultTjINtNtCs9xDkXAC1PNF_5alloc3vec3VecIB1s_bEEEEECsaYfPqFfImBE_4dprs, symObjAddr: 0x118C, symBinAddr: 0x27B48, symSize: 0x74 }
  - { offsetInCU: 0xE3B, offset: 0x93C65, size: 0x8, addend: 0x0, symName: __RINvNtCs2tD97QJu26F_4core3ptr13drop_in_placeINtNtCs9PXnr41oVbh_10rayon_core3job9JobResultTuuEEECsaYfPqFfImBE_4dprs, symObjAddr: 0x1200, symBinAddr: 0x27BBC, symSize: 0x48 }
  - { offsetInCU: 0xE6A, offset: 0x93C94, size: 0x8, addend: 0x0, symName: __RINvNtCs2tD97QJu26F_4core3ptr13drop_in_placeINtNtCs9PXnr41oVbh_10rayon_core3job9JobResultuEECsaYfPqFfImBE_4dprs, symObjAddr: 0x1248, symBinAddr: 0x27C04, symSize: 0x48 }
  - { offsetInCU: 0xE99, offset: 0x93CC3, size: 0x8, addend: 0x0, symName: __RINvNtCs2tD97QJu26F_4core3ptr13drop_in_placeINtNtCs9xDkXAC1PNF_5alloc3vec3VecIBH_bEEECsaYfPqFfImBE_4dprs, symObjAddr: 0x1290, symBinAddr: 0x27C4C, symSize: 0x5C }
  - { offsetInCU: 0xEC8, offset: 0x93CF2, size: 0x8, addend: 0x0, symName: __RINvNtCs2tD97QJu26F_4core3ptr13drop_in_placeINtNtCs9xDkXAC1PNF_5alloc3vec3VecbEECsaYfPqFfImBE_4dprs, symObjAddr: 0x1348, symBinAddr: 0x27CA8, symSize: 0x5C }
  - { offsetInCU: 0xEF7, offset: 0x93D21, size: 0x8, addend: 0x0, symName: __RINvNtCs2tD97QJu26F_4core3ptr13drop_in_placeINtNtCs9xDkXAC1PNF_5alloc5boxed3BoxINtNtNtBL_11collections11linked_list4NodeINtNtBL_3vec3VecbEERNtNtBL_5alloc6GlobalEECsaYfPqFfImBE_4dprs, symObjAddr: 0x13A4, symBinAddr: 0x27D04, symSize: 0x60 }
  - { offsetInCU: 0xF26, offset: 0x93D50, size: 0x8, addend: 0x0, symName: __RINvNtCs2tD97QJu26F_4core3ptr13drop_in_placeINtNtCs9xDkXAC1PNF_5alloc7raw_vec6RawVecINtNtBL_3vec3VecbEEECsaYfPqFfImBE_4dprs, symObjAddr: 0x1404, symBinAddr: 0x27D64, symSize: 0x24 }
  - { offsetInCU: 0xF55, offset: 0x93D7F, size: 0x8, addend: 0x0, symName: __RINvNtCs2tD97QJu26F_4core3ptr13drop_in_placeINtNtCs9xDkXAC1PNF_5alloc7raw_vec6RawVecbEECsaYfPqFfImBE_4dprs, symObjAddr: 0x144C, symBinAddr: 0x27D88, symSize: 0x24 }
  - { offsetInCU: 0xF84, offset: 0x93DAE, size: 0x8, addend: 0x0, symName: __RINvNtCs2tD97QJu26F_4core3ptr13drop_in_placeINtNtCsF7gmULBm3O_4pyo36pycell5PyRefNtNtCsaYfPqFfImBE_4dprs10parameters10ProcessingEEB1k_, symObjAddr: 0x14B8, symBinAddr: 0x27DAC, symSize: 0x5C }
  - { offsetInCU: 0xFB3, offset: 0x93DDD, size: 0x8, addend: 0x0, symName: __RINvNtCs2tD97QJu26F_4core3ptr13drop_in_placeINtNtCsF7gmULBm3O_4pyo36pycell5PyRefNtNtCsaYfPqFfImBE_4dprs10parameters17BoundaryConditionEEB1k_, symObjAddr: 0x1514, symBinAddr: 0x27E08, symSize: 0x5C }
  - { offsetInCU: 0xFE2, offset: 0x93E0C, size: 0x8, addend: 0x0, symName: __RINvNtCs2tD97QJu26F_4core3ptr13drop_in_placeINtNtCsF7gmULBm3O_4pyo36pycell5PyRefNtNtCsaYfPqFfImBE_4dprs10parameters8TopologyEEB1k_, symObjAddr: 0x1570, symBinAddr: 0x27E64, symSize: 0x5C }
  - { offsetInCU: 0x1011, offset: 0x93E3B, size: 0x8, addend: 0x0, symName: __RINvNtCs2tD97QJu26F_4core3ptr13drop_in_placeINtNtCsF7gmULBm3O_4pyo36pycell5PyRefNtNtCsaYfPqFfImBE_4dprs10parameters9DimensionEEB1k_, symObjAddr: 0x15CC, symBinAddr: 0x27EC0, symSize: 0x5C }
  - { offsetInCU: 0x1040, offset: 0x93E6A, size: 0x8, addend: 0x0, symName: __RINvNtCs2tD97QJu26F_4core3ptr13drop_in_placeINtNtCsF7gmULBm3O_4pyo38instance2PyNtNtCsaYfPqFfImBE_4dprs10parameters10ProcessingEEB1j_, symObjAddr: 0x1628, symBinAddr: 0x27F1C, symSize: 0x24 }
  - { offsetInCU: 0x106F, offset: 0x93E99, size: 0x8, addend: 0x0, symName: __RINvNtCs2tD97QJu26F_4core3ptr13drop_in_placeINtNtCsF7gmULBm3O_4pyo38instance2PyNtNtCsaYfPqFfImBE_4dprs10parameters17BoundaryConditionEEB1j_, symObjAddr: 0x164C, symBinAddr: 0x27F40, symSize: 0x24 }
  - { offsetInCU: 0x109E, offset: 0x93EC8, size: 0x8, addend: 0x0, symName: __RINvNtCs2tD97QJu26F_4core3ptr13drop_in_placeINtNtCsF7gmULBm3O_4pyo38instance2PyNtNtCsaYfPqFfImBE_4dprs10parameters8TopologyEEB1j_, symObjAddr: 0x1670, symBinAddr: 0x27F64, symSize: 0x24 }
  - { offsetInCU: 0x10CD, offset: 0x93EF7, size: 0x8, addend: 0x0, symName: __RINvNtCs2tD97QJu26F_4core3ptr13drop_in_placeINtNtCsF7gmULBm3O_4pyo38instance2PyNtNtCsaYfPqFfImBE_4dprs10parameters9DimensionEEB1j_, symObjAddr: 0x1694, symBinAddr: 0x27F88, symSize: 0x24 }
  - { offsetInCU: 0x10FC, offset: 0x93F26, size: 0x8, addend: 0x0, symName: __RINvNtCs2tD97QJu26F_4core3ptr13drop_in_placeINtNtCsF7gmULBm3O_4pyo38instance5BoundNtNtCsaYfPqFfImBE_4dprs10parameters10ProcessingEEB1m_, symObjAddr: 0x16B8, symBinAddr: 0x27FAC, symSize: 0x24 }
  - { offsetInCU: 0x112B, offset: 0x93F55, size: 0x8, addend: 0x0, symName: __RINvNtCs2tD97QJu26F_4core3ptr13drop_in_placeINtNtCsF7gmULBm3O_4pyo38instance5BoundNtNtCsaYfPqFfImBE_4dprs10parameters17BoundaryConditionEEB1m_, symObjAddr: 0x16DC, symBinAddr: 0x27FD0, symSize: 0x24 }
  - { offsetInCU: 0x115A, offset: 0x93F84, size: 0x8, addend: 0x0, symName: __RINvNtCs2tD97QJu26F_4core3ptr13drop_in_placeINtNtCsF7gmULBm3O_4pyo38instance5BoundNtNtCsaYfPqFfImBE_4dprs10parameters8TopologyEEB1m_, symObjAddr: 0x1700, symBinAddr: 0x27FF4, symSize: 0x24 }
  - { offsetInCU: 0x1189, offset: 0x93FB3, size: 0x8, addend: 0x0, symName: __RINvNtCs2tD97QJu26F_4core3ptr13drop_in_placeINtNtCsF7gmULBm3O_4pyo38instance5BoundNtNtCsaYfPqFfImBE_4dprs10parameters9DimensionEEB1m_, symObjAddr: 0x1724, symBinAddr: 0x28018, symSize: 0x24 }
  - { offsetInCU: 0x11B8, offset: 0x93FE2, size: 0x8, addend: 0x0, symName: __RINvNtCs2tD97QJu26F_4core3ptr13drop_in_placeINtNtNtCs9xDkXAC1PNF_5alloc11collections11linked_list10LinkedListINtNtBN_3vec3VecbEEECsaYfPqFfImBE_4dprs, symObjAddr: 0x18B0, symBinAddr: 0x2803C, symSize: 0x24 }
  - { offsetInCU: 0x11E7, offset: 0x94011, size: 0x8, addend: 0x0, symName: __RINvNtCs2tD97QJu26F_4core3ptr13drop_in_placeINtNtNtCs9xDkXAC1PNF_5alloc11collections11linked_list4NodeINtNtBN_3vec3VecbEEECsaYfPqFfImBE_4dprs, symObjAddr: 0x18D4, symBinAddr: 0x28060, symSize: 0x24 }
  - { offsetInCU: 0x1216, offset: 0x94040, size: 0x8, addend: 0x0, symName: __RINvNtCs2tD97QJu26F_4core3ptr13drop_in_placeINtNtNtCs9xDkXAC1PNF_5alloc11collections11linked_list8IntoIterINtNtBN_3vec3VecbEEECsaYfPqFfImBE_4dprs, symObjAddr: 0x18F8, symBinAddr: 0x28084, symSize: 0x24 }
  - { offsetInCU: 0x1245, offset: 0x9406F, size: 0x8, addend: 0x0, symName: __RINvNtCs2tD97QJu26F_4core3ptr13drop_in_placeINtNtNtCs9xDkXAC1PNF_5alloc3vec13in_place_drop11InPlaceDropINtBL_3VecbEEECsaYfPqFfImBE_4dprs, symObjAddr: 0x191C, symBinAddr: 0x280A8, symSize: 0x24 }
  - { offsetInCU: 0x1274, offset: 0x9409E, size: 0x8, addend: 0x0, symName: __RINvNtCs2tD97QJu26F_4core3ptr13drop_in_placeINtNtNtCs9xDkXAC1PNF_5alloc3vec13in_place_drop24InPlaceDstDataSrcBufDropINtBL_3VecbEB1Q_EECsaYfPqFfImBE_4dprs, symObjAddr: 0x1940, symBinAddr: 0x280CC, symSize: 0x24 }
  - { offsetInCU: 0x12A3, offset: 0x940CD, size: 0x8, addend: 0x0, symName: __RINvNtCs2tD97QJu26F_4core3ptr13drop_in_placeINtNtNtCs9xDkXAC1PNF_5alloc3vec9into_iter8IntoIterINtBL_3VecbEEECsaYfPqFfImBE_4dprs, symObjAddr: 0x1964, symBinAddr: 0x280F0, symSize: 0x24 }
  - { offsetInCU: 0x12D2, offset: 0x940FC, size: 0x8, addend: 0x0, symName: __RINvNtCs2tD97QJu26F_4core3ptr13drop_in_placeINtNtNtCs9xDkXAC1PNF_5alloc3vec9into_iter8IntoIterbEECsaYfPqFfImBE_4dprs, symObjAddr: 0x1988, symBinAddr: 0x28114, symSize: 0x24 }
  - { offsetInCU: 0x1301, offset: 0x9412B, size: 0x8, addend: 0x0, symName: __RINvNtCs2tD97QJu26F_4core3ptr13drop_in_placeINtNtNtCsF7gmULBm3O_4pyo37pyclass5guard12PyClassGuardNtNtCsaYfPqFfImBE_4dprs10parameters10ProcessingEEB1B_, symObjAddr: 0x1A60, symBinAddr: 0x28138, symSize: 0x24 }
  - { offsetInCU: 0x1330, offset: 0x9415A, size: 0x8, addend: 0x0, symName: __RINvNtCs2tD97QJu26F_4core3ptr13drop_in_placeINtNtNtCsF7gmULBm3O_4pyo37pyclass5guard12PyClassGuardNtNtCsaYfPqFfImBE_4dprs10parameters17BoundaryConditionEEB1B_, symObjAddr: 0x1A84, symBinAddr: 0x2815C, symSize: 0x24 }
  - { offsetInCU: 0x135F, offset: 0x94189, size: 0x8, addend: 0x0, symName: __RINvNtCs2tD97QJu26F_4core3ptr13drop_in_placeINtNtNtCsF7gmULBm3O_4pyo37pyclass5guard12PyClassGuardNtNtCsaYfPqFfImBE_4dprs10parameters8TopologyEEB1B_, symObjAddr: 0x1AA8, symBinAddr: 0x28180, symSize: 0x24 }
  - { offsetInCU: 0x138E, offset: 0x941B8, size: 0x8, addend: 0x0, symName: __RINvNtCs2tD97QJu26F_4core3ptr13drop_in_placeINtNtNtCsF7gmULBm3O_4pyo37pyclass5guard12PyClassGuardNtNtCsaYfPqFfImBE_4dprs10parameters9DimensionEEB1B_, symObjAddr: 0x1ACC, symBinAddr: 0x281A4, symSize: 0x24 }
  - { offsetInCU: 0x13BD, offset: 0x941E7, size: 0x8, addend: 0x0, symName: __RINvNtCs2tD97QJu26F_4core3ptr13drop_in_placeINtNtNtCsaYfPqFfImBE_4dprs2dp8model_2d14LatticeModel2DNtNtBL_11dp_model_2d7DPModelEEBN_, symObjAddr: 0x1AF0, symBinAddr: 0x281C8, symSize: 0x24 }
  - { offsetInCU: 0x13EC, offset: 0x94216, size: 0x8, addend: 0x0, symName: __RINvNtCs2tD97QJu26F_4core3ptr13drop_in_placeINtNtNtCsaYfPqFfImBE_4dprs4life8model_2d14LatticeModel2DNtNtBL_10life_model9LifeModelEEBN_, symObjAddr: 0x1B14, symBinAddr: 0x281EC, symSize: 0x24 }
  - { offsetInCU: 0x141B, offset: 0x94245, size: 0x8, addend: 0x0, symName: __RINvNtCs2tD97QJu26F_4core3ptr13drop_in_placeINtNtNtCslkboY0IC5z6_5rayon4iter3map9MapFolderINtNtBL_6extend13ListVecFolderbENCNvMNtNtCsaYfPqFfImBE_4dprs4life8model_2dINtB21_14LatticeModel2DNtNtB23_10life_model9LifeModelE23next_iteration_parallel0EEB25_, symObjAddr: 0x1B38, symBinAddr: 0x28210, symSize: 0x24 }
  - { offsetInCU: 0x144A, offset: 0x94274, size: 0x8, addend: 0x0, symName: __RINvNtCs2tD97QJu26F_4core3ptr13drop_in_placeINtNtNtCslkboY0IC5z6_5rayon4iter3map9MapFolderINtNtNtBL_7collect8consumer13CollectResultbENCNvMNtNtCsaYfPqFfImBE_4dprs4life8model_2dINtB2d_14LatticeModel2DNtNtB2f_10life_model9LifeModelE23next_iteration_parallel0EEB2h_, symObjAddr: 0x1B5C, symBinAddr: 0x28234, symSize: 0x24 }
  - { offsetInCU: 0x1479, offset: 0x942A3, size: 0x8, addend: 0x0, symName: __RINvNtCs2tD97QJu26F_4core3ptr13drop_in_placeINtNtNtCslkboY0IC5z6_5rayon4iter6extend13ListVecFolderbEECsaYfPqFfImBE_4dprs, symObjAddr: 0x1B80, symBinAddr: 0x28258, symSize: 0x24 }
  - { offsetInCU: 0x14A8, offset: 0x942D2, size: 0x8, addend: 0x0, symName: __RINvNtCs2tD97QJu26F_4core3ptr13drop_in_placeINtNtNtNtB4_4iter8adapters3map3MapINtNtNtCs9xDkXAC1PNF_5alloc3vec9into_iter8IntoIterINtB1j_3VecbEENCINvYB22_NtNtCsF7gmULBm3O_4pyo310conversion12IntoPyObject28owned_sequence_into_pyobjectIB23_B22_EE0EECsaYfPqFfImBE_4dprs, symObjAddr: 0x1BA4, symBinAddr: 0x2827C, symSize: 0x24 }
  - { offsetInCU: 0x14D7, offset: 0x94301, size: 0x8, addend: 0x0, symName: __RINvNtCs2tD97QJu26F_4core3ptr13drop_in_placeINtNtNtNtB4_4iter8adapters3map3MapINtNtNtCs9xDkXAC1PNF_5alloc3vec9into_iter8IntoIterINtB1j_3VecbEENCNvNtCsaYfPqFfImBE_4dprs2dp14run_simulations_0EEB2m_, symObjAddr: 0x1BC8, symBinAddr: 0x282A0, symSize: 0x24 }
  - { offsetInCU: 0x1506, offset: 0x94330, size: 0x8, addend: 0x0, symName: __RINvNtCs2tD97QJu26F_4core3ptr13drop_in_placeINtNtNtNtB4_4iter8adapters3map3MapINtNtNtCs9xDkXAC1PNF_5alloc3vec9into_iter8IntoIterINtB1j_3VecbEENCNvNtCsaYfPqFfImBE_4dprs4life14run_simulations_0EEB2m_, symObjAddr: 0x1BEC, symBinAddr: 0x282C4, symSize: 0x24 }
  - { offsetInCU: 0x1535, offset: 0x9435F, size: 0x8, addend: 0x0, symName: __RINvNtCs2tD97QJu26F_4core3ptr13drop_in_placeINtNtNtNtB4_4iter8adapters3map3MapINtNtNtCs9xDkXAC1PNF_5alloc3vec9into_iter8IntoIterbENCINvYbNtNtCsF7gmULBm3O_4pyo310conversion12IntoPyObject28owned_sequence_into_pyobjectINtB1j_3VecbEE0EECsaYfPqFfImBE_4dprs, symObjAddr: 0x1C10, symBinAddr: 0x282E8, symSize: 0x24 }
  - { offsetInCU: 0x1564, offset: 0x9438E, size: 0x8, addend: 0x0, symName: __RINvNtCs2tD97QJu26F_4core3ptr13drop_in_placeINtNtNtNtCslkboY0IC5z6_5rayon4iter7collect8consumer13CollectResultbEECsaYfPqFfImBE_4dprs, symObjAddr: 0x1D24, symBinAddr: 0x2830C, symSize: 0x24 }
  - { offsetInCU: 0x1593, offset: 0x943BD, size: 0x8, addend: 0x0, symName: __RINvNtCs2tD97QJu26F_4core3ptr13drop_in_placeINtNvXs7_NtNtCs9xDkXAC1PNF_5alloc11collections11linked_listINtBP_10LinkedListppENtNtNtB4_3ops4drop4Drop4drop9DropGuardINtNtBT_3vec3VecbENtNtBT_5alloc6GlobalEECsaYfPqFfImBE_4dprs, symObjAddr: 0x1D48, symBinAddr: 0x28330, symSize: 0x24 }
  - { offsetInCU: 0x15C2, offset: 0x943EC, size: 0x8, addend: 0x0, symName: __RINvNtCs2tD97QJu26F_4core3ptr13drop_in_placeINtNvXse_NtNtCs9xDkXAC1PNF_5alloc3vec9into_iterINtBP_8IntoIterppENtNtNtB4_3ops4drop4Drop4drop9DropGuardINtBR_3VecbENtNtBT_5alloc6GlobalEECsaYfPqFfImBE_4dprs, symObjAddr: 0x1D6C, symBinAddr: 0x28354, symSize: 0x24 }
  - { offsetInCU: 0x15F1, offset: 0x9441B, size: 0x8, addend: 0x0, symName: __RINvNtCs2tD97QJu26F_4core3ptr13drop_in_placeINtNvXse_NtNtCs9xDkXAC1PNF_5alloc3vec9into_iterINtBP_8IntoIterppENtNtNtB4_3ops4drop4Drop4drop9DropGuardbNtNtBT_5alloc6GlobalEECsaYfPqFfImBE_4dprs, symObjAddr: 0x1D90, symBinAddr: 0x28378, symSize: 0x24 }
  - { offsetInCU: 0x1620, offset: 0x9444A, size: 0x8, addend: 0x0, symName: __RINvNtCs2tD97QJu26F_4core3ptr13drop_in_placeNCINvMNtCs9PXnr41oVbh_10rayon_core11thread_poolNtBM_10ThreadPool7installNCNvNtCsaYfPqFfImBE_4dprs2dp14run_simulation0TjINtNtCs9xDkXAC1PNF_5alloc3vec3VecIB2C_bEEEE0EB1W_, symObjAddr: 0x1DB4, symBinAddr: 0x2839C, symSize: 0x24 }
  - { offsetInCU: 0x164F, offset: 0x94479, size: 0x8, addend: 0x0, symName: __RINvNtCs2tD97QJu26F_4core3ptr13drop_in_placeNCINvMNtCs9PXnr41oVbh_10rayon_core11thread_poolNtBM_10ThreadPool7installNCNvNtCsaYfPqFfImBE_4dprs4life14run_simulation0TjINtNtCs9xDkXAC1PNF_5alloc3vec3VecIB2E_bEEEE0EB1W_, symObjAddr: 0x1DD8, symBinAddr: 0x283C0, symSize: 0x24 }
  - { offsetInCU: 0x167E, offset: 0x944A8, size: 0x8, addend: 0x0, symName: __RINvNtCs2tD97QJu26F_4core3ptr13drop_in_placeNCINvMs4_NtCs9PXnr41oVbh_10rayon_core8registryNtBP_8Registry14in_worker_coldNCINvMNtBR_11thread_poolNtB20_10ThreadPool7installNCNvNtCsaYfPqFfImBE_4dprs2dp14run_simulation0TjINtNtCs9xDkXAC1PNF_5alloc3vec3VecIB3u_bEEEE0B3r_E0EB2O_, symObjAddr: 0x1DFC, symBinAddr: 0x283E4, symSize: 0x24 }
  - { offsetInCU: 0x16AD, offset: 0x944D7, size: 0x8, addend: 0x0, symName: __RINvNtCs2tD97QJu26F_4core3ptr13drop_in_placeNCINvMs4_NtCs9PXnr41oVbh_10rayon_core8registryNtBP_8Registry14in_worker_coldNCINvMNtBR_11thread_poolNtB20_10ThreadPool7installNCNvNtCsaYfPqFfImBE_4dprs4life14run_simulation0TjINtNtCs9xDkXAC1PNF_5alloc3vec3VecIB3w_bEEEE0B3t_E0EB2O_, symObjAddr: 0x1E20, symBinAddr: 0x28408, symSize: 0x24 }
  - { offsetInCU: 0x16DC, offset: 0x94506, size: 0x8, addend: 0x0, symName: __RINvNtCs2tD97QJu26F_4core3ptr13drop_in_placeNCINvMs4_NtCs9PXnr41oVbh_10rayon_core8registryNtBP_8Registry15in_worker_crossNCINvMNtBR_11thread_poolNtB21_10ThreadPool7installNCNvNtCsaYfPqFfImBE_4dprs2dp14run_simulation0TjINtNtCs9xDkXAC1PNF_5alloc3vec3VecIB3v_bEEEE0B3s_E0EB2P_, symObjAddr: 0x1E44, symBinAddr: 0x2842C, symSize: 0x24 }
  - { offsetInCU: 0x170B, offset: 0x94535, size: 0x8, addend: 0x0, symName: __RINvNtCs2tD97QJu26F_4core3ptr13drop_in_placeNCINvMs4_NtCs9PXnr41oVbh_10rayon_core8registryNtBP_8Registry15in_worker_crossNCINvMNtBR_11thread_poolNtB21_10ThreadPool7installNCNvNtCsaYfPqFfImBE_4dprs4life14run_simulation0TjINtNtCs9xDkXAC1PNF_5alloc3vec3VecIB3x_bEEEE0B3u_E0EB2P_, symObjAddr: 0x1E68, symBinAddr: 0x28450, symSize: 0x24 }
  - { offsetInCU: 0x173A, offset: 0x94564, size: 0x8, addend: 0x0, symName: __RINvNtCs2tD97QJu26F_4core3ptr13drop_in_placeNCINvMsj_NtCs9xDkXAC1PNF_5alloc3vecINtBP_3VecbE14extend_trustedINtNtNtNtB4_4iter8adapters3map3MapINtNtNtB4_3ops5range5RangejENCINvMNtNtCsaYfPqFfImBE_4dprs2dp8model_2dINtB2N_14LatticeModel2DNtNtB2P_11dp_model_2d7DPModelE21next_iteration_serialNtNtNtCseSFJDzX8FyV_4rand4rngs6thread9ThreadRngE0EE0EB2R_, symObjAddr: 0x1E8C, symBinAddr: 0x28474, symSize: 0x24 }
  - { offsetInCU: 0x1769, offset: 0x94593, size: 0x8, addend: 0x0, symName: __RINvNtCs2tD97QJu26F_4core3ptr13drop_in_placeNCINvMsj_NtCs9xDkXAC1PNF_5alloc3vecINtBP_3VecbE14extend_trustedINtNtNtNtB4_4iter8adapters3map3MapINtNtNtB4_3ops5range5RangejENCINvMNtNtCsaYfPqFfImBE_4dprs2dp8model_2dINtB2N_14LatticeModel2DNtNtB2P_11dp_model_2d7DPModelE9randomizeNtNtNtCseSFJDzX8FyV_4rand4rngs6thread9ThreadRngE0EE0EB2R_, symObjAddr: 0x1EB0, symBinAddr: 0x28498, symSize: 0x24 }
  - { offsetInCU: 0x1798, offset: 0x945C2, size: 0x8, addend: 0x0, symName: __RINvNtCs2tD97QJu26F_4core3ptr13drop_in_placeNCINvMsj_NtCs9xDkXAC1PNF_5alloc3vecINtBP_3VecbE14extend_trustedINtNtNtNtB4_4iter8adapters3map3MapINtNtNtB4_3ops5range5RangejENCINvMNtNtCsaYfPqFfImBE_4dprs4life8model_2dINtB2N_14LatticeModel2DNtNtB2P_10life_model9LifeModelE9randomizeNtNtNtCseSFJDzX8FyV_4rand4rngs6thread9ThreadRngE0EE0EB2R_, symObjAddr: 0x1ED4, symBinAddr: 0x284BC, symSize: 0x24 }
  - { offsetInCU: 0x17C7, offset: 0x945F1, size: 0x8, addend: 0x0, symName: __RINvNtCs2tD97QJu26F_4core3ptr13drop_in_placeNCINvMsj_NtCs9xDkXAC1PNF_5alloc3vecINtBP_3VecbE14extend_trustedINtNtNtNtB4_4iter8adapters3map3MapINtNtNtB4_3ops5range5RangejENCNvMNtNtCsaYfPqFfImBE_4dprs4life8model_2dINtB2M_14LatticeModel2DNtNtB2O_10life_model9LifeModelE21next_iteration_serial0EE0EB2Q_, symObjAddr: 0x1EF8, symBinAddr: 0x284E0, symSize: 0x24 }
  - { offsetInCU: 0x17F6, offset: 0x94620, size: 0x8, addend: 0x0, symName: __RINvNtCs2tD97QJu26F_4core3ptr13drop_in_placeNCINvMsj_NtCs9xDkXAC1PNF_5alloc3vecINtBP_3VecbE14extend_trustedINtNtNtNtB4_4iter8adapters3map3MapINtNtNtB4_3ops5range5RangejERNCNvMNtNtCsaYfPqFfImBE_4dprs4life8model_2dINtB2N_14LatticeModel2DNtNtB2P_10life_model9LifeModelE23next_iteration_parallel0EE0EB2R_, symObjAddr: 0x1F1C, symBinAddr: 0x28504, symSize: 0x24 }
  - { offsetInCU: 0x1825, offset: 0x9464F, size: 0x8, addend: 0x0, symName: __RINvNtCs2tD97QJu26F_4core3ptr13drop_in_placeNCINvNtNtCsF7gmULBm3O_4pyo34sync9once_lock30try_init_once_cell_py_attachedNCNvXs4_NtCsaYfPqFfImBE_4dprs10parametersNtB20_9DimensionNtNtBP_10conversion12IntoPyObject13into_pyobject0INtNtBP_8instance2PyB2x_ENtNtBP_3err5PyErrE0EB22_, symObjAddr: 0x1F40, symBinAddr: 0x28528, symSize: 0x24 }
  - { offsetInCU: 0x1854, offset: 0x9467E, size: 0x8, addend: 0x0, symName: __RINvNtCs2tD97QJu26F_4core3ptr13drop_in_placeNCINvNtNtCsF7gmULBm3O_4pyo34sync9once_lock30try_init_once_cell_py_attachedNCNvXsE_NtCsaYfPqFfImBE_4dprs10parametersNtB20_10ProcessingNtNtBP_10conversion12IntoPyObject13into_pyobject0INtNtBP_8instance2PyB2x_ENtNtBP_3err5PyErrE0EB22_, symObjAddr: 0x1F64, symBinAddr: 0x2854C, symSize: 0x24 }
  - { offsetInCU: 0x1883, offset: 0x946AD, size: 0x8, addend: 0x0, symName: __RINvNtCs2tD97QJu26F_4core3ptr13drop_in_placeNCINvNtNtCsF7gmULBm3O_4pyo34sync9once_lock30try_init_once_cell_py_attachedNCNvXsg_NtCsaYfPqFfImBE_4dprs10parametersNtB20_8TopologyNtNtBP_10conversion12IntoPyObject13into_pyobject0INtNtBP_8instance2PyB2x_ENtNtBP_3err5PyErrE0EB22_, symObjAddr: 0x1F88, symBinAddr: 0x28570, symSize: 0x24 }
  - { offsetInCU: 0x18B2, offset: 0x946DC, size: 0x8, addend: 0x0, symName: __RINvNtCs2tD97QJu26F_4core3ptr13drop_in_placeNCINvNtNtCsF7gmULBm3O_4pyo34sync9once_lock30try_init_once_cell_py_attachedNCNvXss_NtCsaYfPqFfImBE_4dprs10parametersNtB20_17BoundaryConditionNtNtBP_10conversion12IntoPyObject13into_pyobject0INtNtBP_8instance2PyB2x_ENtNtBP_3err5PyErrE0EB22_, symObjAddr: 0x1FAC, symBinAddr: 0x28594, symSize: 0x24 }
  - { offsetInCU: 0x18E1, offset: 0x9470B, size: 0x8, addend: 0x0, symName: __RINvNtCs2tD97QJu26F_4core3ptr13drop_in_placeNCINvNtNtNtB4_4iter8adapters3map8map_foldjbuNCINvMNtNtCsaYfPqFfImBE_4dprs2dp8model_2dINtB1u_14LatticeModel2DNtNtB1w_11dp_model_2d7DPModelE21next_iteration_serialNtNtNtCseSFJDzX8FyV_4rand4rngs6thread9ThreadRngE0NCINvNvNtNtNtBP_6traits8iterator8Iterator8for_each4callbNCINvMsj_NtCs9xDkXAC1PNF_5alloc3vecINtB57_3VecbE14extend_trustedINtBL_3MapINtNtNtB4_3ops5range5RangejEB1o_EE0E0E0EB1y_, symObjAddr: 0x1FD0, symBinAddr: 0x285B8, symSize: 0x24 }
  - { offsetInCU: 0x1910, offset: 0x9473A, size: 0x8, addend: 0x0, symName: __RINvNtCs2tD97QJu26F_4core3ptr13drop_in_placeNCINvNtNtNtB4_4iter8adapters3map8map_foldjbuNCINvMNtNtCsaYfPqFfImBE_4dprs2dp8model_2dINtB1u_14LatticeModel2DNtNtB1w_11dp_model_2d7DPModelE9randomizeNtNtNtCseSFJDzX8FyV_4rand4rngs6thread9ThreadRngE0NCINvNvNtNtNtBP_6traits8iterator8Iterator8for_each4callbNCINvMsj_NtCs9xDkXAC1PNF_5alloc3vecINtB4U_3VecbE14extend_trustedINtBL_3MapINtNtNtB4_3ops5range5RangejEB1o_EE0E0E0EB1y_, symObjAddr: 0x1FF4, symBinAddr: 0x285DC, symSize: 0x24 }
  - { offsetInCU: 0x193F, offset: 0x94769, size: 0x8, addend: 0x0, symName: __RINvNtCs2tD97QJu26F_4core3ptr13drop_in_placeNCINvNtNtNtB4_4iter8adapters3map8map_foldjbuNCINvMNtNtCsaYfPqFfImBE_4dprs4life8model_2dINtB1u_14LatticeModel2DNtNtB1w_10life_model9LifeModelE9randomizeNtNtNtCseSFJDzX8FyV_4rand4rngs6thread9ThreadRngE0NCINvNvNtNtNtBP_6traits8iterator8Iterator8for_each4callbNCINvMsj_NtCs9xDkXAC1PNF_5alloc3vecINtB4X_3VecbE14extend_trustedINtBL_3MapINtNtNtB4_3ops5range5RangejEB1o_EE0E0E0EB1y_, symObjAddr: 0x2018, symBinAddr: 0x28600, symSize: 0x24 }
  - { offsetInCU: 0x196E, offset: 0x94798, size: 0x8, addend: 0x0, symName: __RINvNtCs2tD97QJu26F_4core3ptr13drop_in_placeNCINvNtNtNtB4_4iter8adapters3map8map_foldjbuNCNvMNtNtCsaYfPqFfImBE_4dprs4life8model_2dINtB1t_14LatticeModel2DNtNtB1v_10life_model9LifeModelE21next_iteration_serial0NCINvNvNtNtNtBP_6traits8iterator8Iterator8for_each4callbNCINvMsj_NtCs9xDkXAC1PNF_5alloc3vecINtB4n_3VecbE14extend_trustedINtBL_3MapINtNtNtB4_3ops5range5RangejEB1o_EE0E0E0EB1x_, symObjAddr: 0x203C, symBinAddr: 0x28624, symSize: 0x24 }
  - { offsetInCU: 0x199D, offset: 0x947C7, size: 0x8, addend: 0x0, symName: __RINvNtCs2tD97QJu26F_4core3ptr13drop_in_placeNCINvNtNtNtB4_4iter8adapters3map8map_foldjbuRNCNvMNtNtCsaYfPqFfImBE_4dprs4life8model_2dINtB1u_14LatticeModel2DNtNtB1w_10life_model9LifeModelE23next_iteration_parallel0NCINvNvNtNtNtBP_6traits8iterator8Iterator8for_each4callbNCINvMsj_NtCs9xDkXAC1PNF_5alloc3vecINtB4q_3VecbE14extend_trustedINtBL_3MapINtNtNtB4_3ops5range5RangejEB1o_EE0E0E0EB1y_, symObjAddr: 0x2060, symBinAddr: 0x28648, symSize: 0x24 }
  - { offsetInCU: 0x19CC, offset: 0x947F6, size: 0x8, addend: 0x0, symName: __RINvNtCs2tD97QJu26F_4core3ptr13drop_in_placeNCINvNvNtNtNtNtB4_4iter6traits8iterator8Iterator8for_each4callbNCINvMsj_NtCs9xDkXAC1PNF_5alloc3vecINtB1Q_3VecbE14extend_trustedINtNtNtBT_8adapters3map3MapINtNtNtB4_3ops5range5RangejENCINvMNtNtCsaYfPqFfImBE_4dprs2dp8model_2dINtB3I_14LatticeModel2DNtNtB3K_11dp_model_2d7DPModelE21next_iteration_serialNtNtNtCseSFJDzX8FyV_4rand4rngs6thread9ThreadRngE0EE0E0EB3M_, symObjAddr: 0x2084, symBinAddr: 0x2866C, symSize: 0x24 }
  - { offsetInCU: 0x19FB, offset: 0x94825, size: 0x8, addend: 0x0, symName: __RINvNtCs2tD97QJu26F_4core3ptr13drop_in_placeNCINvNvNtNtNtNtB4_4iter6traits8iterator8Iterator8for_each4callbNCINvMsj_NtCs9xDkXAC1PNF_5alloc3vecINtB1Q_3VecbE14extend_trustedINtNtNtBT_8adapters3map3MapINtNtNtB4_3ops5range5RangejENCINvMNtNtCsaYfPqFfImBE_4dprs2dp8model_2dINtB3I_14LatticeModel2DNtNtB3K_11dp_model_2d7DPModelE9randomizeNtNtNtCseSFJDzX8FyV_4rand4rngs6thread9ThreadRngE0EE0E0EB3M_, symObjAddr: 0x20A8, symBinAddr: 0x28690, symSize: 0x24 }
  - { offsetInCU: 0x1A2A, offset: 0x94854, size: 0x8, addend: 0x0, symName: __RINvNtCs2tD97QJu26F_4core3ptr13drop_in_placeNCINvNvNtNtNtNtB4_4iter6traits8iterator8Iterator8for_each4callbNCINvMsj_NtCs9xDkXAC1PNF_5alloc3vecINtB1Q_3VecbE14extend_trustedINtNtNtBT_8adapters3map3MapINtNtNtB4_3ops5range5RangejENCINvMNtNtCsaYfPqFfImBE_4dprs4life8model_2dINtB3I_14LatticeModel2DNtNtB3K_10life_model9LifeModelE9randomizeNtNtNtCseSFJDzX8FyV_4rand4rngs6thread9ThreadRngE0EE0E0EB3M_, symObjAddr: 0x20CC, symBinAddr: 0x286B4, symSize: 0x24 }
  - { offsetInCU: 0x1A59, offset: 0x94883, size: 0x8, addend: 0x0, symName: __RINvNtCs2tD97QJu26F_4core3ptr13drop_in_placeNCINvNvNtNtNtNtB4_4iter6traits8iterator8Iterator8for_each4callbNCINvMsj_NtCs9xDkXAC1PNF_5alloc3vecINtB1Q_3VecbE14extend_trustedINtNtNtBT_8adapters3map3MapINtNtNtB4_3ops5range5RangejENCNvMNtNtCsaYfPqFfImBE_4dprs4life8model_2dINtB3H_14LatticeModel2DNtNtB3J_10life_model9LifeModelE21next_iteration_serial0EE0E0EB3L_, symObjAddr: 0x20F0, symBinAddr: 0x286D8, symSize: 0x24 }
  - { offsetInCU: 0x1A88, offset: 0x948B2, size: 0x8, addend: 0x0, symName: __RINvNtCs2tD97QJu26F_4core3ptr13drop_in_placeNCINvNvNtNtNtNtB4_4iter6traits8iterator8Iterator8for_each4callbNCINvMsj_NtCs9xDkXAC1PNF_5alloc3vecINtB1Q_3VecbE14extend_trustedINtNtNtBT_8adapters3map3MapINtNtNtB4_3ops5range5RangejERNCNvMNtNtCsaYfPqFfImBE_4dprs4life8model_2dINtB3I_14LatticeModel2DNtNtB3K_10life_model9LifeModelE23next_iteration_parallel0EE0E0EB3M_, symObjAddr: 0x2114, symBinAddr: 0x286FC, symSize: 0x24 }
  - { offsetInCU: 0x1AB7, offset: 0x948E1, size: 0x8, addend: 0x0, symName: __RINvNtCs2tD97QJu26F_4core3ptr13drop_in_placeNCNCINvMs4_NtCs9PXnr41oVbh_10rayon_core8registryNtBR_8Registry14in_worker_coldNCINvMNtBT_11thread_poolNtB22_10ThreadPool7installNCNvNtCsaYfPqFfImBE_4dprs2dp14run_simulation0TjINtNtCs9xDkXAC1PNF_5alloc3vec3VecIB3w_bEEEE0B3t_E00EB2Q_, symObjAddr: 0x2138, symBinAddr: 0x28720, symSize: 0x24 }
  - { offsetInCU: 0x1AE6, offset: 0x94910, size: 0x8, addend: 0x0, symName: __RINvNtCs2tD97QJu26F_4core3ptr13drop_in_placeNCNCINvMs4_NtCs9PXnr41oVbh_10rayon_core8registryNtBR_8Registry14in_worker_coldNCINvMNtBT_11thread_poolNtB22_10ThreadPool7installNCNvNtCsaYfPqFfImBE_4dprs4life14run_simulation0TjINtNtCs9xDkXAC1PNF_5alloc3vec3VecIB3y_bEEEE0B3v_E00EB2Q_, symObjAddr: 0x215C, symBinAddr: 0x28744, symSize: 0x24 }
  - { offsetInCU: 0x1B15, offset: 0x9493F, size: 0x8, addend: 0x0, symName: __RINvNtCs2tD97QJu26F_4core3ptr13drop_in_placeNCNvNtCsaYfPqFfImBE_4dprs2dp14run_simulation0EBM_, symObjAddr: 0x2180, symBinAddr: 0x28768, symSize: 0x24 }
  - { offsetInCU: 0x1B44, offset: 0x9496E, size: 0x8, addend: 0x0, symName: __RINvNtCs2tD97QJu26F_4core3ptr13drop_in_placeNCNvNtCsaYfPqFfImBE_4dprs4life14run_simulation0EBM_, symObjAddr: 0x21A4, symBinAddr: 0x2878C, symSize: 0x24 }
  - { offsetInCU: 0x1B73, offset: 0x9499D, size: 0x8, addend: 0x0, symName: __RINvNtCs2tD97QJu26F_4core3ptr13drop_in_placeNtNtCs9PXnr41oVbh_10rayon_core11thread_pool10ThreadPoolECsaYfPqFfImBE_4dprs, symObjAddr: 0x21C8, symBinAddr: 0x287B0, symSize: 0x5C }
  - { offsetInCU: 0x1BA2, offset: 0x949CC, size: 0x8, addend: 0x0, symName: __RINvNtCs2tD97QJu26F_4core3ptr13drop_in_placeNtNtNtCsF7gmULBm3O_4pyo37pyclass5guard17PyClassGuardErrorECsaYfPqFfImBE_4dprs, symObjAddr: 0x2248, symBinAddr: 0x2880C, symSize: 0x24 }
  - { offsetInCU: 0x1BD1, offset: 0x949FB, size: 0x8, addend: 0x0, symName: __RINvNtCs2tD97QJu26F_4core3ptr13drop_in_placeNtNtNtCseSFJDzX8FyV_4rand4rngs6thread9ThreadRngECsaYfPqFfImBE_4dprs, symObjAddr: 0x226C, symBinAddr: 0x28830, symSize: 0x24 }
  - { offsetInCU: 0x1C00, offset: 0x94A2A, size: 0x8, addend: 0x0, symName: __RINvNtCs2tD97QJu26F_4core3ptr13drop_in_placeSINtNtCs9xDkXAC1PNF_5alloc3vec3VecbEECsaYfPqFfImBE_4dprs, symObjAddr: 0x2320, symBinAddr: 0x28854, symSize: 0xC4 }
  - { offsetInCU: 0x1C2F, offset: 0x94A59, size: 0x8, addend: 0x0, symName: __RINvNtCs2tD97QJu26F_4core3ptr13drop_in_placeTINtNtNtCs9xDkXAC1PNF_5alloc11collections11linked_list10LinkedListINtNtBO_3vec3VecbEEBH_EECsaYfPqFfImBE_4dprs, symObjAddr: 0x23E4, symBinAddr: 0x28918, symSize: 0x60 }
  - { offsetInCU: 0x1C5E, offset: 0x94A88, size: 0x8, addend: 0x0, symName: __RINvNtCs2tD97QJu26F_4core3ptr13drop_in_placeTINtNtNtNtCslkboY0IC5z6_5rayon4iter7collect8consumer13CollectResultbEBH_EECsaYfPqFfImBE_4dprs, symObjAddr: 0x2444, symBinAddr: 0x28978, symSize: 0x60 }
  - { offsetInCU: 0x1C8D, offset: 0x94AB7, size: 0x8, addend: 0x0, symName: __RINvNtCs2tD97QJu26F_4core3ptr13drop_in_placeTdjINtNtCs9xDkXAC1PNF_5alloc3vec3VecIBK_bEEEECsaYfPqFfImBE_4dprs, symObjAddr: 0x24A4, symBinAddr: 0x289D8, symSize: 0x24 }
  - { offsetInCU: 0x1CBC, offset: 0x94AE6, size: 0x8, addend: 0x0, symName: __RINvNtCs2tD97QJu26F_4core3ptr13drop_in_placeTjINtNtCs9xDkXAC1PNF_5alloc3vec3VecIBJ_bEEEECsaYfPqFfImBE_4dprs, symObjAddr: 0x24C8, symBinAddr: 0x289FC, symSize: 0x24 }
  - { offsetInCU: 0x200B, offset: 0x94E35, size: 0x8, addend: 0x0, symName: __RNSNvYNCINvMs2_NtCsjMha7NXOEaP_9once_cell3impINtBd_8OnceCellINtNtCsF7gmULBm3O_4pyo38instance2PyNtNtCsaYfPqFfImBE_4dprs10parameters10ProcessingEE10initializeNCINvNtNtB11_4sync9once_lock30try_init_once_cell_py_attachedNCNvXsE_B1x_B1v_NtNtB11_10conversion12IntoPyObject13into_pyobject0BW_NtNtB11_3err5PyErrE0B4z_E0INtNtNtCs2tD97QJu26F_4core3ops8function6FnOnceuE9call_once6vtableB1z_, symObjAddr: 0x24EC, symBinAddr: 0x28A20, symSize: 0x24 }
  - { offsetInCU: 0x204F, offset: 0x94E79, size: 0x8, addend: 0x0, symName: __RNSNvYNCINvMs2_NtCsjMha7NXOEaP_9once_cell3impINtBd_8OnceCellINtNtCsF7gmULBm3O_4pyo38instance2PyNtNtCsaYfPqFfImBE_4dprs10parameters17BoundaryConditionEE10initializeNCINvNtNtB11_4sync9once_lock30try_init_once_cell_py_attachedNCNvXss_B1x_B1v_NtNtB11_10conversion12IntoPyObject13into_pyobject0BW_NtNtB11_3err5PyErrE0B4G_E0INtNtNtCs2tD97QJu26F_4core3ops8function6FnOnceuE9call_once6vtableB1z_, symObjAddr: 0x2510, symBinAddr: 0x28A44, symSize: 0x24 }
  - { offsetInCU: 0x2093, offset: 0x94EBD, size: 0x8, addend: 0x0, symName: __RNSNvYNCINvMs2_NtCsjMha7NXOEaP_9once_cell3impINtBd_8OnceCellINtNtCsF7gmULBm3O_4pyo38instance2PyNtNtCsaYfPqFfImBE_4dprs10parameters8TopologyEE10initializeNCINvNtNtB11_4sync9once_lock30try_init_once_cell_py_attachedNCNvXsg_B1x_B1v_NtNtB11_10conversion12IntoPyObject13into_pyobject0BW_NtNtB11_3err5PyErrE0B4w_E0INtNtNtCs2tD97QJu26F_4core3ops8function6FnOnceuE9call_once6vtableB1z_, symObjAddr: 0x2534, symBinAddr: 0x28A68, symSize: 0x24 }
  - { offsetInCU: 0x20D7, offset: 0x94F01, size: 0x8, addend: 0x0, symName: __RNSNvYNCINvMs2_NtCsjMha7NXOEaP_9once_cell3impINtBd_8OnceCellINtNtCsF7gmULBm3O_4pyo38instance2PyNtNtCsaYfPqFfImBE_4dprs10parameters9DimensionEE10initializeNCINvNtNtB11_4sync9once_lock30try_init_once_cell_py_attachedNCNvXs4_B1x_B1v_NtNtB11_10conversion12IntoPyObject13into_pyobject0BW_NtNtB11_3err5PyErrE0B4x_E0INtNtNtCs2tD97QJu26F_4core3ops8function6FnOnceuE9call_once6vtableB1z_, symObjAddr: 0x2558, symBinAddr: 0x28A8C, symSize: 0x24 }
  - { offsetInCU: 0x211B, offset: 0x94F45, size: 0x8, addend: 0x0, symName: __RNvYNCINvMs2_NtCsjMha7NXOEaP_9once_cell3impINtBb_8OnceCellINtNtCsF7gmULBm3O_4pyo38instance2PyNtNtCsaYfPqFfImBE_4dprs10parameters10ProcessingEE10initializeNCINvNtNtBZ_4sync9once_lock30try_init_once_cell_py_attachedNCNvXsE_B1v_B1t_NtNtBZ_10conversion12IntoPyObject13into_pyobject0BU_NtNtBZ_3err5PyErrE0B4v_E0INtNtNtCs2tD97QJu26F_4core3ops8function6FnOnceuE9call_onceB1x_, symObjAddr: 0x366C, symBinAddr: 0x29AC4, symSize: 0x40 }
  - { offsetInCU: 0x2160, offset: 0x94F8A, size: 0x8, addend: 0x0, symName: __RNvYNCINvMs2_NtCsjMha7NXOEaP_9once_cell3impINtBb_8OnceCellINtNtCsF7gmULBm3O_4pyo38instance2PyNtNtCsaYfPqFfImBE_4dprs10parameters17BoundaryConditionEE10initializeNCINvNtNtBZ_4sync9once_lock30try_init_once_cell_py_attachedNCNvXss_B1v_B1t_NtNtBZ_10conversion12IntoPyObject13into_pyobject0BU_NtNtBZ_3err5PyErrE0B4C_E0INtNtNtCs2tD97QJu26F_4core3ops8function6FnOnceuE9call_onceB1x_, symObjAddr: 0x36AC, symBinAddr: 0x29B04, symSize: 0x40 }
  - { offsetInCU: 0x21A5, offset: 0x94FCF, size: 0x8, addend: 0x0, symName: __RNvYNCINvMs2_NtCsjMha7NXOEaP_9once_cell3impINtBb_8OnceCellINtNtCsF7gmULBm3O_4pyo38instance2PyNtNtCsaYfPqFfImBE_4dprs10parameters8TopologyEE10initializeNCINvNtNtBZ_4sync9once_lock30try_init_once_cell_py_attachedNCNvXsg_B1v_B1t_NtNtBZ_10conversion12IntoPyObject13into_pyobject0BU_NtNtBZ_3err5PyErrE0B4s_E0INtNtNtCs2tD97QJu26F_4core3ops8function6FnOnceuE9call_onceB1x_, symObjAddr: 0x36EC, symBinAddr: 0x29B44, symSize: 0x40 }
  - { offsetInCU: 0x21EA, offset: 0x95014, size: 0x8, addend: 0x0, symName: __RNvYNCINvMs2_NtCsjMha7NXOEaP_9once_cell3impINtBb_8OnceCellINtNtCsF7gmULBm3O_4pyo38instance2PyNtNtCsaYfPqFfImBE_4dprs10parameters9DimensionEE10initializeNCINvNtNtBZ_4sync9once_lock30try_init_once_cell_py_attachedNCNvXs4_B1v_B1t_NtNtBZ_10conversion12IntoPyObject13into_pyobject0BU_NtNtBZ_3err5PyErrE0B4t_E0INtNtNtCs2tD97QJu26F_4core3ops8function6FnOnceuE9call_onceB1x_, symObjAddr: 0x372C, symBinAddr: 0x29B84, symSize: 0x40 }
  - { offsetInCU: 0x222F, offset: 0x95059, size: 0x8, addend: 0x0, symName: __RNvYNCNKNvNtCs9PXnr41oVbh_10rayon_core8registry19WORKER_THREAD_STATE0s_0INtNtNtCs2tD97QJu26F_4core3ops8function6FnOnceTINtNtB1f_6option6OptionQIB1U_INtNtB1f_4cell4CellPNtB8_12WorkerThreadEEEEE9call_onceCsaYfPqFfImBE_4dprs, symObjAddr: 0x376C, symBinAddr: 0x29BC4, symSize: 0x4C }
  - { offsetInCU: 0x2273, offset: 0x9509D, size: 0x8, addend: 0x0, symName: __RNvYNCNKNvNtNtCsF7gmULBm3O_4pyo38internal5state12ATTACH_COUNT0s_0INtNtNtCs2tD97QJu26F_4core3ops8function6FnOnceTINtNtB18_6option6OptionQIB1N_INtNtB18_4cell4CelliEEEEE9call_onceCsaYfPqFfImBE_4dprs, symObjAddr: 0x37B8, symBinAddr: 0x29C10, symSize: 0x4C }
  - { offsetInCU: 0x22B7, offset: 0x950E1, size: 0x8, addend: 0x0, symName: __RNvYNCNKNvNvMs4_NtCs9PXnr41oVbh_10rayon_core8registryNtBe_8Registry14in_worker_cold10LOCK_LATCH00INtNtNtCs2tD97QJu26F_4core3ops8function6FnOnceTINtNtB1E_6option6OptionQIB2j_NtNtBg_5latch9LockLatchEEEE9call_onceCsaYfPqFfImBE_4dprs, symObjAddr: 0x3804, symBinAddr: 0x29C5C, symSize: 0x4C }
  - { offsetInCU: 0x22FB, offset: 0x95125, size: 0x8, addend: 0x0, symName: __RNvYNcNtINtNtCs2tD97QJu26F_4core6result6ResultRINtNtCsF7gmULBm3O_4pyo38instance2PyNtNtCsaYfPqFfImBE_4dprs10parameters10ProcessingENtNtBO_3err5PyErrE2Ok0INtNtNtBb_3ops8function6FnOnceTBI_EE9call_onceB1m_, symObjAddr: 0x3850, symBinAddr: 0x29CA8, symSize: 0x24 }
  - { offsetInCU: 0x233F, offset: 0x95169, size: 0x8, addend: 0x0, symName: __RNvYNcNtINtNtCs2tD97QJu26F_4core6result6ResultRINtNtCsF7gmULBm3O_4pyo38instance2PyNtNtCsaYfPqFfImBE_4dprs10parameters17BoundaryConditionENtNtBO_3err5PyErrE2Ok0INtNtNtBb_3ops8function6FnOnceTBI_EE9call_onceB1m_, symObjAddr: 0x3874, symBinAddr: 0x29CCC, symSize: 0x24 }
  - { offsetInCU: 0x2383, offset: 0x951AD, size: 0x8, addend: 0x0, symName: __RNvYNcNtINtNtCs2tD97QJu26F_4core6result6ResultRINtNtCsF7gmULBm3O_4pyo38instance2PyNtNtCsaYfPqFfImBE_4dprs10parameters8TopologyENtNtBO_3err5PyErrE2Ok0INtNtNtBb_3ops8function6FnOnceTBI_EE9call_onceB1m_, symObjAddr: 0x3898, symBinAddr: 0x29CF0, symSize: 0x24 }
  - { offsetInCU: 0x23C7, offset: 0x951F1, size: 0x8, addend: 0x0, symName: __RNvYNcNtINtNtCs2tD97QJu26F_4core6result6ResultRINtNtCsF7gmULBm3O_4pyo38instance2PyNtNtCsaYfPqFfImBE_4dprs10parameters9DimensionENtNtBO_3err5PyErrE2Ok0INtNtNtBb_3ops8function6FnOnceTBI_EE9call_onceB1m_, symObjAddr: 0x38BC, symBinAddr: 0x29D14, symSize: 0x24 }
  - { offsetInCU: 0x240B, offset: 0x95235, size: 0x8, addend: 0x0, symName: __RNvYNvMs9_NtCsF7gmULBm3O_4pyo38instanceINtB8_5BoundNtNtCsaYfPqFfImBE_4dprs10parameters10ProcessingE6unbindINtNtNtCs2tD97QJu26F_4core3ops8function6FnOnceTBB_EE9call_onceBR_, symObjAddr: 0x38E0, symBinAddr: 0x29D38, symSize: 0x24 }
  - { offsetInCU: 0x244F, offset: 0x95279, size: 0x8, addend: 0x0, symName: __RNvYNvMs9_NtCsF7gmULBm3O_4pyo38instanceINtB8_5BoundNtNtCsaYfPqFfImBE_4dprs10parameters17BoundaryConditionE6unbindINtNtNtCs2tD97QJu26F_4core3ops8function6FnOnceTBB_EE9call_onceBR_, symObjAddr: 0x3904, symBinAddr: 0x29D5C, symSize: 0x24 }
  - { offsetInCU: 0x2493, offset: 0x952BD, size: 0x8, addend: 0x0, symName: __RNvYNvMs9_NtCsF7gmULBm3O_4pyo38instanceINtB8_5BoundNtNtCsaYfPqFfImBE_4dprs10parameters8TopologyE6unbindINtNtNtCs2tD97QJu26F_4core3ops8function6FnOnceTBB_EE9call_onceBR_, symObjAddr: 0x3928, symBinAddr: 0x29D80, symSize: 0x24 }
  - { offsetInCU: 0x24D7, offset: 0x95301, size: 0x8, addend: 0x0, symName: __RNvYNvMs9_NtCsF7gmULBm3O_4pyo38instanceINtB8_5BoundNtNtCsaYfPqFfImBE_4dprs10parameters9DimensionE6unbindINtNtNtCs2tD97QJu26F_4core3ops8function6FnOnceTBB_EE9call_onceBR_, symObjAddr: 0x394C, symBinAddr: 0x29DA4, symSize: 0x24 }
  - { offsetInCU: 0x251B, offset: 0x95345, size: 0x8, addend: 0x0, symName: __RNvYNvMs9_NtCsF7gmULBm3O_4pyo38instanceINtB8_5BoundNtNtNtBa_5types3any5PyAnyE8into_ptrINtNtNtCs2tD97QJu26F_4core3ops8function6FnOnceTBB_EE9call_onceCsaYfPqFfImBE_4dprs, symObjAddr: 0x3970, symBinAddr: 0x29DC8, symSize: 0x24 }
  - { offsetInCU: 0x255F, offset: 0x95389, size: 0x8, addend: 0x0, symName: __RNvYNvMs9_NtCsF7gmULBm3O_4pyo38instanceINtB8_5BoundNtNtNtBa_5types4list6PyListE8into_anyINtNtNtCs2tD97QJu26F_4core3ops8function6FnOnceTBB_EE9call_onceCsaYfPqFfImBE_4dprs, symObjAddr: 0x3994, symBinAddr: 0x29DEC, symSize: 0x24 }
  - { offsetInCU: 0x25A3, offset: 0x953CD, size: 0x8, addend: 0x0, symName: __RNvYNvYINtNtCsF7gmULBm3O_4pyo38instance5BoundNtNtNtBa_5types3any5PyAnyEINtB8_11BoundObjectBH_E8into_ptrINtNtNtCs2tD97QJu26F_4core3ops8function6FnOnceTB5_EE9call_onceCsaYfPqFfImBE_4dprs, symObjAddr: 0x39E0, symBinAddr: 0x29E38, symSize: 0x24 }
  - { offsetInCU: 0x25E7, offset: 0x95411, size: 0x8, addend: 0x0, symName: __RNvYNvYINtNtCsF7gmULBm3O_4pyo38instance5BoundNtNtNtBa_5types3num5PyIntEINtB8_11BoundObjectBH_E8into_ptrINtNtNtCs2tD97QJu26F_4core3ops8function6FnOnceTB5_EE9call_onceCsaYfPqFfImBE_4dprs, symObjAddr: 0x3A04, symBinAddr: 0x29E5C, symSize: 0x24 }
  - { offsetInCU: 0x262B, offset: 0x95455, size: 0x8, addend: 0x0, symName: __RNvYNvYINtNtCsF7gmULBm3O_4pyo38instance5BoundNtNtNtBa_5types6string8PyStringEINtB8_11BoundObjectBH_E8into_ptrINtNtNtCs2tD97QJu26F_4core3ops8function6FnOnceTB5_EE9call_onceCsaYfPqFfImBE_4dprs, symObjAddr: 0x3A28, symBinAddr: 0x29E80, symSize: 0x24 }
  - { offsetInCU: 0x266F, offset: 0x95499, size: 0x8, addend: 0x0, symName: __RNvYNvYNtNtCsF7gmULBm3O_4pyo33err5PyErrINtNtCs2tD97QJu26F_4core7convert4IntoB5_E4intoINtNtNtBG_3ops8function6FnOnceTB5_EE9call_onceCsaYfPqFfImBE_4dprs, symObjAddr: 0x3A70, symBinAddr: 0x29EA4, symSize: 0x48 }
  - { offsetInCU: 0x26B3, offset: 0x954DD, size: 0x8, addend: 0x0, symName: __RNvYNvYNtNtNtCsF7gmULBm3O_4pyo37pyclass5guard17PyClassGuardErrorINtNtCs2tD97QJu26F_4core7convert4IntoNtNtBb_3err5PyErrE4intoINtNtNtB15_3ops8function6FnOnceTB5_EE9call_onceCsaYfPqFfImBE_4dprs, symObjAddr: 0x3AB8, symBinAddr: 0x29EEC, symSize: 0x34 }
  - { offsetInCU: 0x26FD, offset: 0x95527, size: 0x8, addend: 0x0, symName: __RNvYNvMs_NtCs9xDkXAC1PNF_5alloc3vecINtB7_3VecbE3lenINtNtNtCs2tD97QJu26F_4core3ops8function5FnMutTRBx_EE8call_mutCsaYfPqFfImBE_4dprs, symObjAddr: 0x39B8, symBinAddr: 0x29E10, symSize: 0x28 }
  - { offsetInCU: 0x27EA, offset: 0x95614, size: 0x8, addend: 0x0, symName: __RNvYFUPuEuNtNtCs2tD97QJu26F_4core6marker5FnPtr4addrCsaYfPqFfImBE_4dprs, symObjAddr: 0x3658, symBinAddr: 0x29AB0, symSize: 0x14 }
  - { offsetInCU: 0x6533, offset: 0x9935D, size: 0x8, addend: 0x0, symName: __RNvXs4_NtNtCsF7gmULBm3O_4pyo37pyclass5guardINtB5_12PyClassGuardNtNtCsaYfPqFfImBE_4dprs10parameters10ProcessingENtNtNtCs2tD97QJu26F_4core3ops4drop4Drop4dropB13_, symObjAddr: 0x2A78, symBinAddr: 0x28EF4, symSize: 0x2C }
  - { offsetInCU: 0x6566, offset: 0x99390, size: 0x8, addend: 0x0, symName: __RNvXs4_NtNtCsF7gmULBm3O_4pyo37pyclass5guardINtB5_12PyClassGuardNtNtCsaYfPqFfImBE_4dprs10parameters17BoundaryConditionENtNtNtCs2tD97QJu26F_4core3ops4drop4Drop4dropB13_, symObjAddr: 0x2AA4, symBinAddr: 0x28F20, symSize: 0x2C }
  - { offsetInCU: 0x6599, offset: 0x993C3, size: 0x8, addend: 0x0, symName: __RNvXs4_NtNtCsF7gmULBm3O_4pyo37pyclass5guardINtB5_12PyClassGuardNtNtCsaYfPqFfImBE_4dprs10parameters8TopologyENtNtNtCs2tD97QJu26F_4core3ops4drop4Drop4dropB13_, symObjAddr: 0x2AD0, symBinAddr: 0x28F4C, symSize: 0x2C }
  - { offsetInCU: 0x65CC, offset: 0x993F6, size: 0x8, addend: 0x0, symName: __RNvXs4_NtNtCsF7gmULBm3O_4pyo37pyclass5guardINtB5_12PyClassGuardNtNtCsaYfPqFfImBE_4dprs10parameters9DimensionENtNtNtCs2tD97QJu26F_4core3ops4drop4Drop4dropB13_, symObjAddr: 0x2AFC, symBinAddr: 0x28F78, symSize: 0x2C }
  - { offsetInCU: 0x6753, offset: 0x9957D, size: 0x8, addend: 0x0, symName: __RNvXs3_NtCsF7gmULBm3O_4pyo36pycellINtB5_5PyRefNtNtCsaYfPqFfImBE_4dprs10parameters10ProcessingENtNtNtCs2tD97QJu26F_4core3ops4drop4Drop4dropBM_, symObjAddr: 0x29C8, symBinAddr: 0x28E44, symSize: 0x2C }
  - { offsetInCU: 0x6786, offset: 0x995B0, size: 0x8, addend: 0x0, symName: __RNvXs3_NtCsF7gmULBm3O_4pyo36pycellINtB5_5PyRefNtNtCsaYfPqFfImBE_4dprs10parameters17BoundaryConditionENtNtNtCs2tD97QJu26F_4core3ops4drop4Drop4dropBM_, symObjAddr: 0x29F4, symBinAddr: 0x28E70, symSize: 0x2C }
  - { offsetInCU: 0x67B9, offset: 0x995E3, size: 0x8, addend: 0x0, symName: __RNvXs3_NtCsF7gmULBm3O_4pyo36pycellINtB5_5PyRefNtNtCsaYfPqFfImBE_4dprs10parameters8TopologyENtNtNtCs2tD97QJu26F_4core3ops4drop4Drop4dropBM_, symObjAddr: 0x2A20, symBinAddr: 0x28E9C, symSize: 0x2C }
  - { offsetInCU: 0x67EC, offset: 0x99616, size: 0x8, addend: 0x0, symName: __RNvXs3_NtCsF7gmULBm3O_4pyo36pycellINtB5_5PyRefNtNtCsaYfPqFfImBE_4dprs10parameters9DimensionENtNtNtCs2tD97QJu26F_4core3ops4drop4Drop4dropBM_, symObjAddr: 0x2A4C, symBinAddr: 0x28EC8, symSize: 0x2C }
  - { offsetInCU: 0x68A3, offset: 0x996CD, size: 0x8, addend: 0x0, symName: __RNvXs8_NtCsF7gmULBm3O_4pyo38instanceINtB5_5BoundNtNtCsaYfPqFfImBE_4dprs10parameters10ProcessingENtNtNtCs2tD97QJu26F_4core3ops4drop4Drop4dropBO_, symObjAddr: 0x2D9C, symBinAddr: 0x29218, symSize: 0x1A0 }
  - { offsetInCU: 0x6912, offset: 0x9973C, size: 0x8, addend: 0x0, symName: __RNvXs8_NtCsF7gmULBm3O_4pyo38instanceINtB5_5BoundNtNtCsaYfPqFfImBE_4dprs10parameters17BoundaryConditionENtNtNtCs2tD97QJu26F_4core3ops4drop4Drop4dropBO_, symObjAddr: 0x2F3C, symBinAddr: 0x293B8, symSize: 0x1A0 }
  - { offsetInCU: 0x6981, offset: 0x997AB, size: 0x8, addend: 0x0, symName: __RNvXs8_NtCsF7gmULBm3O_4pyo38instanceINtB5_5BoundNtNtCsaYfPqFfImBE_4dprs10parameters8TopologyENtNtNtCs2tD97QJu26F_4core3ops4drop4Drop4dropBO_, symObjAddr: 0x30DC, symBinAddr: 0x29558, symSize: 0x1A0 }
  - { offsetInCU: 0x69F0, offset: 0x9981A, size: 0x8, addend: 0x0, symName: __RNvXs8_NtCsF7gmULBm3O_4pyo38instanceINtB5_5BoundNtNtCsaYfPqFfImBE_4dprs10parameters9DimensionENtNtNtCs2tD97QJu26F_4core3ops4drop4Drop4dropBO_, symObjAddr: 0x327C, symBinAddr: 0x296F8, symSize: 0x1A0 }
  - { offsetInCU: 0x6A65, offset: 0x9988F, size: 0x8, addend: 0x0, symName: __RNvXsy_NtCsF7gmULBm3O_4pyo38instanceINtB5_2PyNtNtCsaYfPqFfImBE_4dprs10parameters10ProcessingENtNtNtCs2tD97QJu26F_4core3ops4drop4Drop4dropBL_, symObjAddr: 0x35B8, symBinAddr: 0x29A10, symSize: 0x28 }
  - { offsetInCU: 0x6A98, offset: 0x998C2, size: 0x8, addend: 0x0, symName: __RNvXsy_NtCsF7gmULBm3O_4pyo38instanceINtB5_2PyNtNtCsaYfPqFfImBE_4dprs10parameters17BoundaryConditionENtNtNtCs2tD97QJu26F_4core3ops4drop4Drop4dropBL_, symObjAddr: 0x35E0, symBinAddr: 0x29A38, symSize: 0x28 }
  - { offsetInCU: 0x6ACB, offset: 0x998F5, size: 0x8, addend: 0x0, symName: __RNvXsy_NtCsF7gmULBm3O_4pyo38instanceINtB5_2PyNtNtCsaYfPqFfImBE_4dprs10parameters8TopologyENtNtNtCs2tD97QJu26F_4core3ops4drop4Drop4dropBL_, symObjAddr: 0x3608, symBinAddr: 0x29A60, symSize: 0x28 }
  - { offsetInCU: 0x6AFE, offset: 0x99928, size: 0x8, addend: 0x0, symName: __RNvXsy_NtCsF7gmULBm3O_4pyo38instanceINtB5_2PyNtNtCsaYfPqFfImBE_4dprs10parameters9DimensionENtNtNtCs2tD97QJu26F_4core3ops4drop4Drop4dropBL_, symObjAddr: 0x3630, symBinAddr: 0x29A88, symSize: 0x28 }
  - { offsetInCU: 0x7462, offset: 0x9A28C, size: 0x8, addend: 0x0, symName: __RNvXNvXs7_NtNtCs9xDkXAC1PNF_5alloc11collections11linked_listINtB8_10LinkedListppENtNtNtCs2tD97QJu26F_4core3ops4drop4Drop4dropINtB2_9DropGuardINtNtBc_3vec3VecbENtNtBc_5alloc6GlobalEB1h_4dropCsaYfPqFfImBE_4dprs, symObjAddr: 0x257C, symBinAddr: 0x28AB0, symSize: 0x16C }
  - { offsetInCU: 0x7605, offset: 0x9A42F, size: 0x8, addend: 0x0, symName: __RNvXs7_NtNtCs9xDkXAC1PNF_5alloc11collections11linked_listINtB5_10LinkedListINtNtB9_3vec3VecbEENtNtNtCs2tD97QJu26F_4core3ops4drop4Drop4dropCsaYfPqFfImBE_4dprs, symObjAddr: 0x2B28, symBinAddr: 0x28FA4, symSize: 0x1A4 }
  - { offsetInCU: 0x783B, offset: 0x9A665, size: 0x8, addend: 0x0, symName: __RNvXNvXse_NtNtCs9xDkXAC1PNF_5alloc3vec9into_iterINtB8_8IntoIterppENtNtNtCs2tD97QJu26F_4core3ops4drop4Drop4dropINtB2_9DropGuardINtBa_3VecbENtNtBc_5alloc6GlobalEB12_4dropCsaYfPqFfImBE_4dprs, symObjAddr: 0x26E8, symBinAddr: 0x28C1C, symSize: 0x6C }
  - { offsetInCU: 0x797E, offset: 0x9A7A8, size: 0x8, addend: 0x0, symName: __RNvXNvXse_NtNtCs9xDkXAC1PNF_5alloc3vec9into_iterINtB8_8IntoIterppENtNtNtCs2tD97QJu26F_4core3ops4drop4Drop4dropINtB2_9DropGuardbNtNtBc_5alloc6GlobalEB12_4dropCsaYfPqFfImBE_4dprs, symObjAddr: 0x2754, symBinAddr: 0x28C88, symSize: 0x6C }
  - { offsetInCU: 0x7B11, offset: 0x9A93B, size: 0x8, addend: 0x0, symName: __RNvXse_NtNtCs9xDkXAC1PNF_5alloc3vec9into_iterINtB5_8IntoIterINtB7_3VecbEENtNtNtCs2tD97QJu26F_4core3ops4drop4Drop4dropCsaYfPqFfImBE_4dprs, symObjAddr: 0x345C, symBinAddr: 0x298D8, symSize: 0x78 }
  - { offsetInCU: 0x7B63, offset: 0x9A98D, size: 0x8, addend: 0x0, symName: __RNvXse_NtNtCs9xDkXAC1PNF_5alloc3vec9into_iterINtB5_8IntoIterbENtNtNtCs2tD97QJu26F_4core3ops4drop4Drop4dropCsaYfPqFfImBE_4dprs, symObjAddr: 0x34D4, symBinAddr: 0x29950, symSize: 0x64 }
  - { offsetInCU: 0x7C87, offset: 0x9AAB1, size: 0x8, addend: 0x0, symName: __RNvXs0_NtNtCs9xDkXAC1PNF_5alloc3vec13in_place_dropINtB5_24InPlaceDstDataSrcBufDropINtB7_3VecbEB1i_ENtNtNtCs2tD97QJu26F_4core3ops4drop4Drop4dropCsaYfPqFfImBE_4dprs, symObjAddr: 0x27C0, symBinAddr: 0x28CF4, symSize: 0xB4 }
  - { offsetInCU: 0x7E09, offset: 0x9AC33, size: 0x8, addend: 0x0, symName: __RNvXs_NtNtCs9xDkXAC1PNF_5alloc3vec13in_place_dropINtB4_11InPlaceDropINtB6_3VecbEENtNtNtCs2tD97QJu26F_4core3ops4drop4Drop4dropCsaYfPqFfImBE_4dprs, symObjAddr: 0x341C, symBinAddr: 0x29898, symSize: 0x40 }
  - { offsetInCU: 0x7F11, offset: 0x9AD3B, size: 0x8, addend: 0x0, symName: __RNvXso_NtCs9xDkXAC1PNF_5alloc3vecINtB5_3VecIBw_bEENtNtNtCs2tD97QJu26F_4core3ops4drop4Drop4dropCsaYfPqFfImBE_4dprs, symObjAddr: 0x3538, symBinAddr: 0x299B4, symSize: 0x38 }
  - { offsetInCU: 0x7FC1, offset: 0x9ADEB, size: 0x8, addend: 0x0, symName: __RNvXso_NtCs9xDkXAC1PNF_5alloc3vecINtB5_3VecbENtNtNtCs2tD97QJu26F_4core3ops4drop4Drop4dropCsaYfPqFfImBE_4dprs, symObjAddr: 0x3594, symBinAddr: 0x299EC, symSize: 0x24 }
  - { offsetInCU: 0x84C5, offset: 0x9B2EF, size: 0x8, addend: 0x0, symName: __RNvXs1_NtCs9xDkXAC1PNF_5alloc7raw_vecINtB5_6RawVecINtNtB7_3vec3VecbEENtNtNtCs2tD97QJu26F_4core3ops4drop4Drop4dropCsaYfPqFfImBE_4dprs, symObjAddr: 0x2874, symBinAddr: 0x28DA8, symSize: 0x34 }
  - { offsetInCU: 0x8501, offset: 0x9B32B, size: 0x8, addend: 0x0, symName: __RNvXs1_NtCs9xDkXAC1PNF_5alloc7raw_vecINtB5_6RawVecbENtNtNtCs2tD97QJu26F_4core3ops4drop4Drop4dropCsaYfPqFfImBE_4dprs, symObjAddr: 0x28D8, symBinAddr: 0x28DDC, symSize: 0x30 }
  - { offsetInCU: 0x8693, offset: 0x9B4BD, size: 0x8, addend: 0x0, symName: __RNvXs8_NtCs9xDkXAC1PNF_5alloc5boxedINtB5_3BoxINtNtNtB7_11collections11linked_list4NodeINtNtB7_3vec3VecbEERNtNtB7_5alloc6GlobalENtNtNtCs2tD97QJu26F_4core3ops4drop4Drop4dropCsaYfPqFfImBE_4dprs, symObjAddr: 0x2CCC, symBinAddr: 0x29148, symSize: 0xD0 }
  - { offsetInCU: 0x8E1C, offset: 0x9BC46, size: 0x8, addend: 0x0, symName: __RNvXs2_NtNtNtCslkboY0IC5z6_5rayon4iter7collect8consumerINtB5_13CollectResultbENtNtNtCs2tD97QJu26F_4core3ops4drop4Drop4dropCsaYfPqFfImBE_4dprs, symObjAddr: 0x2990, symBinAddr: 0x28E0C, symSize: 0x38 }
  - { offsetInCU: 0x1E, offset: 0x9EA1C, size: 0x8, addend: 0x0, symName: __RNvMNtNtCs9xDkXAC1PNF_5alloc3vec13in_place_dropINtB2_11InPlaceDropINtB4_3VecbEE3lenCsaYfPqFfImBE_4dprs, symObjAddr: 0x0, symBinAddr: 0x29F20, symSize: 0x84 }
